	.file	"main.c"
	.text
	.section	.rodata
.LC0:
	.string	"%x\n"
	.text
	.globl	main
	.type	main, @function
main:
.LFB0:
	.cfi_startproc
	endbr64
	pushq	%rbp
	.cfi_def_cfa_offset 16
	.cfi_offset 6, -16
	movq	%rsp, %rbp
	.cfi_def_cfa_register 6
	subq	$16, %rsp
	movq	%fs:40, %rax
	movq	%rax, -8(%rbp)
	xorl	%eax, %eax
	movl	$-1, -16(%rbp)
	movl	$0, -12(%rbp)
	leaq	-16(%rbp), %rdx
	leaq	-16(%rbp), %rax
	movq	%rax, %rsi
	movl	$4, %edi
	call	copy_array
	movl	-16(%rbp), %eax
	movl	%eax, %esi
	leaq	.LC0(%rip), %rdi
	movl	$0, %eax
	call	printf@PLT
	movl	$0, %eax
	movq	-8(%rbp), %rcx
	xorq	%fs:40, %rcx
	je	.L3
	call	__stack_chk_fail@PLT
.L3:
	leave
	.cfi_def_cfa 7, 8
	ret
	.cfi_endproc
.LFE0:
	.size	main, .-main
	.globl	copy_array
	.type	copy_array, @function
copy_array:
.LFB1:
	.cfi_startproc
	endbr64
	pushq	%rbp
	.cfi_def_cfa_offset 16
	.cfi_offset 6, -16
	movq	%rsp, %rbp
	.cfi_def_cfa_register 6
	movl	%edi, -4(%rbp)
	movq	%rsi, -16(%rbp)
	movq	%rdx, -24(%rbp)
	jmp	.L5
.L6:
	movq	-24(%rbp), %rdx
	leaq	1(%rdx), %rax
	movq	%rax, -24(%rbp)
	movq	-16(%rbp), %rax
	leaq	1(%rax), %rcx
	movq	%rcx, -16(%rbp)
	movzbl	(%rdx), %edx
	movb	%dl, (%rax)
.L5:
	movl	-4(%rbp), %eax
	leal	-1(%rax), %edx
	movl	%edx, -4(%rbp)
	testl	%eax, %eax
	jg	.L6
	nop
	nop
	popq	%rbp
	.cfi_def_cfa 7, 8
	ret
	.cfi_endproc
.LFE1:
	.size	copy_array, .-copy_array
	.ident	"GCC: (Ubuntu 9.3.0-17ubuntu1~20.04) 9.3.0"
	.section	.note.GNU-stack,"",@progbits
	.section	.note.gnu.property,"a"
	.align 8
	.long	 1f - 0f
	.long	 4f - 1f
	.long	 5
0:
	.string	 "GNU"
1:
	.align 8
	.long	 0xc0000002
	.long	 3f - 2f
2:
	.long	 0x3
3:
	.align 8
4:
