In archive ./ble_controller_lib.X.a:

ble_cmn.o:     file format elf32-littlearm


Disassembly of section .text.BLE_CmnExtractExtHeaderField:

00000000 <BLE_CmnExtractExtHeaderField>:
   0:	7803      	ldrb	r3, [r0, #0]
   2:	f013 033f 	ands.w	r3, r3, #63	; 0x3f
   6:	d06c      	beq.n	e2 <.LVL39>
   8:	3901      	subs	r1, #1

0000000a <.LVL1>:
   a:	2906      	cmp	r1, #6
   c:	d867      	bhi.n	de <.LVL38>
   e:	e8df f001 	tbb	[pc, r1]
  12:	0804      	.short	0x0804
  14:	3827190f 	.word	0x3827190f
  18:	4d          	.byte	0x4d
  19:	00          	.byte	0x00
  1a:	2301      	movs	r3, #1

0000001c <.LVL2>:
  1c:	3301      	adds	r3, #1

0000001e <.LVL3>:
  1e:	4418      	add	r0, r3

00000020 <.LVL4>:
  20:	4770      	bx	lr

00000022 <.LVL5>:
  22:	7843      	ldrb	r3, [r0, #1]
  24:	f013 0f01 	tst.w	r3, #1
  28:	bf0c      	ite	eq
  2a:	2301      	moveq	r3, #1
  2c:	2307      	movne	r3, #7
  2e:	e7f5      	b.n	1c <.LVL2>
  30:	7842      	ldrb	r2, [r0, #1]
  32:	f012 0f01 	tst.w	r2, #1
  36:	bf0c      	ite	eq
  38:	2301      	moveq	r3, #1
  3a:	2307      	movne	r3, #7

0000003c <.LVL7>:
  3c:	0792      	lsls	r2, r2, #30
  3e:	d5ed      	bpl.n	1c <.LVL2>
  40:	3306      	adds	r3, #6
  42:	e7eb      	b.n	1c <.LVL2>

00000044 <.LVL9>:
  44:	7842      	ldrb	r2, [r0, #1]
  46:	f012 0f01 	tst.w	r2, #1
  4a:	bf0c      	ite	eq
  4c:	2301      	moveq	r3, #1
  4e:	2307      	movne	r3, #7

00000050 <.LVL10>:
  50:	0791      	lsls	r1, r2, #30
  52:	bf48      	it	mi
  54:	3306      	addmi	r3, #6
  56:	0712      	lsls	r2, r2, #28
  58:	d5e0      	bpl.n	1c <.LVL2>
  5a:	3302      	adds	r3, #2

0000005c <.LVL12>:
  5c:	b2db      	uxtb	r3, r3

0000005e <.LVL13>:
  5e:	e7dd      	b.n	1c <.LVL2>

00000060 <.LVL14>:
  60:	7842      	ldrb	r2, [r0, #1]
  62:	f012 0f01 	tst.w	r2, #1
  66:	bf0c      	ite	eq
  68:	2301      	moveq	r3, #1
  6a:	2307      	movne	r3, #7

0000006c <.LVL15>:
  6c:	0791      	lsls	r1, r2, #30
  6e:	bf48      	it	mi
  70:	3306      	addmi	r3, #6
  72:	0711      	lsls	r1, r2, #28
  74:	bf44      	itt	mi
  76:	3302      	addmi	r3, #2

00000078 <.LVL17>:
  78:	b2db      	uxtbmi	r3, r3

0000007a <.LVL18>:
  7a:	06d2      	lsls	r2, r2, #27
  7c:	d5ce      	bpl.n	1c <.LVL2>
  7e:	3303      	adds	r3, #3

00000080 <.LVL19>:
  80:	e7ec      	b.n	5c <.LVL12>

00000082 <.LVL20>:
  82:	7842      	ldrb	r2, [r0, #1]
  84:	f012 0f01 	tst.w	r2, #1
  88:	bf0c      	ite	eq
  8a:	2301      	moveq	r3, #1
  8c:	2307      	movne	r3, #7

0000008e <.LVL21>:
  8e:	0791      	lsls	r1, r2, #30
  90:	bf48      	it	mi
  92:	3306      	addmi	r3, #6
  94:	0711      	lsls	r1, r2, #28
  96:	bf44      	itt	mi
  98:	3302      	addmi	r3, #2

0000009a <.LVL23>:
  9a:	b2db      	uxtbmi	r3, r3

0000009c <.LVL24>:
  9c:	06d1      	lsls	r1, r2, #27
  9e:	bf44      	itt	mi
  a0:	3303      	addmi	r3, #3

000000a2 <.LVL25>:
  a2:	b2db      	uxtbmi	r3, r3

000000a4 <.LVL26>:
  a4:	0692      	lsls	r2, r2, #26
  a6:	d5b9      	bpl.n	1c <.LVL2>
  a8:	3312      	adds	r3, #18

000000aa <.LVL27>:
  aa:	e7d7      	b.n	5c <.LVL12>

000000ac <.LVL28>:
  ac:	7842      	ldrb	r2, [r0, #1]
  ae:	f012 0f01 	tst.w	r2, #1
  b2:	bf0c      	ite	eq
  b4:	2301      	moveq	r3, #1
  b6:	2307      	movne	r3, #7

000000b8 <.LVL29>:
  b8:	0791      	lsls	r1, r2, #30
  ba:	bf48      	it	mi
  bc:	3306      	addmi	r3, #6
  be:	0711      	lsls	r1, r2, #28
  c0:	bf44      	itt	mi
  c2:	3302      	addmi	r3, #2

000000c4 <.LVL31>:
  c4:	b2db      	uxtbmi	r3, r3

000000c6 <.LVL32>:
  c6:	06d1      	lsls	r1, r2, #27
  c8:	bf44      	itt	mi
  ca:	3303      	addmi	r3, #3

000000cc <.LVL33>:
  cc:	b2db      	uxtbmi	r3, r3

000000ce <.LVL34>:
  ce:	0691      	lsls	r1, r2, #26
  d0:	bf44      	itt	mi
  d2:	3312      	addmi	r3, #18

000000d4 <.LVL35>:
  d4:	b2db      	uxtbmi	r3, r3

000000d6 <.LVL36>:
  d6:	0652      	lsls	r2, r2, #25
  d8:	d5a0      	bpl.n	1c <.LVL2>
  da:	3301      	adds	r3, #1

000000dc <.LVL37>:
  dc:	e7be      	b.n	5c <.LVL12>

000000de <.LVL38>:
  de:	2300      	movs	r3, #0
  e0:	e79c      	b.n	1c <.LVL2>

000000e2 <.LVL39>:
  e2:	4618      	mov	r0, r3

000000e4 <.LVL40>:
  e4:	4770      	bx	lr

Disassembly of section .text.BLE_MsgHandler:

00000000 <BLE_MsgHandler>:
   0:	e92d 41f0 	stmdb	sp!, {r4, r5, r6, r7, r8, lr}

00000004 <.LCFI0>:
   4:	4607      	mov	r7, r0
   6:	b290      	uxth	r0, r2

00000008 <.LVL42>:
   8:	460e      	mov	r6, r1
   a:	4615      	mov	r5, r2
   c:	4698      	mov	r8, r3
   e:	f7ff fffe 	bl	0 <BT_SYS_MsgGet>

00000012 <.LVL43>:
  12:	4604      	mov	r4, r0
  14:	b328      	cbz	r0, 62 <.LVL50+0x2>
  16:	7902      	ldrb	r2, [r0, #4]
  18:	80c6      	strh	r6, [r0, #6]
  1a:	0e33      	lsrs	r3, r6, #24
  1c:	f363 0202 	bfi	r2, r3, #0, #3
  20:	0c33      	lsrs	r3, r6, #16
  22:	7102      	strb	r2, [r0, #4]
  24:	7143      	strb	r3, [r0, #5]
  26:	b125      	cbz	r5, 32 <.LVL45>
  28:	462a      	mov	r2, r5
  2a:	4641      	mov	r1, r8
  2c:	3008      	adds	r0, #8

0000002e <.LVL44>:
  2e:	f7ff fffe 	bl	0 <memcpy>

00000032 <.LVL45>:
  32:	2f03      	cmp	r7, #3
  34:	d815      	bhi.n	62 <.LVL50+0x2>
  36:	e8df f007 	tbb	[pc, r7]
  3a:	0802      	.short	0x0802
  3c:	100c      	.short	0x100c
  3e:	4620      	mov	r0, r4
  40:	f7ff fffe 	bl	0 <BT_SYS_IntMsgSend2Int>

00000044 <.LVL46>:
  44:	2000      	movs	r0, #0
  46:	e8bd 81f0 	ldmia.w	sp!, {r4, r5, r6, r7, r8, pc}
  4a:	4620      	mov	r0, r4
  4c:	f7ff fffe 	bl	0 <BT_SYS_IntMsgSend>

00000050 <.LVL48>:
  50:	e7f8      	b.n	44 <.LVL46>
  52:	4620      	mov	r0, r4
  54:	f7ff fffe 	bl	0 <BT_SYS_MsgSend2Int>

00000058 <.LVL49>:
  58:	e7f4      	b.n	44 <.LVL46>
  5a:	4620      	mov	r0, r4
  5c:	f7ff fffe 	bl	0 <BT_SYS_MsgSend>

00000060 <.LVL50>:
  60:	e7f0      	b.n	44 <.LVL46>
  62:	f04f 30ff 	mov.w	r0, #4294967295
  66:	e8bd 81f0 	ldmia.w	sp!, {r4, r5, r6, r7, r8, pc}

ble_dtm.o:     file format elf32-littlearm


Disassembly of section .text._LE_DirectTestMode_CTC_EXT_INT0Proc__TX_END_1M:

00000000 <_LE_DirectTestMode_CTC_EXT_INT0Proc__TX_END_1M>:
   0:	4b03      	ldr	r3, [pc, #12]	; (10 <.LBB4+0xa>)
   2:	791a      	ldrb	r2, [r3, #4]
   4:	07d2      	lsls	r2, r2, #31

00000006 <.LBB4>:
   6:	bf42      	ittt	mi
   8:	88da      	ldrhmi	r2, [r3, #6]
   a:	3201      	addmi	r2, #1
   c:	80da      	strhmi	r2, [r3, #6]
   e:	4770      	bx	lr
  10:	00000000 	.word	0x00000000

Disassembly of section .text._LE_DTM_StartRxTest:

00000000 <_LE_DTM_StartRxTest>:
   0:	b5f8      	push	{r3, r4, r5, r6, r7, lr}

00000002 <.LBB13>:
   2:	4c65      	ldr	r4, [pc, #404]	; (198 <.LBE20+0x28>)
   4:	6823      	ldr	r3, [r4, #0]
   6:	b923      	cbnz	r3, 12 <.LBE13>
   8:	f44f 7082 	mov.w	r0, #260	; 0x104
   c:	f7ff fffe 	bl	0 <BT_SYS_MemAlloc>

00000010 <.LVL2>:
  10:	6020      	str	r0, [r4, #0]

00000012 <.LBE13>:
  12:	4962      	ldr	r1, [pc, #392]	; (19c <.LBE20+0x2c>)
  14:	7a0b      	ldrb	r3, [r1, #8]
  16:	2b01      	cmp	r3, #1
  18:	f000 80b4 	beq.w	184 <.LBE20+0x14>
  1c:	f0c0 80ab 	bcc.w	176 <.LBE20+0x6>
  20:	2b04      	cmp	r3, #4
  22:	f000 80b3 	beq.w	18c <.LBE20+0x1c>
  26:	4b5e      	ldr	r3, [pc, #376]	; (1a0 <.LBE20+0x30>)
  28:	6822      	ldr	r2, [r4, #0]
  2a:	f241 0648 	movw	r6, #4168	; 0x1048
  2e:	b294      	uxth	r4, r2
  30:	5998      	ldr	r0, [r3, r6]
  32:	f364 401f 	bfi	r0, r4, #16, #16
  36:	5198      	str	r0, [r3, r6]
  38:	f241 054c 	movw	r5, #4172	; 0x104c
  3c:	5958      	ldr	r0, [r3, r5]
  3e:	f364 401f 	bfi	r0, r4, #16, #16
  42:	5158      	str	r0, [r3, r5]
  44:	f241 0450 	movw	r4, #4176	; 0x1050
  48:	1d10      	adds	r0, r2, #4
  4a:	591f      	ldr	r7, [r3, r4]
  4c:	b280      	uxth	r0, r0
  4e:	f360 471f 	bfi	r7, r0, #16, #16
  52:	511f      	str	r7, [r3, r4]
  54:	599f      	ldr	r7, [r3, r6]
  56:	f360 070f 	bfi	r7, r0, #0, #16
  5a:	519f      	str	r7, [r3, r6]
  5c:	595e      	ldr	r6, [r3, r5]
  5e:	f360 060f 	bfi	r6, r0, #0, #16
  62:	515e      	str	r6, [r3, r5]
  64:	f502 7282 	add.w	r2, r2, #260	; 0x104
  68:	5918      	ldr	r0, [r3, r4]
  6a:	b292      	uxth	r2, r2
  6c:	f362 000f 	bfi	r0, r2, #0, #16
  70:	5118      	str	r0, [r3, r4]
  72:	f241 0230 	movw	r2, #4144	; 0x1030
  76:	f244 1429 	movw	r4, #16681	; 0x4129
  7a:	5898      	ldr	r0, [r3, r2]
  7c:	f040 0004 	orr.w	r0, r0, #4
  80:	5098      	str	r0, [r3, r2]
  82:	5898      	ldr	r0, [r3, r2]
  84:	f040 0008 	orr.w	r0, r0, #8
  88:	5098      	str	r0, [r3, r2]
  8a:	5898      	ldr	r0, [r3, r2]
  8c:	f040 0001 	orr.w	r0, r0, #1
  90:	5098      	str	r0, [r3, r2]
  92:	f503 5283 	add.w	r2, r3, #4192	; 0x1060

00000096 <.LBB17>:
  96:	2505      	movs	r5, #5

00000098 <.LBE17>:
  98:	6810      	ldr	r0, [r2, #0]
  9a:	f364 000f 	bfi	r0, r4, #0, #16
  9e:	6010      	str	r0, [r2, #0]
  a0:	6810      	ldr	r0, [r2, #0]
  a2:	4c40      	ldr	r4, [pc, #256]	; (1a4 <.LBE20+0x34>)
  a4:	f2c7 1076 	movt	r0, #29046	; 0x7176
  a8:	6010      	str	r0, [r2, #0]
  aa:	f241 0254 	movw	r2, #4180	; 0x1054
  ae:	5898      	ldr	r0, [r3, r2]
  b0:	f440 0000 	orr.w	r0, r0, #8388608	; 0x800000
  b4:	5098      	str	r0, [r3, r2]
  b6:	7808      	ldrb	r0, [r1, #0]
  b8:	5c24      	ldrb	r4, [r4, r0]
  ba:	5898      	ldr	r0, [r3, r2]
  bc:	f364 4015 	bfi	r0, r4, #16, #6
  c0:	5098      	str	r0, [r3, r2]
  c2:	f241 0258 	movw	r2, #4184	; 0x1058
  c6:	f64f 74ff 	movw	r4, #65535	; 0xffff
  ca:	5898      	ldr	r0, [r3, r2]
  cc:	f364 000f 	bfi	r0, r4, #0, #16
  d0:	5098      	str	r0, [r3, r2]
  d2:	5898      	ldr	r0, [r3, r2]
  d4:	f364 401f 	bfi	r0, r4, #16, #16
  d8:	5098      	str	r0, [r3, r2]
  da:	f241 025c 	movw	r2, #4188	; 0x105c
  de:	2455      	movs	r4, #85	; 0x55
  e0:	5898      	ldr	r0, [r3, r2]
  e2:	f040 001f 	orr.w	r0, r0, #31
  e6:	5098      	str	r0, [r3, r2]
  e8:	5898      	ldr	r0, [r3, r2]
  ea:	f2c5 5055 	movt	r0, #21845	; 0x5555
  ee:	5098      	str	r0, [r3, r2]
  f0:	5898      	ldr	r0, [r3, r2]
  f2:	f364 200f 	bfi	r0, r4, #8, #8
  f6:	5098      	str	r0, [r3, r2]

000000f8 <.LBB20>:
  f8:	f641 2018 	movw	r0, #6680	; 0x1a18
  fc:	2401      	movs	r4, #1
  fe:	5a1a      	ldrh	r2, [r3, r0]
 100:	f442 7280 	orr.w	r2, r2, #256	; 0x100
 104:	521a      	strh	r2, [r3, r0]
 106:	f241 620c 	movw	r2, #5644	; 0x160c
 10a:	5898      	ldr	r0, [r3, r2]
 10c:	f364 605a 	bfi	r0, r4, #25, #2
 110:	5098      	str	r0, [r3, r2]
 112:	5898      	ldr	r0, [r3, r2]
 114:	f040 6000 	orr.w	r0, r0, #134217728	; 0x8000000
 118:	5098      	str	r0, [r3, r2]
 11a:	f503 54b1 	add.w	r4, r3, #5664	; 0x1620
 11e:	6820      	ldr	r0, [r4, #0]
 120:	f040 7080 	orr.w	r0, r0, #16777216	; 0x1000000
 124:	6020      	str	r0, [r4, #0]
 126:	f241 0068 	movw	r0, #4200	; 0x1068
 12a:	581c      	ldr	r4, [r3, r0]
 12c:	f365 0407 	bfi	r4, r5, #0, #8
 130:	501c      	str	r4, [r3, r0]
 132:	5898      	ldr	r0, [r3, r2]
 134:	4c1c      	ldr	r4, [pc, #112]	; (1a8 <.LBE20+0x38>)
 136:	f040 7080 	orr.w	r0, r0, #16777216	; 0x1000000
 13a:	5098      	str	r0, [r3, r2]
 13c:	68e0      	ldr	r0, [r4, #12]

0000013e <.LVL3>:
 13e:	f040 0002 	orr.w	r0, r0, #2
 142:	60e0      	str	r0, [r4, #12]
 144:	f503 50b0 	add.w	r0, r3, #5632	; 0x1600

00000148 <.LVL5>:
 148:	8804      	ldrh	r4, [r0, #0]

0000014a <.LVL6>:
 14a:	f36f 0407 	bfc	r4, #0, #8
 14e:	8004      	strh	r4, [r0, #0]

00000150 <.LVL7>:
 150:	f241 6404 	movw	r4, #5636	; 0x1604
 154:	5b18      	ldrh	r0, [r3, r4]
 156:	f040 00ff 	orr.w	r0, r0, #255	; 0xff
 15a:	5318      	strh	r0, [r3, r4]
 15c:	5898      	ldr	r0, [r3, r2]
 15e:	f040 00ff 	orr.w	r0, r0, #255	; 0xff
 162:	5098      	str	r0, [r3, r2]
 164:	f241 6208 	movw	r2, #5640	; 0x1608
 168:	5a98      	ldrh	r0, [r3, r2]
 16a:	f36f 0007 	bfc	r0, #0, #8
 16e:	5298      	strh	r0, [r3, r2]

00000170 <.LBE20>:
 170:	2302      	movs	r3, #2
 172:	710b      	strb	r3, [r1, #4]
 174:	bdf8      	pop	{r3, r4, r5, r6, r7, pc}
 176:	4b0d      	ldr	r3, [pc, #52]	; (1ac <.LBE20+0x3c>)
 178:	881a      	ldrh	r2, [r3, #0]
 17a:	2001      	movs	r0, #1
 17c:	f360 0283 	bfi	r2, r0, #2, #2
 180:	801a      	strh	r2, [r3, #0]
 182:	e750      	b.n	26 <.LBE13+0x14>
 184:	4b09      	ldr	r3, [pc, #36]	; (1ac <.LBE20+0x3c>)
 186:	2002      	movs	r0, #2
 188:	881a      	ldrh	r2, [r3, #0]
 18a:	e7f7      	b.n	17c <.LBE20+0xc>
 18c:	4a07      	ldr	r2, [pc, #28]	; (1ac <.LBE20+0x3c>)
 18e:	8813      	ldrh	r3, [r2, #0]
 190:	f043 030c 	orr.w	r3, r3, #12
 194:	8013      	strh	r3, [r2, #0]
 196:	e746      	b.n	26 <.LBE13+0x14>
	...
 1a8:	41011000 	.word	0x41011000
 1ac:	000010c0 	.word	0x000010c0

Disassembly of section .text._LE_DirectTestMode_CalcTxInterval:

00000000 <_LE_DirectTestMode_CalcTxInterval>:
   0:	4a13      	ldr	r2, [pc, #76]	; (50 <.LVL27+0x4>)
   2:	7a13      	ldrb	r3, [r2, #8]
   4:	2b03      	cmp	r3, #3
   6:	d821      	bhi.n	4c <.LVL27>
   8:	e8df f003 	tbb	[pc, r3]
   c:	1b161202 	.word	0x1b161202

00000010 <.LVL9>:
  10:	7893      	ldrb	r3, [r2, #2]

00000012 <.LVL10>:
  12:	00db      	lsls	r3, r3, #3

00000014 <.LVL11>:
  14:	3350      	adds	r3, #80	; 0x50

00000016 <.LVL12>:
  16:	33f9      	adds	r3, #249	; 0xf9
  18:	f240 2071 	movw	r0, #625	; 0x271
  1c:	fbb3 f1f0 	udiv	r1, r3, r0

00000020 <.LVL13>:
  20:	fb00 3311 	mls	r3, r0, r1, r3
  24:	b103      	cbz	r3, 28 <.LVL13+0x8>
  26:	3101      	adds	r1, #1
  28:	2300      	movs	r3, #0
  2a:	7293      	strb	r3, [r2, #10]
  2c:	7251      	strb	r1, [r2, #9]
  2e:	4770      	bx	lr

00000030 <.LVL15>:
  30:	7893      	ldrb	r3, [r2, #2]

00000032 <.LVL16>:
  32:	009b      	lsls	r3, r3, #2

00000034 <.LVL17>:
  34:	332c      	adds	r3, #44	; 0x2c

00000036 <.LVL18>:
  36:	e7ee      	b.n	16 <.LVL12>

00000038 <.LVL19>:
  38:	7893      	ldrb	r3, [r2, #2]

0000003a <.LVL20>:
  3a:	011b      	lsls	r3, r3, #4

0000003c <.LVL21>:
  3c:	f503 73e7 	add.w	r3, r3, #462	; 0x1ce

00000040 <.LVL22>:
  40:	e7e9      	b.n	16 <.LVL12>

00000042 <.LVL23>:
  42:	7893      	ldrb	r3, [r2, #2]

00000044 <.LVL24>:
  44:	019b      	lsls	r3, r3, #6

00000046 <.LVL25>:
  46:	f503 7334 	add.w	r3, r3, #720	; 0x2d0

0000004a <.LVL26>:
  4a:	e7e4      	b.n	16 <.LVL12>

0000004c <.LVL27>:
  4c:	2300      	movs	r3, #0
  4e:	e7e2      	b.n	16 <.LVL12>
  50:	00000000 	.word	0x00000000

Disassembly of section .text._LE_DTM_StartTxTest:

00000000 <_LE_DTM_StartTxTest>:
   0:	e92d 41f0 	stmdb	sp!, {r4, r5, r6, r7, r8, lr}

00000004 <.LBB27>:
   4:	4e7c      	ldr	r6, [pc, #496]	; (1f8 <.LVL55+0xe>)
   6:	6833      	ldr	r3, [r6, #0]
   8:	b923      	cbnz	r3, 14 <.LBE27>
   a:	f44f 7082 	mov.w	r0, #260	; 0x104
   e:	f7ff fffe 	bl	0 <BT_SYS_MemAlloc>

00000012 <.LVL28>:
  12:	6030      	str	r0, [r6, #0]

00000014 <.LBE27>:
  14:	4d79      	ldr	r5, [pc, #484]	; (1fc <.LVL55+0x12>)
  16:	7a2b      	ldrb	r3, [r5, #8]
  18:	2b03      	cmp	r3, #3
  1a:	d809      	bhi.n	30 <.LBE27+0x1c>
  1c:	e8df f003 	tbb	[pc, r3]
  20:	545d5002 	.word	0x545d5002
  24:	4b76      	ldr	r3, [pc, #472]	; (200 <.LVL55+0x16>)
  26:	881a      	ldrh	r2, [r3, #0]
  28:	2101      	movs	r1, #1
  2a:	f361 0201 	bfi	r2, r1, #0, #2
  2e:	801a      	strh	r2, [r3, #0]
  30:	4c74      	ldr	r4, [pc, #464]	; (204 <.LVL55+0x1a>)
  32:	f241 0330 	movw	r3, #4144	; 0x1030
  36:	f244 1129 	movw	r1, #16681	; 0x4129
  3a:	58e2      	ldr	r2, [r4, r3]
  3c:	f042 0204 	orr.w	r2, r2, #4
  40:	50e2      	str	r2, [r4, r3]
  42:	58e2      	ldr	r2, [r4, r3]
  44:	f042 0208 	orr.w	r2, r2, #8
  48:	50e2      	str	r2, [r4, r3]
  4a:	58e2      	ldr	r2, [r4, r3]
  4c:	f042 0201 	orr.w	r2, r2, #1
  50:	50e2      	str	r2, [r4, r3]
  52:	f504 5383 	add.w	r3, r4, #4192	; 0x1060
  56:	681a      	ldr	r2, [r3, #0]
  58:	f361 020f 	bfi	r2, r1, #0, #16
  5c:	601a      	str	r2, [r3, #0]
  5e:	681a      	ldr	r2, [r3, #0]
  60:	f2c7 1276 	movt	r2, #29046	; 0x7176
  64:	601a      	str	r2, [r3, #0]
  66:	6833      	ldr	r3, [r6, #0]
  68:	78ea      	ldrb	r2, [r5, #3]
  6a:	701a      	strb	r2, [r3, #0]
  6c:	6833      	ldr	r3, [r6, #0]
  6e:	78aa      	ldrb	r2, [r5, #2]
  70:	705a      	strb	r2, [r3, #1]
  72:	6833      	ldr	r3, [r6, #0]
  74:	f241 027c 	movw	r2, #4220	; 0x107c
  78:	b298      	uxth	r0, r3
  7a:	52a0      	strh	r0, [r4, r2]
  7c:	f504 5284 	add.w	r2, r4, #4224	; 0x1080
  80:	6811      	ldr	r1, [r2, #0]
  82:	f360 010f 	bfi	r1, r0, #0, #16
  86:	6011      	str	r1, [r2, #0]
  88:	1d18      	adds	r0, r3, #4
  8a:	f241 0184 	movw	r1, #4228	; 0x1084
  8e:	b286      	uxth	r6, r0
  90:	5266      	strh	r6, [r4, r1]
  92:	f241 013c 	movw	r1, #4156	; 0x103c
  96:	f504 5282 	add.w	r2, r4, #4160	; 0x1040
  9a:	5266      	strh	r6, [r4, r1]
  9c:	6811      	ldr	r1, [r2, #0]
  9e:	f366 010f 	bfi	r1, r6, #0, #16
  a2:	6011      	str	r1, [r2, #0]
  a4:	f241 0244 	movw	r2, #4164	; 0x1044
  a8:	f503 7382 	add.w	r3, r3, #260	; 0x104
  ac:	52a3      	strh	r3, [r4, r2]

000000ae <.LVL29>:
  ae:	78eb      	ldrb	r3, [r5, #3]
  b0:	2b07      	cmp	r3, #7
  b2:	d843      	bhi.n	13c <.LBE32>
  b4:	e8df f003 	tbb	[pc, r3]
  b8:	1a8e893a 	.word	0x1a8e893a
  bc:	9c999491 	.word	0x9c999491

000000c0 <.LVL30>:
  c0:	4b4f      	ldr	r3, [pc, #316]	; (200 <.LVL55+0x16>)
  c2:	2102      	movs	r1, #2
  c4:	881a      	ldrh	r2, [r3, #0]
  c6:	e7b0      	b.n	2a <.LBE27+0x16>
  c8:	4b4d      	ldr	r3, [pc, #308]	; (200 <.LVL55+0x16>)
  ca:	881a      	ldrh	r2, [r3, #0]
  cc:	f042 0203 	orr.w	r2, r2, #3
  d0:	801a      	strh	r2, [r3, #0]
  d2:	881a      	ldrh	r2, [r3, #0]
  d4:	f36f 1204 	bfc	r2, #4, #1
  d8:	e7a9      	b.n	2e <.LBE27+0x1a>
  da:	4b49      	ldr	r3, [pc, #292]	; (200 <.LVL55+0x16>)
  dc:	881a      	ldrh	r2, [r3, #0]
  de:	f042 0203 	orr.w	r2, r2, #3
  e2:	801a      	strh	r2, [r3, #0]
  e4:	881a      	ldrh	r2, [r3, #0]
  e6:	f042 0210 	orr.w	r2, r2, #16
  ea:	e7a0      	b.n	2e <.LBE27+0x1a>

000000ec <.LVL31>:
  ec:	2700      	movs	r7, #0
  ee:	2601      	movs	r6, #1

000000f0 <.LBB31>:
  f0:	f647 7cfe 	movw	ip, #32766	; 0x7ffe

000000f4 <.LVL32>:
  f4:	78ab      	ldrb	r3, [r5, #2]
  f6:	fa5f fe87 	uxtb.w	lr, r7
  fa:	4573      	cmp	r3, lr
  fc:	d91e      	bls.n	13c <.LBE32>

000000fe <.LVL33>:
  fe:	2100      	movs	r1, #0
 100:	460a      	mov	r2, r1

00000102 <.LVL34>:
 102:	13b3      	asrs	r3, r6, #14
 104:	fa03 f801 	lsl.w	r8, r3, r1
 108:	ea83 3356 	eor.w	r3, r3, r6, lsr #13
 10c:	3101      	adds	r1, #1

0000010e <.LVL35>:
 10e:	ea42 0208 	orr.w	r2, r2, r8
 112:	f003 0301 	and.w	r3, r3, #1
 116:	ea0c 0846 	and.w	r8, ip, r6, lsl #1
 11a:	2908      	cmp	r1, #8
 11c:	b2d2      	uxtb	r2, r2

0000011e <.LVL36>:
 11e:	ea43 0608 	orr.w	r6, r3, r8

00000122 <.LVL37>:
 122:	d1ee      	bne.n	102 <.LVL34>
 124:	f800 200e 	strb.w	r2, [r0, lr]

00000128 <.LVL38>:
 128:	3701      	adds	r7, #1

0000012a <.LVL39>:
 12a:	e7e3      	b.n	f4 <.LVL32>

0000012c <.LBE31>:
 12c:	2700      	movs	r7, #0
 12e:	f240 16ff 	movw	r6, #511	; 0x1ff

00000132 <.LBB32>:
 132:	78ab      	ldrb	r3, [r5, #2]
 134:	fa5f fc87 	uxtb.w	ip, r7
 138:	4563      	cmp	r3, ip
 13a:	d82d      	bhi.n	198 <.LBB33>

0000013c <.LBE32>:
 13c:	f241 0354 	movw	r3, #4180	; 0x1054
 140:	4931      	ldr	r1, [pc, #196]	; (208 <.LVL55+0x1e>)
 142:	58e2      	ldr	r2, [r4, r3]
 144:	f442 0200 	orr.w	r2, r2, #8388608	; 0x800000
 148:	50e2      	str	r2, [r4, r3]
 14a:	786a      	ldrb	r2, [r5, #1]
 14c:	5c89      	ldrb	r1, [r1, r2]
 14e:	58e2      	ldr	r2, [r4, r3]
 150:	f361 4215 	bfi	r2, r1, #16, #6
 154:	50e2      	str	r2, [r4, r3]
 156:	f241 0358 	movw	r3, #4184	; 0x1058
 15a:	f64f 71ff 	movw	r1, #65535	; 0xffff
 15e:	58e2      	ldr	r2, [r4, r3]
 160:	f361 020f 	bfi	r2, r1, #0, #16
 164:	50e2      	str	r2, [r4, r3]
 166:	58e2      	ldr	r2, [r4, r3]
 168:	f361 421f 	bfi	r2, r1, #16, #16
 16c:	50e2      	str	r2, [r4, r3]
 16e:	f241 035c 	movw	r3, #4188	; 0x105c
 172:	2155      	movs	r1, #85	; 0x55
 174:	58e2      	ldr	r2, [r4, r3]
 176:	f042 021f 	orr.w	r2, r2, #31
 17a:	50e2      	str	r2, [r4, r3]
 17c:	58e2      	ldr	r2, [r4, r3]
 17e:	f2c5 5255 	movt	r2, #21845	; 0x5555
 182:	50e2      	str	r2, [r4, r3]
 184:	58e2      	ldr	r2, [r4, r3]
 186:	f361 220f 	bfi	r2, r1, #8, #8
 18a:	50e2      	str	r2, [r4, r3]
 18c:	f7ff fffe 	bl	0 <_LE_DTM_StartTxTest>

00000190 <.LVL43>:
 190:	2301      	movs	r3, #1
 192:	712b      	strb	r3, [r5, #4]
 194:	e8bd 81f0 	ldmia.w	sp!, {r4, r5, r6, r7, r8, pc}

00000198 <.LBB33>:
 198:	2100      	movs	r1, #0
 19a:	460a      	mov	r2, r1

0000019c <.LVL45>:
 19c:	1233      	asrs	r3, r6, #8
 19e:	fa03 fe01 	lsl.w	lr, r3, r1
 1a2:	ea42 020e 	orr.w	r2, r2, lr
 1a6:	ea83 1316 	eor.w	r3, r3, r6, lsr #4
 1aa:	ea4f 0e46 	mov.w	lr, r6, lsl #1
 1ae:	3101      	adds	r1, #1

000001b0 <.LVL46>:
 1b0:	f40e 7eff 	and.w	lr, lr, #510	; 0x1fe
 1b4:	f003 0301 	and.w	r3, r3, #1
 1b8:	2908      	cmp	r1, #8
 1ba:	b2d2      	uxtb	r2, r2

000001bc <.LVL47>:
 1bc:	ea43 060e 	orr.w	r6, r3, lr

000001c0 <.LVL48>:
 1c0:	d1ec      	bne.n	19c <.LVL45>
 1c2:	f800 200c 	strb.w	r2, [r0, ip]

000001c6 <.LVL49>:
 1c6:	3701      	adds	r7, #1

000001c8 <.LVL50>:
 1c8:	e7b3      	b.n	132 <.LBB32>

000001ca <.LBE33>:
 1ca:	78aa      	ldrb	r2, [r5, #2]
 1cc:	210f      	movs	r1, #15
 1ce:	f7ff fffe 	bl	0 <memset>

000001d2 <.LVL52>:
 1d2:	e7b3      	b.n	13c <.LBE32>

000001d4 <.LVL53>:
 1d4:	78aa      	ldrb	r2, [r5, #2]
 1d6:	2155      	movs	r1, #85	; 0x55
 1d8:	e7f9      	b.n	1ce <.LBE33+0x4>
 1da:	78aa      	ldrb	r2, [r5, #2]
 1dc:	21ff      	movs	r1, #255	; 0xff
 1de:	e7f6      	b.n	1ce <.LBE33+0x4>
 1e0:	78aa      	ldrb	r2, [r5, #2]
 1e2:	2100      	movs	r1, #0
 1e4:	f7ff fffe 	bl	0 <memset>

000001e8 <.LVL54>:
 1e8:	e7a8      	b.n	13c <.LBE32>

000001ea <.LVL55>:
 1ea:	78aa      	ldrb	r2, [r5, #2]
 1ec:	21f0      	movs	r1, #240	; 0xf0
 1ee:	e7ee      	b.n	1ce <.LBE33+0x4>
 1f0:	78aa      	ldrb	r2, [r5, #2]
 1f2:	21aa      	movs	r1, #170	; 0xaa
 1f4:	e7eb      	b.n	1ce <.LBE33+0x4>
 1f6:	bf00      	nop
	...
 200:	000010c0 	.word	0x000010c0
	...

Disassembly of section .text.vLE_Tx_Test_Proc:

00000000 <vLE_Tx_Test_Proc>:
   0:	b510      	push	{r4, lr}

00000002 <.LCFI2>:
   2:	491f      	ldr	r1, [pc, #124]	; (80 <.LCFI2+0x7e>)
   4:	7a8b      	ldrb	r3, [r1, #10]
   6:	7a4a      	ldrb	r2, [r1, #9]
   8:	3301      	adds	r3, #1
   a:	b2db      	uxtb	r3, r3
   c:	429a      	cmp	r2, r3
   e:	728b      	strb	r3, [r1, #10]
  10:	d134      	bne.n	7c <.LCFI2+0x7a>
  12:	2200      	movs	r2, #0
  14:	728a      	strb	r2, [r1, #10]
  16:	4b1b      	ldr	r3, [pc, #108]	; (84 <.LCFI2+0x82>)
  18:	f641 2124 	movw	r1, #6692	; 0x1a24
  1c:	f503 50b0 	add.w	r0, r3, #5632	; 0x1600
  20:	5859      	ldr	r1, [r3, r1]
  22:	8804      	ldrh	r4, [r0, #0]
  24:	3101      	adds	r1, #1
  26:	f001 01ff 	and.w	r1, r1, #255	; 0xff
  2a:	f503 53b1 	add.w	r3, r3, #5664	; 0x1620
  2e:	f361 0407 	bfi	r4, r1, #0, #8
  32:	8004      	strh	r4, [r0, #0]
  34:	6819      	ldr	r1, [r3, #0]
  36:	f362 11c7 	bfi	r1, r2, #7, #1
  3a:	6019      	str	r1, [r3, #0]
  3c:	6819      	ldr	r1, [r3, #0]
  3e:	f362 1186 	bfi	r1, r2, #6, #1
  42:	6019      	str	r1, [r3, #0]
  44:	6819      	ldr	r1, [r3, #0]
  46:	f362 1145 	bfi	r1, r2, #5, #1
  4a:	6019      	str	r1, [r3, #0]
  4c:	6819      	ldr	r1, [r3, #0]
  4e:	f362 1104 	bfi	r1, r2, #4, #1
  52:	6019      	str	r1, [r3, #0]
  54:	6819      	ldr	r1, [r3, #0]
  56:	f362 01c3 	bfi	r1, r2, #3, #1
  5a:	6019      	str	r1, [r3, #0]
  5c:	6819      	ldr	r1, [r3, #0]
  5e:	f362 0182 	bfi	r1, r2, #2, #1
  62:	6019      	str	r1, [r3, #0]
  64:	6819      	ldr	r1, [r3, #0]
  66:	f362 0141 	bfi	r1, r2, #1, #1
  6a:	6019      	str	r1, [r3, #0]
  6c:	6819      	ldr	r1, [r3, #0]
  6e:	f362 0100 	bfi	r1, r2, #0, #1
  72:	6019      	str	r1, [r3, #0]
  74:	681a      	ldr	r2, [r3, #0]
  76:	f042 0201 	orr.w	r2, r2, #1
  7a:	601a      	str	r2, [r3, #0]
  7c:	bd10      	pop	{r4, pc}
  7e:	bf00      	nop
	...

Disassembly of section .text.vLE_Rx_Test_Proc:

00000000 <vLE_Rx_Test_Proc>:
   0:	b570      	push	{r4, r5, r6, lr}

00000002 <.LCFI3>:
   2:	4b9d      	ldr	r3, [pc, #628]	; (278 <.LCFI3+0x276>)
   4:	4d9d      	ldr	r5, [pc, #628]	; (27c <.LCFI3+0x27a>)
   6:	791a      	ldrb	r2, [r3, #4]
   8:	792c      	ldrb	r4, [r5, #4]
   a:	f042 0202 	orr.w	r2, r2, #2
   e:	f014 0004 	ands.w	r0, r4, #4
  12:	711a      	strb	r2, [r3, #4]
  14:	f040 81e0 	bne.w	3d8 <.LCFI3+0x3d6>
  18:	4a99      	ldr	r2, [pc, #612]	; (280 <.LCFI3+0x27e>)
  1a:	f241 466c 	movw	r6, #5228	; 0x146c
  1e:	f044 043c 	orr.w	r4, r4, #60	; 0x3c
  22:	5b91      	ldrh	r1, [r2, r6]
  24:	f441 4100 	orr.w	r1, r1, #32768	; 0x8000
  28:	5391      	strh	r1, [r2, r6]
  2a:	f502 51b1 	add.w	r1, r2, #5664	; 0x1620
  2e:	680e      	ldr	r6, [r1, #0]
  30:	f360 16c7 	bfi	r6, r0, #7, #1
  34:	600e      	str	r6, [r1, #0]
  36:	680e      	ldr	r6, [r1, #0]
  38:	f360 1686 	bfi	r6, r0, #6, #1
  3c:	600e      	str	r6, [r1, #0]
  3e:	680e      	ldr	r6, [r1, #0]
  40:	f360 1645 	bfi	r6, r0, #5, #1
  44:	600e      	str	r6, [r1, #0]
  46:	680e      	ldr	r6, [r1, #0]
  48:	f360 1604 	bfi	r6, r0, #4, #1
  4c:	600e      	str	r6, [r1, #0]
  4e:	680e      	ldr	r6, [r1, #0]
  50:	f360 06c3 	bfi	r6, r0, #3, #1
  54:	600e      	str	r6, [r1, #0]
  56:	680e      	ldr	r6, [r1, #0]
  58:	f360 0682 	bfi	r6, r0, #2, #1
  5c:	600e      	str	r6, [r1, #0]
  5e:	680e      	ldr	r6, [r1, #0]
  60:	f360 0641 	bfi	r6, r0, #1, #1
  64:	600e      	str	r6, [r1, #0]
  66:	680e      	ldr	r6, [r1, #0]
  68:	f360 0600 	bfi	r6, r0, #0, #1
  6c:	600e      	str	r6, [r1, #0]
  6e:	680e      	ldr	r6, [r1, #0]
  70:	f046 0602 	orr.w	r6, r6, #2
  74:	600e      	str	r6, [r1, #0]
  76:	6899      	ldr	r1, [r3, #8]
  78:	3101      	adds	r1, #1
  7a:	6099      	str	r1, [r3, #8]
  7c:	6899      	ldr	r1, [r3, #8]
  7e:	3101      	adds	r1, #1
  80:	6099      	str	r1, [r3, #8]
  82:	6899      	ldr	r1, [r3, #8]
  84:	3101      	adds	r1, #1
  86:	6099      	str	r1, [r3, #8]
  88:	6899      	ldr	r1, [r3, #8]
  8a:	3101      	adds	r1, #1
  8c:	6099      	str	r1, [r3, #8]
  8e:	6899      	ldr	r1, [r3, #8]
  90:	3101      	adds	r1, #1
  92:	6099      	str	r1, [r3, #8]
  94:	6899      	ldr	r1, [r3, #8]
  96:	3101      	adds	r1, #1
  98:	6099      	str	r1, [r3, #8]
  9a:	6899      	ldr	r1, [r3, #8]
  9c:	3101      	adds	r1, #1
  9e:	6099      	str	r1, [r3, #8]
  a0:	6899      	ldr	r1, [r3, #8]
  a2:	3101      	adds	r1, #1
  a4:	6099      	str	r1, [r3, #8]
  a6:	6899      	ldr	r1, [r3, #8]
  a8:	3101      	adds	r1, #1
  aa:	6099      	str	r1, [r3, #8]
  ac:	6899      	ldr	r1, [r3, #8]
  ae:	3101      	adds	r1, #1
  b0:	6099      	str	r1, [r3, #8]
  b2:	6899      	ldr	r1, [r3, #8]
  b4:	3101      	adds	r1, #1
  b6:	6099      	str	r1, [r3, #8]
  b8:	6899      	ldr	r1, [r3, #8]
  ba:	3101      	adds	r1, #1
  bc:	6099      	str	r1, [r3, #8]
  be:	6899      	ldr	r1, [r3, #8]
  c0:	3101      	adds	r1, #1
  c2:	6099      	str	r1, [r3, #8]
  c4:	6899      	ldr	r1, [r3, #8]
  c6:	3101      	adds	r1, #1
  c8:	6099      	str	r1, [r3, #8]
  ca:	6899      	ldr	r1, [r3, #8]
  cc:	3101      	adds	r1, #1
  ce:	6099      	str	r1, [r3, #8]
  d0:	6899      	ldr	r1, [r3, #8]
  d2:	3101      	adds	r1, #1
  d4:	6099      	str	r1, [r3, #8]
  d6:	6899      	ldr	r1, [r3, #8]
  d8:	3101      	adds	r1, #1
  da:	6099      	str	r1, [r3, #8]
  dc:	6899      	ldr	r1, [r3, #8]
  de:	3101      	adds	r1, #1
  e0:	6099      	str	r1, [r3, #8]
  e2:	6899      	ldr	r1, [r3, #8]
  e4:	3101      	adds	r1, #1
  e6:	6099      	str	r1, [r3, #8]
  e8:	6899      	ldr	r1, [r3, #8]
  ea:	3101      	adds	r1, #1
  ec:	6099      	str	r1, [r3, #8]
  ee:	6899      	ldr	r1, [r3, #8]
  f0:	3101      	adds	r1, #1
  f2:	6099      	str	r1, [r3, #8]
  f4:	6899      	ldr	r1, [r3, #8]
  f6:	3101      	adds	r1, #1
  f8:	6099      	str	r1, [r3, #8]
  fa:	6899      	ldr	r1, [r3, #8]
  fc:	3101      	adds	r1, #1
  fe:	6099      	str	r1, [r3, #8]
 100:	6899      	ldr	r1, [r3, #8]
 102:	3101      	adds	r1, #1
 104:	6099      	str	r1, [r3, #8]
 106:	6899      	ldr	r1, [r3, #8]
 108:	3101      	adds	r1, #1
 10a:	6099      	str	r1, [r3, #8]
 10c:	6899      	ldr	r1, [r3, #8]
 10e:	3101      	adds	r1, #1
 110:	6099      	str	r1, [r3, #8]
 112:	6899      	ldr	r1, [r3, #8]
 114:	3101      	adds	r1, #1
 116:	6099      	str	r1, [r3, #8]
 118:	6899      	ldr	r1, [r3, #8]
 11a:	3101      	adds	r1, #1
 11c:	6099      	str	r1, [r3, #8]
 11e:	6899      	ldr	r1, [r3, #8]
 120:	3101      	adds	r1, #1
 122:	6099      	str	r1, [r3, #8]
 124:	6899      	ldr	r1, [r3, #8]
 126:	3101      	adds	r1, #1
 128:	6099      	str	r1, [r3, #8]
 12a:	6899      	ldr	r1, [r3, #8]
 12c:	3101      	adds	r1, #1
 12e:	6099      	str	r1, [r3, #8]
 130:	6899      	ldr	r1, [r3, #8]
 132:	3101      	adds	r1, #1
 134:	6099      	str	r1, [r3, #8]
 136:	6899      	ldr	r1, [r3, #8]
 138:	3101      	adds	r1, #1
 13a:	6099      	str	r1, [r3, #8]
 13c:	6899      	ldr	r1, [r3, #8]
 13e:	3101      	adds	r1, #1
 140:	6099      	str	r1, [r3, #8]
 142:	6899      	ldr	r1, [r3, #8]
 144:	3101      	adds	r1, #1
 146:	6099      	str	r1, [r3, #8]
 148:	6899      	ldr	r1, [r3, #8]
 14a:	3101      	adds	r1, #1
 14c:	6099      	str	r1, [r3, #8]
 14e:	6899      	ldr	r1, [r3, #8]
 150:	3101      	adds	r1, #1
 152:	6099      	str	r1, [r3, #8]
 154:	6899      	ldr	r1, [r3, #8]
 156:	3101      	adds	r1, #1
 158:	6099      	str	r1, [r3, #8]
 15a:	6899      	ldr	r1, [r3, #8]
 15c:	3101      	adds	r1, #1
 15e:	6099      	str	r1, [r3, #8]
 160:	6899      	ldr	r1, [r3, #8]
 162:	3101      	adds	r1, #1
 164:	6099      	str	r1, [r3, #8]
 166:	6899      	ldr	r1, [r3, #8]
 168:	3101      	adds	r1, #1
 16a:	6099      	str	r1, [r3, #8]
 16c:	6899      	ldr	r1, [r3, #8]
 16e:	3101      	adds	r1, #1
 170:	6099      	str	r1, [r3, #8]
 172:	6899      	ldr	r1, [r3, #8]
 174:	3101      	adds	r1, #1
 176:	6099      	str	r1, [r3, #8]
 178:	6899      	ldr	r1, [r3, #8]
 17a:	3101      	adds	r1, #1
 17c:	6099      	str	r1, [r3, #8]
 17e:	6899      	ldr	r1, [r3, #8]
 180:	3101      	adds	r1, #1
 182:	6099      	str	r1, [r3, #8]
 184:	6899      	ldr	r1, [r3, #8]
 186:	3101      	adds	r1, #1
 188:	6099      	str	r1, [r3, #8]
 18a:	6899      	ldr	r1, [r3, #8]
 18c:	3101      	adds	r1, #1
 18e:	6099      	str	r1, [r3, #8]
 190:	6899      	ldr	r1, [r3, #8]
 192:	3101      	adds	r1, #1
 194:	6099      	str	r1, [r3, #8]
 196:	6899      	ldr	r1, [r3, #8]
 198:	3101      	adds	r1, #1
 19a:	6099      	str	r1, [r3, #8]
 19c:	6899      	ldr	r1, [r3, #8]
 19e:	3101      	adds	r1, #1
 1a0:	6099      	str	r1, [r3, #8]
 1a2:	6899      	ldr	r1, [r3, #8]
 1a4:	3101      	adds	r1, #1
 1a6:	6099      	str	r1, [r3, #8]
 1a8:	6899      	ldr	r1, [r3, #8]
 1aa:	3101      	adds	r1, #1
 1ac:	6099      	str	r1, [r3, #8]
 1ae:	6899      	ldr	r1, [r3, #8]
 1b0:	3101      	adds	r1, #1
 1b2:	6099      	str	r1, [r3, #8]
 1b4:	6899      	ldr	r1, [r3, #8]
 1b6:	3101      	adds	r1, #1
 1b8:	6099      	str	r1, [r3, #8]
 1ba:	6899      	ldr	r1, [r3, #8]
 1bc:	3101      	adds	r1, #1
 1be:	6099      	str	r1, [r3, #8]
 1c0:	6899      	ldr	r1, [r3, #8]
 1c2:	3101      	adds	r1, #1
 1c4:	6099      	str	r1, [r3, #8]
 1c6:	6899      	ldr	r1, [r3, #8]
 1c8:	3101      	adds	r1, #1
 1ca:	6099      	str	r1, [r3, #8]
 1cc:	6899      	ldr	r1, [r3, #8]
 1ce:	3101      	adds	r1, #1
 1d0:	6099      	str	r1, [r3, #8]
 1d2:	6899      	ldr	r1, [r3, #8]
 1d4:	3101      	adds	r1, #1
 1d6:	6099      	str	r1, [r3, #8]
 1d8:	6899      	ldr	r1, [r3, #8]
 1da:	3101      	adds	r1, #1
 1dc:	6099      	str	r1, [r3, #8]
 1de:	6899      	ldr	r1, [r3, #8]
 1e0:	3101      	adds	r1, #1
 1e2:	6099      	str	r1, [r3, #8]
 1e4:	6899      	ldr	r1, [r3, #8]
 1e6:	3101      	adds	r1, #1
 1e8:	6099      	str	r1, [r3, #8]
 1ea:	6899      	ldr	r1, [r3, #8]
 1ec:	3101      	adds	r1, #1
 1ee:	6099      	str	r1, [r3, #8]
 1f0:	6899      	ldr	r1, [r3, #8]
 1f2:	3101      	adds	r1, #1
 1f4:	6099      	str	r1, [r3, #8]
 1f6:	6899      	ldr	r1, [r3, #8]
 1f8:	3101      	adds	r1, #1
 1fa:	6099      	str	r1, [r3, #8]
 1fc:	6899      	ldr	r1, [r3, #8]
 1fe:	3101      	adds	r1, #1
 200:	6099      	str	r1, [r3, #8]
 202:	6899      	ldr	r1, [r3, #8]
 204:	3101      	adds	r1, #1
 206:	6099      	str	r1, [r3, #8]
 208:	6899      	ldr	r1, [r3, #8]
 20a:	3101      	adds	r1, #1
 20c:	6099      	str	r1, [r3, #8]
 20e:	6899      	ldr	r1, [r3, #8]
 210:	3101      	adds	r1, #1
 212:	6099      	str	r1, [r3, #8]
 214:	6899      	ldr	r1, [r3, #8]
 216:	3101      	adds	r1, #1
 218:	6099      	str	r1, [r3, #8]
 21a:	6899      	ldr	r1, [r3, #8]
 21c:	3101      	adds	r1, #1
 21e:	6099      	str	r1, [r3, #8]
 220:	6899      	ldr	r1, [r3, #8]
 222:	3101      	adds	r1, #1
 224:	6099      	str	r1, [r3, #8]
 226:	6899      	ldr	r1, [r3, #8]
 228:	3101      	adds	r1, #1
 22a:	6099      	str	r1, [r3, #8]
 22c:	6899      	ldr	r1, [r3, #8]
 22e:	3101      	adds	r1, #1
 230:	6099      	str	r1, [r3, #8]
 232:	6899      	ldr	r1, [r3, #8]
 234:	3101      	adds	r1, #1
 236:	6099      	str	r1, [r3, #8]
 238:	6899      	ldr	r1, [r3, #8]
 23a:	3101      	adds	r1, #1
 23c:	6099      	str	r1, [r3, #8]
 23e:	6899      	ldr	r1, [r3, #8]
 240:	3101      	adds	r1, #1
 242:	6099      	str	r1, [r3, #8]
 244:	6899      	ldr	r1, [r3, #8]
 246:	3101      	adds	r1, #1
 248:	6099      	str	r1, [r3, #8]
 24a:	6899      	ldr	r1, [r3, #8]
 24c:	3101      	adds	r1, #1
 24e:	6099      	str	r1, [r3, #8]
 250:	6899      	ldr	r1, [r3, #8]
 252:	3101      	adds	r1, #1
 254:	6099      	str	r1, [r3, #8]
 256:	6899      	ldr	r1, [r3, #8]
 258:	3101      	adds	r1, #1
 25a:	6099      	str	r1, [r3, #8]
 25c:	6899      	ldr	r1, [r3, #8]
 25e:	3101      	adds	r1, #1
 260:	6099      	str	r1, [r3, #8]
 262:	6899      	ldr	r1, [r3, #8]
 264:	3101      	adds	r1, #1
 266:	6099      	str	r1, [r3, #8]
 268:	6899      	ldr	r1, [r3, #8]
 26a:	3101      	adds	r1, #1
 26c:	6099      	str	r1, [r3, #8]
 26e:	6899      	ldr	r1, [r3, #8]
 270:	3101      	adds	r1, #1
 272:	6099      	str	r1, [r3, #8]
 274:	e006      	b.n	284 <.LCFI3+0x282>
 276:	bf00      	nop
	...
 284:	6899      	ldr	r1, [r3, #8]
 286:	3101      	adds	r1, #1
 288:	6099      	str	r1, [r3, #8]
 28a:	6899      	ldr	r1, [r3, #8]
 28c:	3101      	adds	r1, #1
 28e:	6099      	str	r1, [r3, #8]
 290:	6899      	ldr	r1, [r3, #8]
 292:	3101      	adds	r1, #1
 294:	6099      	str	r1, [r3, #8]
 296:	6899      	ldr	r1, [r3, #8]
 298:	3101      	adds	r1, #1
 29a:	6099      	str	r1, [r3, #8]
 29c:	6899      	ldr	r1, [r3, #8]
 29e:	3101      	adds	r1, #1
 2a0:	6099      	str	r1, [r3, #8]
 2a2:	6899      	ldr	r1, [r3, #8]
 2a4:	3101      	adds	r1, #1
 2a6:	6099      	str	r1, [r3, #8]
 2a8:	6899      	ldr	r1, [r3, #8]
 2aa:	3101      	adds	r1, #1
 2ac:	6099      	str	r1, [r3, #8]
 2ae:	6899      	ldr	r1, [r3, #8]
 2b0:	3101      	adds	r1, #1
 2b2:	6099      	str	r1, [r3, #8]
 2b4:	6899      	ldr	r1, [r3, #8]
 2b6:	3101      	adds	r1, #1
 2b8:	6099      	str	r1, [r3, #8]
 2ba:	6899      	ldr	r1, [r3, #8]
 2bc:	3101      	adds	r1, #1
 2be:	6099      	str	r1, [r3, #8]
 2c0:	6899      	ldr	r1, [r3, #8]
 2c2:	3101      	adds	r1, #1
 2c4:	6099      	str	r1, [r3, #8]
 2c6:	6899      	ldr	r1, [r3, #8]
 2c8:	3101      	adds	r1, #1
 2ca:	6099      	str	r1, [r3, #8]
 2cc:	6899      	ldr	r1, [r3, #8]
 2ce:	3101      	adds	r1, #1
 2d0:	6099      	str	r1, [r3, #8]
 2d2:	6899      	ldr	r1, [r3, #8]
 2d4:	3101      	adds	r1, #1
 2d6:	6099      	str	r1, [r3, #8]
 2d8:	6899      	ldr	r1, [r3, #8]
 2da:	3101      	adds	r1, #1
 2dc:	6099      	str	r1, [r3, #8]
 2de:	6899      	ldr	r1, [r3, #8]
 2e0:	3101      	adds	r1, #1
 2e2:	6099      	str	r1, [r3, #8]
 2e4:	6899      	ldr	r1, [r3, #8]
 2e6:	3101      	adds	r1, #1
 2e8:	6099      	str	r1, [r3, #8]
 2ea:	6899      	ldr	r1, [r3, #8]
 2ec:	3101      	adds	r1, #1
 2ee:	6099      	str	r1, [r3, #8]
 2f0:	6899      	ldr	r1, [r3, #8]
 2f2:	3101      	adds	r1, #1
 2f4:	6099      	str	r1, [r3, #8]
 2f6:	6899      	ldr	r1, [r3, #8]
 2f8:	3101      	adds	r1, #1
 2fa:	6099      	str	r1, [r3, #8]
 2fc:	6899      	ldr	r1, [r3, #8]
 2fe:	3101      	adds	r1, #1
 300:	6099      	str	r1, [r3, #8]
 302:	6899      	ldr	r1, [r3, #8]
 304:	3101      	adds	r1, #1
 306:	6099      	str	r1, [r3, #8]
 308:	6899      	ldr	r1, [r3, #8]
 30a:	3101      	adds	r1, #1
 30c:	6099      	str	r1, [r3, #8]
 30e:	6899      	ldr	r1, [r3, #8]
 310:	3101      	adds	r1, #1
 312:	6099      	str	r1, [r3, #8]
 314:	6899      	ldr	r1, [r3, #8]
 316:	3101      	adds	r1, #1
 318:	6099      	str	r1, [r3, #8]
 31a:	6899      	ldr	r1, [r3, #8]
 31c:	3101      	adds	r1, #1
 31e:	6099      	str	r1, [r3, #8]
 320:	6899      	ldr	r1, [r3, #8]
 322:	3101      	adds	r1, #1
 324:	6099      	str	r1, [r3, #8]
 326:	6899      	ldr	r1, [r3, #8]
 328:	3101      	adds	r1, #1
 32a:	6099      	str	r1, [r3, #8]
 32c:	6899      	ldr	r1, [r3, #8]
 32e:	3101      	adds	r1, #1
 330:	6099      	str	r1, [r3, #8]
 332:	6899      	ldr	r1, [r3, #8]
 334:	3101      	adds	r1, #1
 336:	6099      	str	r1, [r3, #8]
 338:	6899      	ldr	r1, [r3, #8]
 33a:	3101      	adds	r1, #1
 33c:	6099      	str	r1, [r3, #8]
 33e:	6899      	ldr	r1, [r3, #8]
 340:	3101      	adds	r1, #1
 342:	6099      	str	r1, [r3, #8]
 344:	6899      	ldr	r1, [r3, #8]
 346:	3101      	adds	r1, #1
 348:	6099      	str	r1, [r3, #8]
 34a:	6899      	ldr	r1, [r3, #8]
 34c:	3101      	adds	r1, #1
 34e:	6099      	str	r1, [r3, #8]
 350:	6899      	ldr	r1, [r3, #8]
 352:	3101      	adds	r1, #1
 354:	6099      	str	r1, [r3, #8]
 356:	6899      	ldr	r1, [r3, #8]
 358:	3101      	adds	r1, #1
 35a:	6099      	str	r1, [r3, #8]
 35c:	6899      	ldr	r1, [r3, #8]
 35e:	3101      	adds	r1, #1
 360:	6099      	str	r1, [r3, #8]
 362:	6899      	ldr	r1, [r3, #8]
 364:	3101      	adds	r1, #1
 366:	6099      	str	r1, [r3, #8]
 368:	6899      	ldr	r1, [r3, #8]
 36a:	3101      	adds	r1, #1
 36c:	6099      	str	r1, [r3, #8]
 36e:	6899      	ldr	r1, [r3, #8]
 370:	3101      	adds	r1, #1
 372:	6099      	str	r1, [r3, #8]
 374:	f241 0108 	movw	r1, #4104	; 0x1008
 378:	5a53      	ldrh	r3, [r2, r1]
 37a:	f043 0301 	orr.w	r3, r3, #1
 37e:	5253      	strh	r3, [r2, r1]
 380:	f241 6328 	movw	r3, #5672	; 0x1628
 384:	5ad1      	ldrh	r1, [r2, r3]
 386:	f360 11c7 	bfi	r1, r0, #7, #1
 38a:	52d1      	strh	r1, [r2, r3]
 38c:	5ad1      	ldrh	r1, [r2, r3]
 38e:	f360 1186 	bfi	r1, r0, #6, #1
 392:	52d1      	strh	r1, [r2, r3]
 394:	5ad1      	ldrh	r1, [r2, r3]
 396:	f360 1145 	bfi	r1, r0, #5, #1
 39a:	52d1      	strh	r1, [r2, r3]
 39c:	5ad1      	ldrh	r1, [r2, r3]
 39e:	f360 1104 	bfi	r1, r0, #4, #1
 3a2:	52d1      	strh	r1, [r2, r3]
 3a4:	5ad1      	ldrh	r1, [r2, r3]
 3a6:	f360 01c3 	bfi	r1, r0, #3, #1
 3aa:	52d1      	strh	r1, [r2, r3]
 3ac:	5ad1      	ldrh	r1, [r2, r3]
 3ae:	f360 0182 	bfi	r1, r0, #2, #1
 3b2:	52d1      	strh	r1, [r2, r3]
 3b4:	5ad1      	ldrh	r1, [r2, r3]
 3b6:	f360 0141 	bfi	r1, r0, #1, #1
 3ba:	52d1      	strh	r1, [r2, r3]
 3bc:	5ad1      	ldrh	r1, [r2, r3]
 3be:	f360 0100 	bfi	r1, r0, #0, #1
 3c2:	52d1      	strh	r1, [r2, r3]
 3c4:	5ad1      	ldrh	r1, [r2, r3]
 3c6:	f041 0110 	orr.w	r1, r1, #16
 3ca:	52d1      	strh	r1, [r2, r3]
 3cc:	5ad1      	ldrh	r1, [r2, r3]
 3ce:	f041 0102 	orr.w	r1, r1, #2
 3d2:	52d1      	strh	r1, [r2, r3]
 3d4:	712c      	strb	r4, [r5, #4]
 3d6:	bd70      	pop	{r4, r5, r6, pc}
 3d8:	f014 0210 	ands.w	r2, r4, #16
 3dc:	d12b      	bne.n	436 <.LCFI3+0x434>
 3de:	4b2e      	ldr	r3, [pc, #184]	; (498 <.LCFI3+0x496>)
 3e0:	6819      	ldr	r1, [r3, #0]
 3e2:	f362 11c7 	bfi	r1, r2, #7, #1
 3e6:	6019      	str	r1, [r3, #0]
 3e8:	6819      	ldr	r1, [r3, #0]
 3ea:	f362 1186 	bfi	r1, r2, #6, #1
 3ee:	6019      	str	r1, [r3, #0]
 3f0:	6819      	ldr	r1, [r3, #0]
 3f2:	f362 1145 	bfi	r1, r2, #5, #1
 3f6:	6019      	str	r1, [r3, #0]
 3f8:	6819      	ldr	r1, [r3, #0]
 3fa:	f362 1104 	bfi	r1, r2, #4, #1
 3fe:	6019      	str	r1, [r3, #0]
 400:	6819      	ldr	r1, [r3, #0]
 402:	f362 01c3 	bfi	r1, r2, #3, #1
 406:	6019      	str	r1, [r3, #0]
 408:	6819      	ldr	r1, [r3, #0]
 40a:	f362 0182 	bfi	r1, r2, #2, #1
 40e:	6019      	str	r1, [r3, #0]
 410:	6819      	ldr	r1, [r3, #0]
 412:	f362 0141 	bfi	r1, r2, #1, #1
 416:	6019      	str	r1, [r3, #0]
 418:	6819      	ldr	r1, [r3, #0]
 41a:	f362 0100 	bfi	r1, r2, #0, #1
 41e:	6019      	str	r1, [r3, #0]
 420:	681a      	ldr	r2, [r3, #0]
 422:	f042 0210 	orr.w	r2, r2, #16
 426:	601a      	str	r2, [r3, #0]
 428:	681a      	ldr	r2, [r3, #0]
 42a:	f042 0202 	orr.w	r2, r2, #2
 42e:	601a      	str	r2, [r3, #0]
 430:	f044 0410 	orr.w	r4, r4, #16
 434:	e7ce      	b.n	3d4 <.LCFI3+0x3d2>
 436:	f014 0120 	ands.w	r1, r4, #32
 43a:	d1cc      	bne.n	3d6 <.LCFI3+0x3d4>
 43c:	4a17      	ldr	r2, [pc, #92]	; (49c <.LCFI3+0x49a>)
 43e:	f241 6328 	movw	r3, #5672	; 0x1628
 442:	f044 0420 	orr.w	r4, r4, #32
 446:	5ad0      	ldrh	r0, [r2, r3]
 448:	f361 10c7 	bfi	r0, r1, #7, #1
 44c:	52d0      	strh	r0, [r2, r3]
 44e:	5ad0      	ldrh	r0, [r2, r3]
 450:	f361 1086 	bfi	r0, r1, #6, #1
 454:	52d0      	strh	r0, [r2, r3]
 456:	5ad0      	ldrh	r0, [r2, r3]
 458:	f361 1045 	bfi	r0, r1, #5, #1
 45c:	52d0      	strh	r0, [r2, r3]
 45e:	5ad0      	ldrh	r0, [r2, r3]
 460:	f361 1004 	bfi	r0, r1, #4, #1
 464:	52d0      	strh	r0, [r2, r3]
 466:	5ad0      	ldrh	r0, [r2, r3]
 468:	f361 00c3 	bfi	r0, r1, #3, #1
 46c:	52d0      	strh	r0, [r2, r3]
 46e:	5ad0      	ldrh	r0, [r2, r3]
 470:	f361 0082 	bfi	r0, r1, #2, #1
 474:	52d0      	strh	r0, [r2, r3]
 476:	5ad0      	ldrh	r0, [r2, r3]
 478:	f361 0041 	bfi	r0, r1, #1, #1
 47c:	52d0      	strh	r0, [r2, r3]
 47e:	5ad0      	ldrh	r0, [r2, r3]
 480:	f361 0000 	bfi	r0, r1, #0, #1
 484:	52d0      	strh	r0, [r2, r3]
 486:	5ad1      	ldrh	r1, [r2, r3]
 488:	f041 0110 	orr.w	r1, r1, #16
 48c:	52d1      	strh	r1, [r2, r3]
 48e:	5ad1      	ldrh	r1, [r2, r3]
 490:	f041 0102 	orr.w	r1, r1, #2
 494:	52d1      	strh	r1, [r2, r3]
 496:	e79d      	b.n	3d4 <.LCFI3+0x3d2>
 498:	00001620 	.word	0x00001620
 49c:	00000000 	.word	0x00000000

Disassembly of section .text._LE_DirectTestMode_CTC_EXT_INT0Proc__PCSG:

00000000 <_LE_DirectTestMode_CTC_EXT_INT0Proc__PCSG>:
   0:	b508      	push	{r3, lr}

00000002 <.LCFI4>:
   2:	f7ff fffe 	bl	0 <bt_hal_read_clkb>

00000006 <.LVL57>:
   6:	4b09      	ldr	r3, [pc, #36]	; (2c <.LCFI8+0x2>)
   8:	791b      	ldrb	r3, [r3, #4]
   a:	075a      	lsls	r2, r3, #29
   c:	d40d      	bmi.n	2a <.LCFI8>
   e:	07c1      	lsls	r1, r0, #31
  10:	d40b      	bmi.n	2a <.LCFI8>
  12:	07da      	lsls	r2, r3, #31
  14:	d503      	bpl.n	1e <.LCFI6>
  16:	e8bd 4008 	ldmia.w	sp!, {r3, lr}

0000001a <.LCFI5>:
  1a:	f7ff bffe 	b.w	0 <_LE_DirectTestMode_CTC_EXT_INT0Proc__PCSG>

0000001e <.LCFI6>:
  1e:	079b      	lsls	r3, r3, #30
  20:	d503      	bpl.n	2a <.LCFI8>
  22:	e8bd 4008 	ldmia.w	sp!, {r3, lr}

00000026 <.LCFI7>:
  26:	f7ff bffe 	b.w	0 <_LE_DirectTestMode_CTC_EXT_INT0Proc__PCSG>

0000002a <.LCFI8>:
  2a:	bd08      	pop	{r3, pc}
  2c:	00000000 	.word	0x00000000

Disassembly of section .text._LE_DirectTestMode_vLE_PL_RCV_OK_Proc:

00000000 <_LE_DirectTestMode_vLE_PL_RCV_OK_Proc>:
   0:	4b0a      	ldr	r3, [pc, #40]	; (2c <.LVL60+0x4>)
   2:	791a      	ldrb	r2, [r3, #4]
   4:	0750      	lsls	r0, r2, #29
   6:	d50f      	bpl.n	28 <.LVL60>
   8:	88d9      	ldrh	r1, [r3, #6]
   a:	3101      	adds	r1, #1
   c:	80d9      	strh	r1, [r3, #6]
   e:	0711      	lsls	r1, r2, #28
  10:	bf4c      	ite	mi
  12:	f022 0210 	bicmi.w	r2, r2, #16
  16:	f022 0220 	bicpl.w	r2, r2, #32
  1a:	711a      	strb	r2, [r3, #4]
  1c:	791a      	ldrb	r2, [r3, #4]
  1e:	f082 0208 	eor.w	r2, r2, #8
  22:	711a      	strb	r2, [r3, #4]
  24:	f7ff bffe 	b.w	0 <_LE_DirectTestMode_vLE_PL_RCV_OK_Proc>

00000028 <.LVL60>:
  28:	4770      	bx	lr
  2a:	bf00      	nop
  2c:	00000000 	.word	0x00000000

Disassembly of section .text._LE_DirectTestMode_CTC_EXT_INT0Proc__PL_OK:

00000000 <_LE_DirectTestMode_CTC_EXT_INT0Proc__PL_OK>:
   0:	4a05      	ldr	r2, [pc, #20]	; (18 <.LVL64+0x2>)
   2:	7913      	ldrb	r3, [r2, #4]
   4:	0758      	lsls	r0, r3, #29

00000006 <.LVL62>:
   6:	d406      	bmi.n	16 <.LVL64>
   8:	0799      	lsls	r1, r3, #30

0000000a <.LVL63>:
   a:	d504      	bpl.n	16 <.LVL64>
   c:	f023 0302 	bic.w	r3, r3, #2
  10:	7113      	strb	r3, [r2, #4]
  12:	f7ff bffe 	b.w	0 <_LE_DirectTestMode_CTC_EXT_INT0Proc__PL_OK>

00000016 <.LVL64>:
  16:	4770      	bx	lr
  18:	00000000 	.word	0x00000000

Disassembly of section .text._LE_DirectTestMode_vLE_PL_RCV_ERR_Proc:

00000000 <_LE_DirectTestMode_vLE_PL_RCV_ERR_Proc>:
   0:	4a08      	ldr	r2, [pc, #32]	; (24 <.LVL65+0x2>)
   2:	7913      	ldrb	r3, [r2, #4]
   4:	0758      	lsls	r0, r3, #29
   6:	d50c      	bpl.n	22 <.LVL65>
   8:	0719      	lsls	r1, r3, #28
   a:	bf4c      	ite	mi
   c:	f023 0310 	bicmi.w	r3, r3, #16
  10:	f023 0320 	bicpl.w	r3, r3, #32
  14:	7113      	strb	r3, [r2, #4]
  16:	7913      	ldrb	r3, [r2, #4]
  18:	f083 0308 	eor.w	r3, r3, #8
  1c:	7113      	strb	r3, [r2, #4]
  1e:	f7ff bffe 	b.w	0 <_LE_DirectTestMode_vLE_PL_RCV_ERR_Proc>

00000022 <.LVL65>:
  22:	4770      	bx	lr
  24:	00000000 	.word	0x00000000

Disassembly of section .text._LE_DirectTestMode_CTC_EXT_INT0Proc__PL_ERR:

00000000 <_LE_DirectTestMode_CTC_EXT_INT0Proc__PL_ERR>:
   0:	4a05      	ldr	r2, [pc, #20]	; (18 <.LVL69+0x2>)
   2:	7913      	ldrb	r3, [r2, #4]
   4:	0758      	lsls	r0, r3, #29

00000006 <.LVL67>:
   6:	d406      	bmi.n	16 <.LVL69>
   8:	0799      	lsls	r1, r3, #30

0000000a <.LVL68>:
   a:	d504      	bpl.n	16 <.LVL69>
   c:	f023 0302 	bic.w	r3, r3, #2
  10:	7113      	strb	r3, [r2, #4]
  12:	f7ff bffe 	b.w	0 <_LE_DirectTestMode_CTC_EXT_INT0Proc__PL_ERR>

00000016 <.LVL69>:
  16:	4770      	bx	lr
  18:	00000000 	.word	0x00000000

Disassembly of section .text._LE_DirectTestMode_InitIsr:

00000000 <_LE_DirectTestMode_InitIsr>:
   0:	4b0f      	ldr	r3, [pc, #60]	; (40 <_LE_DirectTestMode_InitIsr+0x40>)
   2:	4a10      	ldr	r2, [pc, #64]	; (44 <_LE_DirectTestMode_InitIsr+0x44>)
   4:	619a      	str	r2, [r3, #24]
   6:	4a10      	ldr	r2, [pc, #64]	; (48 <_LE_DirectTestMode_InitIsr+0x48>)
   8:	631a      	str	r2, [r3, #48]	; 0x30
   a:	4a10      	ldr	r2, [pc, #64]	; (4c <_LE_DirectTestMode_InitIsr+0x4c>)
   c:	635a      	str	r2, [r3, #52]	; 0x34
   e:	4b10      	ldr	r3, [pc, #64]	; (50 <_LE_DirectTestMode_InitIsr+0x50>)
  10:	4a10      	ldr	r2, [pc, #64]	; (54 <_LE_DirectTestMode_InitIsr+0x54>)
  12:	611a      	str	r2, [r3, #16]
  14:	4b10      	ldr	r3, [pc, #64]	; (58 <_LE_DirectTestMode_InitIsr+0x58>)
  16:	f503 51d9 	add.w	r1, r3, #6944	; 0x1b20
  1a:	f64f 72ff 	movw	r2, #65535	; 0xffff
  1e:	8808      	ldrh	r0, [r1, #0]
  20:	f362 000f 	bfi	r0, r2, #0, #16
  24:	8008      	strh	r0, [r1, #0]
  26:	f641 3124 	movw	r1, #6948	; 0x1b24
  2a:	5a58      	ldrh	r0, [r3, r1]
  2c:	f362 000f 	bfi	r0, r2, #0, #16
  30:	5258      	strh	r0, [r3, r1]
  32:	f641 3128 	movw	r1, #6952	; 0x1b28
  36:	5a58      	ldrh	r0, [r3, r1]
  38:	f362 000f 	bfi	r0, r2, #0, #16
  3c:	5258      	strh	r0, [r3, r1]
  3e:	4770      	bx	lr
	...

Disassembly of section .text.BLE_DTM_Init:

00000000 <BLE_DTM_Init>:
   0:	4770      	bx	lr

Disassembly of section .text.BLE_DTM_ReceiverTestCmd:

00000000 <BLE_DTM_ReceiverTestCmd>:
   0:	2827      	cmp	r0, #39	; 0x27
   2:	b538      	push	{r3, r4, r5, lr}

00000004 <.LCFI9>:
   4:	4605      	mov	r5, r0
   6:	d809      	bhi.n	1c <.LVL73>
   8:	f7ff fffe 	bl	0 <BLE_DTM_ReceiverTestCmd>

0000000c <.LVL71>:
   c:	4b04      	ldr	r3, [pc, #16]	; (20 <.LVL74+0x2>)
   e:	2400      	movs	r4, #0
  10:	721c      	strb	r4, [r3, #8]
  12:	701d      	strb	r5, [r3, #0]
  14:	f7ff fffe 	bl	0 <BLE_DTM_ReceiverTestCmd>

00000018 <.LVL72>:
  18:	4620      	mov	r0, r4
  1a:	bd38      	pop	{r3, r4, r5, pc}

0000001c <.LVL73>:
  1c:	2012      	movs	r0, #18

0000001e <.LVL74>:
  1e:	bd38      	pop	{r3, r4, r5, pc}
  20:	00000000 	.word	0x00000000

Disassembly of section .text.BLE_DTM_TransmitterTestCmd:

00000000 <BLE_DTM_TransmitterTestCmd>:
   0:	2827      	cmp	r0, #39	; 0x27
   2:	b5f8      	push	{r3, r4, r5, r6, r7, lr}

00000004 <.LCFI10>:
   4:	4606      	mov	r6, r0
   6:	460f      	mov	r7, r1
   8:	4615      	mov	r5, r2
   a:	d80d      	bhi.n	28 <.LVL78>
   c:	2a07      	cmp	r2, #7
   e:	d80b      	bhi.n	28 <.LVL78>
  10:	f7ff fffe 	bl	0 <BLE_DTM_TransmitterTestCmd>

00000014 <.LVL76>:
  14:	4b05      	ldr	r3, [pc, #20]	; (2c <.LVL79+0x2>)
  16:	2400      	movs	r4, #0
  18:	721c      	strb	r4, [r3, #8]
  1a:	705e      	strb	r6, [r3, #1]
  1c:	709f      	strb	r7, [r3, #2]
  1e:	70dd      	strb	r5, [r3, #3]
  20:	f7ff fffe 	bl	0 <BLE_DTM_TransmitterTestCmd>

00000024 <.LVL77>:
  24:	4620      	mov	r0, r4
  26:	bdf8      	pop	{r3, r4, r5, r6, r7, pc}

00000028 <.LVL78>:
  28:	2012      	movs	r0, #18

0000002a <.LVL79>:
  2a:	bdf8      	pop	{r3, r4, r5, r6, r7, pc}
  2c:	00000000 	.word	0x00000000

Disassembly of section .text.BLE_DTM_TransmitterTestCmdV4:

00000000 <BLE_DTM_TransmitterTestCmdV4>:
   0:	b538      	push	{r3, r4, r5, lr}

00000002 <.LCFI11>:
   2:	7803      	ldrb	r3, [r0, #0]
   4:	2b27      	cmp	r3, #39	; 0x27
   6:	4605      	mov	r5, r0
   8:	d811      	bhi.n	2e <.LVL83>
   a:	7883      	ldrb	r3, [r0, #2]
   c:	2b07      	cmp	r3, #7
   e:	d80e      	bhi.n	2e <.LVL83>
  10:	f7ff fffe 	bl	0 <BLE_DTM_TransmitterTestCmdV4>

00000014 <.LVL81>:
  14:	4b07      	ldr	r3, [pc, #28]	; (34 <.LVL85+0x2>)
  16:	2400      	movs	r4, #0
  18:	721c      	strb	r4, [r3, #8]
  1a:	782a      	ldrb	r2, [r5, #0]
  1c:	705a      	strb	r2, [r3, #1]
  1e:	786a      	ldrb	r2, [r5, #1]
  20:	709a      	strb	r2, [r3, #2]
  22:	78aa      	ldrb	r2, [r5, #2]
  24:	70da      	strb	r2, [r3, #3]
  26:	f7ff fffe 	bl	0 <BLE_DTM_TransmitterTestCmdV4>

0000002a <.LVL82>:
  2a:	4620      	mov	r0, r4
  2c:	bd38      	pop	{r3, r4, r5, pc}

0000002e <.LVL83>:
  2e:	2012      	movs	r0, #18

00000030 <.LVL84>:
  30:	bd38      	pop	{r3, r4, r5, pc}

00000032 <.LVL85>:
  32:	bf00      	nop
  34:	00000000 	.word	0x00000000

Disassembly of section .text.BLE_DTM_TestEndCmd:

00000000 <BLE_DTM_TestEndCmd>:
   0:	b538      	push	{r3, r4, r5, lr}

00000002 <.LBB50>:
   2:	4c9a      	ldr	r4, [pc, #616]	; (26c <.LBE53+0x25a>)

00000004 <.LBE50>:
   4:	4605      	mov	r5, r0

00000006 <.LBB53>:
   6:	6820      	ldr	r0, [r4, #0]

00000008 <.LVL87>:
   8:	b118      	cbz	r0, 12 <.LBE53>
   a:	f7ff fffe 	bl	0 <BT_SYS_MemFree>

0000000e <.LVL88>:
   e:	2300      	movs	r3, #0
  10:	6023      	str	r3, [r4, #0]

00000012 <.LBE53>:
  12:	4b97      	ldr	r3, [pc, #604]	; (270 <.LBE53+0x25e>)
  14:	2000      	movs	r0, #0
  16:	88da      	ldrh	r2, [r3, #6]
  18:	802a      	strh	r2, [r5, #0]
  1a:	6018      	str	r0, [r3, #0]
  1c:	6058      	str	r0, [r3, #4]
  1e:	6098      	str	r0, [r3, #8]
  20:	4b94      	ldr	r3, [pc, #592]	; (274 <.LBE53+0x262>)
  22:	f503 52b1 	add.w	r2, r3, #5664	; 0x1620
  26:	6811      	ldr	r1, [r2, #0]
  28:	f360 0100 	bfi	r1, r0, #0, #1
  2c:	6011      	str	r1, [r2, #0]
  2e:	6811      	ldr	r1, [r2, #0]
  30:	f360 0141 	bfi	r1, r0, #1, #1
  34:	6011      	str	r1, [r2, #0]
  36:	6811      	ldr	r1, [r2, #0]
  38:	f360 1104 	bfi	r1, r0, #4, #1
  3c:	6011      	str	r1, [r2, #0]
  3e:	6811      	ldr	r1, [r2, #0]
  40:	f360 1145 	bfi	r1, r0, #5, #1
  44:	6011      	str	r1, [r2, #0]
  46:	6811      	ldr	r1, [r2, #0]
  48:	f360 1186 	bfi	r1, r0, #6, #1
  4c:	6011      	str	r1, [r2, #0]
  4e:	68a1      	ldr	r1, [r4, #8]
  50:	3101      	adds	r1, #1
  52:	60a1      	str	r1, [r4, #8]
  54:	68a1      	ldr	r1, [r4, #8]
  56:	3101      	adds	r1, #1
  58:	60a1      	str	r1, [r4, #8]
  5a:	68a1      	ldr	r1, [r4, #8]
  5c:	3101      	adds	r1, #1
  5e:	60a1      	str	r1, [r4, #8]
  60:	68a1      	ldr	r1, [r4, #8]
  62:	3101      	adds	r1, #1
  64:	60a1      	str	r1, [r4, #8]
  66:	68a1      	ldr	r1, [r4, #8]
  68:	3101      	adds	r1, #1
  6a:	60a1      	str	r1, [r4, #8]
  6c:	68a1      	ldr	r1, [r4, #8]
  6e:	3101      	adds	r1, #1
  70:	60a1      	str	r1, [r4, #8]
  72:	68a1      	ldr	r1, [r4, #8]
  74:	3101      	adds	r1, #1
  76:	60a1      	str	r1, [r4, #8]
  78:	68a1      	ldr	r1, [r4, #8]
  7a:	3101      	adds	r1, #1
  7c:	60a1      	str	r1, [r4, #8]
  7e:	68a1      	ldr	r1, [r4, #8]
  80:	3101      	adds	r1, #1
  82:	60a1      	str	r1, [r4, #8]
  84:	68a1      	ldr	r1, [r4, #8]
  86:	3101      	adds	r1, #1
  88:	60a1      	str	r1, [r4, #8]
  8a:	68a1      	ldr	r1, [r4, #8]
  8c:	3101      	adds	r1, #1
  8e:	60a1      	str	r1, [r4, #8]
  90:	68a1      	ldr	r1, [r4, #8]
  92:	3101      	adds	r1, #1
  94:	60a1      	str	r1, [r4, #8]
  96:	68a1      	ldr	r1, [r4, #8]
  98:	3101      	adds	r1, #1
  9a:	60a1      	str	r1, [r4, #8]
  9c:	68a1      	ldr	r1, [r4, #8]
  9e:	3101      	adds	r1, #1
  a0:	60a1      	str	r1, [r4, #8]
  a2:	68a1      	ldr	r1, [r4, #8]
  a4:	3101      	adds	r1, #1
  a6:	60a1      	str	r1, [r4, #8]
  a8:	68a1      	ldr	r1, [r4, #8]
  aa:	3101      	adds	r1, #1
  ac:	60a1      	str	r1, [r4, #8]
  ae:	68a1      	ldr	r1, [r4, #8]
  b0:	3101      	adds	r1, #1
  b2:	60a1      	str	r1, [r4, #8]
  b4:	68a1      	ldr	r1, [r4, #8]
  b6:	3101      	adds	r1, #1
  b8:	60a1      	str	r1, [r4, #8]
  ba:	68a1      	ldr	r1, [r4, #8]
  bc:	3101      	adds	r1, #1
  be:	60a1      	str	r1, [r4, #8]
  c0:	68a1      	ldr	r1, [r4, #8]
  c2:	3101      	adds	r1, #1
  c4:	60a1      	str	r1, [r4, #8]
  c6:	68a1      	ldr	r1, [r4, #8]
  c8:	3101      	adds	r1, #1
  ca:	60a1      	str	r1, [r4, #8]
  cc:	68a1      	ldr	r1, [r4, #8]
  ce:	3101      	adds	r1, #1
  d0:	60a1      	str	r1, [r4, #8]
  d2:	68a1      	ldr	r1, [r4, #8]
  d4:	3101      	adds	r1, #1
  d6:	60a1      	str	r1, [r4, #8]
  d8:	68a1      	ldr	r1, [r4, #8]
  da:	3101      	adds	r1, #1
  dc:	60a1      	str	r1, [r4, #8]
  de:	68a1      	ldr	r1, [r4, #8]
  e0:	3101      	adds	r1, #1
  e2:	60a1      	str	r1, [r4, #8]
  e4:	68a1      	ldr	r1, [r4, #8]
  e6:	3101      	adds	r1, #1
  e8:	60a1      	str	r1, [r4, #8]
  ea:	68a1      	ldr	r1, [r4, #8]
  ec:	3101      	adds	r1, #1
  ee:	60a1      	str	r1, [r4, #8]
  f0:	68a1      	ldr	r1, [r4, #8]
  f2:	3101      	adds	r1, #1
  f4:	60a1      	str	r1, [r4, #8]
  f6:	68a1      	ldr	r1, [r4, #8]
  f8:	3101      	adds	r1, #1
  fa:	60a1      	str	r1, [r4, #8]
  fc:	68a1      	ldr	r1, [r4, #8]
  fe:	3101      	adds	r1, #1
 100:	60a1      	str	r1, [r4, #8]
 102:	68a1      	ldr	r1, [r4, #8]
 104:	3101      	adds	r1, #1
 106:	60a1      	str	r1, [r4, #8]
 108:	68a1      	ldr	r1, [r4, #8]
 10a:	3101      	adds	r1, #1
 10c:	60a1      	str	r1, [r4, #8]
 10e:	68a1      	ldr	r1, [r4, #8]
 110:	3101      	adds	r1, #1
 112:	60a1      	str	r1, [r4, #8]
 114:	68a1      	ldr	r1, [r4, #8]
 116:	3101      	adds	r1, #1
 118:	60a1      	str	r1, [r4, #8]
 11a:	68a1      	ldr	r1, [r4, #8]
 11c:	3101      	adds	r1, #1
 11e:	60a1      	str	r1, [r4, #8]
 120:	68a1      	ldr	r1, [r4, #8]
 122:	3101      	adds	r1, #1
 124:	60a1      	str	r1, [r4, #8]
 126:	68a1      	ldr	r1, [r4, #8]
 128:	3101      	adds	r1, #1
 12a:	60a1      	str	r1, [r4, #8]
 12c:	68a1      	ldr	r1, [r4, #8]
 12e:	3101      	adds	r1, #1
 130:	60a1      	str	r1, [r4, #8]
 132:	68a1      	ldr	r1, [r4, #8]
 134:	3101      	adds	r1, #1
 136:	60a1      	str	r1, [r4, #8]
 138:	68a1      	ldr	r1, [r4, #8]
 13a:	3101      	adds	r1, #1
 13c:	60a1      	str	r1, [r4, #8]
 13e:	68a1      	ldr	r1, [r4, #8]
 140:	3101      	adds	r1, #1
 142:	60a1      	str	r1, [r4, #8]
 144:	68a1      	ldr	r1, [r4, #8]
 146:	3101      	adds	r1, #1
 148:	60a1      	str	r1, [r4, #8]
 14a:	68a1      	ldr	r1, [r4, #8]
 14c:	3101      	adds	r1, #1
 14e:	60a1      	str	r1, [r4, #8]
 150:	68a1      	ldr	r1, [r4, #8]
 152:	3101      	adds	r1, #1
 154:	60a1      	str	r1, [r4, #8]
 156:	68a1      	ldr	r1, [r4, #8]
 158:	3101      	adds	r1, #1
 15a:	60a1      	str	r1, [r4, #8]
 15c:	68a1      	ldr	r1, [r4, #8]
 15e:	3101      	adds	r1, #1
 160:	60a1      	str	r1, [r4, #8]
 162:	68a1      	ldr	r1, [r4, #8]
 164:	3101      	adds	r1, #1
 166:	60a1      	str	r1, [r4, #8]
 168:	68a1      	ldr	r1, [r4, #8]
 16a:	3101      	adds	r1, #1
 16c:	60a1      	str	r1, [r4, #8]
 16e:	68a1      	ldr	r1, [r4, #8]
 170:	3101      	adds	r1, #1
 172:	60a1      	str	r1, [r4, #8]
 174:	68a1      	ldr	r1, [r4, #8]
 176:	3101      	adds	r1, #1
 178:	60a1      	str	r1, [r4, #8]
 17a:	68a1      	ldr	r1, [r4, #8]
 17c:	3101      	adds	r1, #1
 17e:	60a1      	str	r1, [r4, #8]
 180:	68a1      	ldr	r1, [r4, #8]
 182:	3101      	adds	r1, #1
 184:	60a1      	str	r1, [r4, #8]
 186:	68a1      	ldr	r1, [r4, #8]
 188:	3101      	adds	r1, #1
 18a:	60a1      	str	r1, [r4, #8]
 18c:	68a1      	ldr	r1, [r4, #8]
 18e:	3101      	adds	r1, #1
 190:	60a1      	str	r1, [r4, #8]
 192:	68a1      	ldr	r1, [r4, #8]
 194:	3101      	adds	r1, #1
 196:	60a1      	str	r1, [r4, #8]
 198:	68a1      	ldr	r1, [r4, #8]
 19a:	3101      	adds	r1, #1
 19c:	60a1      	str	r1, [r4, #8]
 19e:	68a1      	ldr	r1, [r4, #8]
 1a0:	3101      	adds	r1, #1
 1a2:	60a1      	str	r1, [r4, #8]
 1a4:	68a1      	ldr	r1, [r4, #8]
 1a6:	3101      	adds	r1, #1
 1a8:	60a1      	str	r1, [r4, #8]
 1aa:	68a1      	ldr	r1, [r4, #8]
 1ac:	3101      	adds	r1, #1
 1ae:	60a1      	str	r1, [r4, #8]
 1b0:	68a1      	ldr	r1, [r4, #8]
 1b2:	3101      	adds	r1, #1
 1b4:	60a1      	str	r1, [r4, #8]
 1b6:	68a1      	ldr	r1, [r4, #8]
 1b8:	3101      	adds	r1, #1
 1ba:	60a1      	str	r1, [r4, #8]
 1bc:	68a1      	ldr	r1, [r4, #8]
 1be:	3101      	adds	r1, #1
 1c0:	60a1      	str	r1, [r4, #8]
 1c2:	68a1      	ldr	r1, [r4, #8]
 1c4:	3101      	adds	r1, #1
 1c6:	60a1      	str	r1, [r4, #8]
 1c8:	68a1      	ldr	r1, [r4, #8]
 1ca:	3101      	adds	r1, #1
 1cc:	60a1      	str	r1, [r4, #8]
 1ce:	68a1      	ldr	r1, [r4, #8]
 1d0:	3101      	adds	r1, #1
 1d2:	60a1      	str	r1, [r4, #8]
 1d4:	68a1      	ldr	r1, [r4, #8]
 1d6:	3101      	adds	r1, #1
 1d8:	60a1      	str	r1, [r4, #8]
 1da:	68a1      	ldr	r1, [r4, #8]
 1dc:	3101      	adds	r1, #1
 1de:	60a1      	str	r1, [r4, #8]
 1e0:	68a1      	ldr	r1, [r4, #8]
 1e2:	3101      	adds	r1, #1
 1e4:	60a1      	str	r1, [r4, #8]
 1e6:	68a1      	ldr	r1, [r4, #8]
 1e8:	3101      	adds	r1, #1
 1ea:	60a1      	str	r1, [r4, #8]
 1ec:	68a1      	ldr	r1, [r4, #8]
 1ee:	3101      	adds	r1, #1
 1f0:	60a1      	str	r1, [r4, #8]
 1f2:	68a1      	ldr	r1, [r4, #8]
 1f4:	3101      	adds	r1, #1
 1f6:	60a1      	str	r1, [r4, #8]
 1f8:	68a1      	ldr	r1, [r4, #8]
 1fa:	3101      	adds	r1, #1
 1fc:	60a1      	str	r1, [r4, #8]
 1fe:	68a1      	ldr	r1, [r4, #8]
 200:	3101      	adds	r1, #1
 202:	60a1      	str	r1, [r4, #8]
 204:	68a1      	ldr	r1, [r4, #8]
 206:	3101      	adds	r1, #1
 208:	60a1      	str	r1, [r4, #8]
 20a:	68a1      	ldr	r1, [r4, #8]
 20c:	3101      	adds	r1, #1
 20e:	60a1      	str	r1, [r4, #8]
 210:	68a1      	ldr	r1, [r4, #8]
 212:	3101      	adds	r1, #1
 214:	60a1      	str	r1, [r4, #8]
 216:	68a1      	ldr	r1, [r4, #8]
 218:	3101      	adds	r1, #1
 21a:	60a1      	str	r1, [r4, #8]
 21c:	68a1      	ldr	r1, [r4, #8]
 21e:	3101      	adds	r1, #1
 220:	60a1      	str	r1, [r4, #8]
 222:	68a1      	ldr	r1, [r4, #8]
 224:	3101      	adds	r1, #1
 226:	60a1      	str	r1, [r4, #8]
 228:	68a1      	ldr	r1, [r4, #8]
 22a:	3101      	adds	r1, #1
 22c:	60a1      	str	r1, [r4, #8]
 22e:	68a1      	ldr	r1, [r4, #8]
 230:	3101      	adds	r1, #1
 232:	60a1      	str	r1, [r4, #8]
 234:	68a1      	ldr	r1, [r4, #8]
 236:	3101      	adds	r1, #1
 238:	60a1      	str	r1, [r4, #8]
 23a:	68a1      	ldr	r1, [r4, #8]
 23c:	3101      	adds	r1, #1
 23e:	60a1      	str	r1, [r4, #8]
 240:	68a1      	ldr	r1, [r4, #8]
 242:	3101      	adds	r1, #1
 244:	60a1      	str	r1, [r4, #8]
 246:	68a1      	ldr	r1, [r4, #8]
 248:	3101      	adds	r1, #1
 24a:	60a1      	str	r1, [r4, #8]
 24c:	68a1      	ldr	r1, [r4, #8]
 24e:	3101      	adds	r1, #1
 250:	60a1      	str	r1, [r4, #8]
 252:	68a1      	ldr	r1, [r4, #8]
 254:	3101      	adds	r1, #1
 256:	60a1      	str	r1, [r4, #8]
 258:	68a1      	ldr	r1, [r4, #8]
 25a:	3101      	adds	r1, #1
 25c:	60a1      	str	r1, [r4, #8]
 25e:	68a1      	ldr	r1, [r4, #8]
 260:	3101      	adds	r1, #1
 262:	60a1      	str	r1, [r4, #8]
 264:	68a1      	ldr	r1, [r4, #8]
 266:	3101      	adds	r1, #1
 268:	60a1      	str	r1, [r4, #8]
 26a:	e005      	b.n	278 <.LBE53+0x266>
	...
 278:	68a1      	ldr	r1, [r4, #8]
 27a:	3101      	adds	r1, #1
 27c:	60a1      	str	r1, [r4, #8]
 27e:	68a1      	ldr	r1, [r4, #8]
 280:	3101      	adds	r1, #1
 282:	60a1      	str	r1, [r4, #8]
 284:	68a1      	ldr	r1, [r4, #8]
 286:	3101      	adds	r1, #1
 288:	60a1      	str	r1, [r4, #8]
 28a:	68a1      	ldr	r1, [r4, #8]
 28c:	3101      	adds	r1, #1
 28e:	60a1      	str	r1, [r4, #8]
 290:	68a1      	ldr	r1, [r4, #8]
 292:	3101      	adds	r1, #1
 294:	60a1      	str	r1, [r4, #8]
 296:	68a1      	ldr	r1, [r4, #8]
 298:	3101      	adds	r1, #1
 29a:	60a1      	str	r1, [r4, #8]
 29c:	68a1      	ldr	r1, [r4, #8]
 29e:	3101      	adds	r1, #1
 2a0:	60a1      	str	r1, [r4, #8]
 2a2:	68a1      	ldr	r1, [r4, #8]
 2a4:	3101      	adds	r1, #1
 2a6:	60a1      	str	r1, [r4, #8]
 2a8:	68a1      	ldr	r1, [r4, #8]
 2aa:	3101      	adds	r1, #1
 2ac:	60a1      	str	r1, [r4, #8]
 2ae:	68a1      	ldr	r1, [r4, #8]
 2b0:	3101      	adds	r1, #1
 2b2:	60a1      	str	r1, [r4, #8]
 2b4:	68a1      	ldr	r1, [r4, #8]
 2b6:	3101      	adds	r1, #1
 2b8:	60a1      	str	r1, [r4, #8]
 2ba:	68a1      	ldr	r1, [r4, #8]
 2bc:	3101      	adds	r1, #1
 2be:	60a1      	str	r1, [r4, #8]
 2c0:	68a1      	ldr	r1, [r4, #8]
 2c2:	3101      	adds	r1, #1
 2c4:	60a1      	str	r1, [r4, #8]
 2c6:	68a1      	ldr	r1, [r4, #8]
 2c8:	3101      	adds	r1, #1
 2ca:	60a1      	str	r1, [r4, #8]
 2cc:	68a1      	ldr	r1, [r4, #8]
 2ce:	3101      	adds	r1, #1
 2d0:	60a1      	str	r1, [r4, #8]
 2d2:	68a1      	ldr	r1, [r4, #8]
 2d4:	3101      	adds	r1, #1
 2d6:	60a1      	str	r1, [r4, #8]
 2d8:	68a1      	ldr	r1, [r4, #8]
 2da:	3101      	adds	r1, #1
 2dc:	60a1      	str	r1, [r4, #8]
 2de:	68a1      	ldr	r1, [r4, #8]
 2e0:	3101      	adds	r1, #1
 2e2:	60a1      	str	r1, [r4, #8]
 2e4:	68a1      	ldr	r1, [r4, #8]
 2e6:	3101      	adds	r1, #1
 2e8:	60a1      	str	r1, [r4, #8]
 2ea:	68a1      	ldr	r1, [r4, #8]
 2ec:	3101      	adds	r1, #1
 2ee:	60a1      	str	r1, [r4, #8]
 2f0:	68a1      	ldr	r1, [r4, #8]
 2f2:	3101      	adds	r1, #1
 2f4:	60a1      	str	r1, [r4, #8]
 2f6:	68a1      	ldr	r1, [r4, #8]
 2f8:	3101      	adds	r1, #1
 2fa:	60a1      	str	r1, [r4, #8]
 2fc:	68a1      	ldr	r1, [r4, #8]
 2fe:	3101      	adds	r1, #1
 300:	60a1      	str	r1, [r4, #8]
 302:	68a1      	ldr	r1, [r4, #8]
 304:	3101      	adds	r1, #1
 306:	60a1      	str	r1, [r4, #8]
 308:	68a1      	ldr	r1, [r4, #8]
 30a:	3101      	adds	r1, #1
 30c:	60a1      	str	r1, [r4, #8]
 30e:	68a1      	ldr	r1, [r4, #8]
 310:	3101      	adds	r1, #1
 312:	60a1      	str	r1, [r4, #8]
 314:	68a1      	ldr	r1, [r4, #8]
 316:	3101      	adds	r1, #1
 318:	60a1      	str	r1, [r4, #8]
 31a:	68a1      	ldr	r1, [r4, #8]
 31c:	3101      	adds	r1, #1
 31e:	60a1      	str	r1, [r4, #8]
 320:	68a1      	ldr	r1, [r4, #8]
 322:	3101      	adds	r1, #1
 324:	60a1      	str	r1, [r4, #8]
 326:	68a1      	ldr	r1, [r4, #8]
 328:	3101      	adds	r1, #1
 32a:	60a1      	str	r1, [r4, #8]
 32c:	68a1      	ldr	r1, [r4, #8]
 32e:	3101      	adds	r1, #1
 330:	60a1      	str	r1, [r4, #8]
 332:	68a1      	ldr	r1, [r4, #8]
 334:	3101      	adds	r1, #1
 336:	60a1      	str	r1, [r4, #8]
 338:	68a1      	ldr	r1, [r4, #8]
 33a:	3101      	adds	r1, #1
 33c:	60a1      	str	r1, [r4, #8]
 33e:	68a1      	ldr	r1, [r4, #8]
 340:	3101      	adds	r1, #1
 342:	60a1      	str	r1, [r4, #8]
 344:	68a1      	ldr	r1, [r4, #8]
 346:	3101      	adds	r1, #1
 348:	60a1      	str	r1, [r4, #8]
 34a:	f241 6128 	movw	r1, #5672	; 0x1628
 34e:	5a5d      	ldrh	r5, [r3, r1]

00000350 <.LVL89>:
 350:	f360 0500 	bfi	r5, r0, #0, #1
 354:	525d      	strh	r5, [r3, r1]
 356:	5a5d      	ldrh	r5, [r3, r1]
 358:	f360 0541 	bfi	r5, r0, #1, #1
 35c:	525d      	strh	r5, [r3, r1]
 35e:	5a5d      	ldrh	r5, [r3, r1]
 360:	f360 1504 	bfi	r5, r0, #4, #1
 364:	525d      	strh	r5, [r3, r1]
 366:	5a5d      	ldrh	r5, [r3, r1]
 368:	f360 1545 	bfi	r5, r0, #5, #1
 36c:	525d      	strh	r5, [r3, r1]
 36e:	5a5d      	ldrh	r5, [r3, r1]
 370:	f360 1586 	bfi	r5, r0, #6, #1
 374:	525d      	strh	r5, [r3, r1]
 376:	68a0      	ldr	r0, [r4, #8]
 378:	3001      	adds	r0, #1
 37a:	60a0      	str	r0, [r4, #8]
 37c:	68a0      	ldr	r0, [r4, #8]
 37e:	3001      	adds	r0, #1
 380:	60a0      	str	r0, [r4, #8]
 382:	68a0      	ldr	r0, [r4, #8]
 384:	3001      	adds	r0, #1
 386:	60a0      	str	r0, [r4, #8]
 388:	68a0      	ldr	r0, [r4, #8]
 38a:	3001      	adds	r0, #1
 38c:	60a0      	str	r0, [r4, #8]
 38e:	68a0      	ldr	r0, [r4, #8]
 390:	3001      	adds	r0, #1
 392:	60a0      	str	r0, [r4, #8]
 394:	68a0      	ldr	r0, [r4, #8]
 396:	3001      	adds	r0, #1
 398:	60a0      	str	r0, [r4, #8]
 39a:	68a0      	ldr	r0, [r4, #8]
 39c:	3001      	adds	r0, #1
 39e:	60a0      	str	r0, [r4, #8]
 3a0:	68a0      	ldr	r0, [r4, #8]
 3a2:	3001      	adds	r0, #1
 3a4:	60a0      	str	r0, [r4, #8]
 3a6:	68a0      	ldr	r0, [r4, #8]
 3a8:	3001      	adds	r0, #1
 3aa:	60a0      	str	r0, [r4, #8]
 3ac:	68a0      	ldr	r0, [r4, #8]
 3ae:	3001      	adds	r0, #1
 3b0:	60a0      	str	r0, [r4, #8]
 3b2:	68a0      	ldr	r0, [r4, #8]
 3b4:	3001      	adds	r0, #1
 3b6:	60a0      	str	r0, [r4, #8]
 3b8:	68a0      	ldr	r0, [r4, #8]
 3ba:	3001      	adds	r0, #1
 3bc:	60a0      	str	r0, [r4, #8]
 3be:	68a0      	ldr	r0, [r4, #8]
 3c0:	3001      	adds	r0, #1
 3c2:	60a0      	str	r0, [r4, #8]
 3c4:	68a0      	ldr	r0, [r4, #8]
 3c6:	3001      	adds	r0, #1
 3c8:	60a0      	str	r0, [r4, #8]
 3ca:	68a0      	ldr	r0, [r4, #8]
 3cc:	3001      	adds	r0, #1
 3ce:	60a0      	str	r0, [r4, #8]
 3d0:	68a0      	ldr	r0, [r4, #8]
 3d2:	3001      	adds	r0, #1
 3d4:	60a0      	str	r0, [r4, #8]
 3d6:	68a0      	ldr	r0, [r4, #8]
 3d8:	3001      	adds	r0, #1
 3da:	60a0      	str	r0, [r4, #8]
 3dc:	68a0      	ldr	r0, [r4, #8]
 3de:	3001      	adds	r0, #1
 3e0:	60a0      	str	r0, [r4, #8]
 3e2:	68a0      	ldr	r0, [r4, #8]
 3e4:	3001      	adds	r0, #1
 3e6:	60a0      	str	r0, [r4, #8]
 3e8:	68a0      	ldr	r0, [r4, #8]
 3ea:	3001      	adds	r0, #1
 3ec:	60a0      	str	r0, [r4, #8]
 3ee:	68a0      	ldr	r0, [r4, #8]
 3f0:	3001      	adds	r0, #1
 3f2:	60a0      	str	r0, [r4, #8]
 3f4:	68a0      	ldr	r0, [r4, #8]
 3f6:	3001      	adds	r0, #1
 3f8:	60a0      	str	r0, [r4, #8]
 3fa:	68a0      	ldr	r0, [r4, #8]
 3fc:	3001      	adds	r0, #1
 3fe:	60a0      	str	r0, [r4, #8]
 400:	68a0      	ldr	r0, [r4, #8]
 402:	3001      	adds	r0, #1
 404:	60a0      	str	r0, [r4, #8]
 406:	68a0      	ldr	r0, [r4, #8]
 408:	3001      	adds	r0, #1
 40a:	60a0      	str	r0, [r4, #8]
 40c:	68a0      	ldr	r0, [r4, #8]
 40e:	3001      	adds	r0, #1
 410:	60a0      	str	r0, [r4, #8]
 412:	68a0      	ldr	r0, [r4, #8]
 414:	3001      	adds	r0, #1
 416:	60a0      	str	r0, [r4, #8]
 418:	68a0      	ldr	r0, [r4, #8]
 41a:	3001      	adds	r0, #1
 41c:	60a0      	str	r0, [r4, #8]
 41e:	68a0      	ldr	r0, [r4, #8]
 420:	3001      	adds	r0, #1
 422:	60a0      	str	r0, [r4, #8]
 424:	68a0      	ldr	r0, [r4, #8]
 426:	3001      	adds	r0, #1
 428:	60a0      	str	r0, [r4, #8]
 42a:	68a0      	ldr	r0, [r4, #8]
 42c:	3001      	adds	r0, #1
 42e:	60a0      	str	r0, [r4, #8]
 430:	68a0      	ldr	r0, [r4, #8]
 432:	3001      	adds	r0, #1
 434:	60a0      	str	r0, [r4, #8]
 436:	68a0      	ldr	r0, [r4, #8]
 438:	3001      	adds	r0, #1
 43a:	60a0      	str	r0, [r4, #8]
 43c:	68a0      	ldr	r0, [r4, #8]
 43e:	3001      	adds	r0, #1
 440:	60a0      	str	r0, [r4, #8]
 442:	68a0      	ldr	r0, [r4, #8]
 444:	3001      	adds	r0, #1
 446:	60a0      	str	r0, [r4, #8]
 448:	68a0      	ldr	r0, [r4, #8]
 44a:	3001      	adds	r0, #1
 44c:	60a0      	str	r0, [r4, #8]
 44e:	68a0      	ldr	r0, [r4, #8]
 450:	3001      	adds	r0, #1
 452:	60a0      	str	r0, [r4, #8]
 454:	68a0      	ldr	r0, [r4, #8]
 456:	3001      	adds	r0, #1
 458:	60a0      	str	r0, [r4, #8]
 45a:	68a0      	ldr	r0, [r4, #8]
 45c:	3001      	adds	r0, #1
 45e:	60a0      	str	r0, [r4, #8]
 460:	68a0      	ldr	r0, [r4, #8]
 462:	3001      	adds	r0, #1
 464:	60a0      	str	r0, [r4, #8]
 466:	68a0      	ldr	r0, [r4, #8]
 468:	3001      	adds	r0, #1
 46a:	60a0      	str	r0, [r4, #8]
 46c:	68a0      	ldr	r0, [r4, #8]
 46e:	3001      	adds	r0, #1
 470:	60a0      	str	r0, [r4, #8]
 472:	68a0      	ldr	r0, [r4, #8]
 474:	3001      	adds	r0, #1
 476:	60a0      	str	r0, [r4, #8]
 478:	68a0      	ldr	r0, [r4, #8]
 47a:	3001      	adds	r0, #1
 47c:	60a0      	str	r0, [r4, #8]
 47e:	68a0      	ldr	r0, [r4, #8]
 480:	3001      	adds	r0, #1
 482:	60a0      	str	r0, [r4, #8]
 484:	68a0      	ldr	r0, [r4, #8]
 486:	3001      	adds	r0, #1
 488:	60a0      	str	r0, [r4, #8]
 48a:	68a0      	ldr	r0, [r4, #8]
 48c:	3001      	adds	r0, #1
 48e:	60a0      	str	r0, [r4, #8]
 490:	68a0      	ldr	r0, [r4, #8]
 492:	3001      	adds	r0, #1
 494:	60a0      	str	r0, [r4, #8]
 496:	68a0      	ldr	r0, [r4, #8]
 498:	3001      	adds	r0, #1
 49a:	60a0      	str	r0, [r4, #8]
 49c:	68a0      	ldr	r0, [r4, #8]
 49e:	3001      	adds	r0, #1
 4a0:	60a0      	str	r0, [r4, #8]
 4a2:	68a0      	ldr	r0, [r4, #8]
 4a4:	3001      	adds	r0, #1
 4a6:	60a0      	str	r0, [r4, #8]
 4a8:	68a0      	ldr	r0, [r4, #8]
 4aa:	3001      	adds	r0, #1
 4ac:	60a0      	str	r0, [r4, #8]
 4ae:	68a0      	ldr	r0, [r4, #8]
 4b0:	3001      	adds	r0, #1
 4b2:	60a0      	str	r0, [r4, #8]
 4b4:	68a0      	ldr	r0, [r4, #8]
 4b6:	3001      	adds	r0, #1
 4b8:	60a0      	str	r0, [r4, #8]
 4ba:	68a0      	ldr	r0, [r4, #8]
 4bc:	3001      	adds	r0, #1
 4be:	60a0      	str	r0, [r4, #8]
 4c0:	68a0      	ldr	r0, [r4, #8]
 4c2:	3001      	adds	r0, #1
 4c4:	60a0      	str	r0, [r4, #8]
 4c6:	68a0      	ldr	r0, [r4, #8]
 4c8:	3001      	adds	r0, #1
 4ca:	60a0      	str	r0, [r4, #8]
 4cc:	68a0      	ldr	r0, [r4, #8]
 4ce:	3001      	adds	r0, #1
 4d0:	60a0      	str	r0, [r4, #8]
 4d2:	68a0      	ldr	r0, [r4, #8]
 4d4:	3001      	adds	r0, #1
 4d6:	60a0      	str	r0, [r4, #8]
 4d8:	68a0      	ldr	r0, [r4, #8]
 4da:	3001      	adds	r0, #1
 4dc:	60a0      	str	r0, [r4, #8]
 4de:	68a0      	ldr	r0, [r4, #8]
 4e0:	3001      	adds	r0, #1
 4e2:	60a0      	str	r0, [r4, #8]
 4e4:	68a0      	ldr	r0, [r4, #8]
 4e6:	3001      	adds	r0, #1
 4e8:	60a0      	str	r0, [r4, #8]
 4ea:	68a0      	ldr	r0, [r4, #8]
 4ec:	3001      	adds	r0, #1
 4ee:	60a0      	str	r0, [r4, #8]
 4f0:	68a0      	ldr	r0, [r4, #8]
 4f2:	3001      	adds	r0, #1
 4f4:	60a0      	str	r0, [r4, #8]
 4f6:	68a0      	ldr	r0, [r4, #8]
 4f8:	3001      	adds	r0, #1
 4fa:	60a0      	str	r0, [r4, #8]
 4fc:	68a0      	ldr	r0, [r4, #8]
 4fe:	3001      	adds	r0, #1
 500:	60a0      	str	r0, [r4, #8]
 502:	68a0      	ldr	r0, [r4, #8]
 504:	3001      	adds	r0, #1
 506:	60a0      	str	r0, [r4, #8]
 508:	68a0      	ldr	r0, [r4, #8]
 50a:	3001      	adds	r0, #1
 50c:	60a0      	str	r0, [r4, #8]
 50e:	68a0      	ldr	r0, [r4, #8]
 510:	3001      	adds	r0, #1
 512:	60a0      	str	r0, [r4, #8]
 514:	68a0      	ldr	r0, [r4, #8]
 516:	3001      	adds	r0, #1
 518:	60a0      	str	r0, [r4, #8]
 51a:	68a0      	ldr	r0, [r4, #8]
 51c:	3001      	adds	r0, #1
 51e:	60a0      	str	r0, [r4, #8]
 520:	68a0      	ldr	r0, [r4, #8]
 522:	3001      	adds	r0, #1
 524:	60a0      	str	r0, [r4, #8]
 526:	68a0      	ldr	r0, [r4, #8]
 528:	3001      	adds	r0, #1
 52a:	60a0      	str	r0, [r4, #8]
 52c:	68a0      	ldr	r0, [r4, #8]
 52e:	3001      	adds	r0, #1
 530:	60a0      	str	r0, [r4, #8]
 532:	68a0      	ldr	r0, [r4, #8]
 534:	3001      	adds	r0, #1
 536:	60a0      	str	r0, [r4, #8]
 538:	68a0      	ldr	r0, [r4, #8]
 53a:	3001      	adds	r0, #1
 53c:	60a0      	str	r0, [r4, #8]
 53e:	68a0      	ldr	r0, [r4, #8]
 540:	3001      	adds	r0, #1
 542:	60a0      	str	r0, [r4, #8]
 544:	68a0      	ldr	r0, [r4, #8]
 546:	3001      	adds	r0, #1
 548:	60a0      	str	r0, [r4, #8]
 54a:	68a0      	ldr	r0, [r4, #8]
 54c:	3001      	adds	r0, #1
 54e:	60a0      	str	r0, [r4, #8]
 550:	68a0      	ldr	r0, [r4, #8]
 552:	3001      	adds	r0, #1
 554:	60a0      	str	r0, [r4, #8]
 556:	68a0      	ldr	r0, [r4, #8]
 558:	3001      	adds	r0, #1
 55a:	60a0      	str	r0, [r4, #8]
 55c:	68a0      	ldr	r0, [r4, #8]
 55e:	3001      	adds	r0, #1
 560:	60a0      	str	r0, [r4, #8]
 562:	68a0      	ldr	r0, [r4, #8]
 564:	3001      	adds	r0, #1
 566:	60a0      	str	r0, [r4, #8]
 568:	68a0      	ldr	r0, [r4, #8]
 56a:	3001      	adds	r0, #1
 56c:	60a0      	str	r0, [r4, #8]
 56e:	68a0      	ldr	r0, [r4, #8]
 570:	3001      	adds	r0, #1
 572:	60a0      	str	r0, [r4, #8]
 574:	68a0      	ldr	r0, [r4, #8]
 576:	3001      	adds	r0, #1
 578:	60a0      	str	r0, [r4, #8]
 57a:	68a0      	ldr	r0, [r4, #8]
 57c:	3001      	adds	r0, #1
 57e:	60a0      	str	r0, [r4, #8]
 580:	68a0      	ldr	r0, [r4, #8]
 582:	3001      	adds	r0, #1
 584:	60a0      	str	r0, [r4, #8]
 586:	68a0      	ldr	r0, [r4, #8]
 588:	3001      	adds	r0, #1
 58a:	60a0      	str	r0, [r4, #8]
 58c:	68a0      	ldr	r0, [r4, #8]
 58e:	3001      	adds	r0, #1
 590:	60a0      	str	r0, [r4, #8]
 592:	68a0      	ldr	r0, [r4, #8]
 594:	3001      	adds	r0, #1
 596:	60a0      	str	r0, [r4, #8]
 598:	68a0      	ldr	r0, [r4, #8]
 59a:	3001      	adds	r0, #1
 59c:	60a0      	str	r0, [r4, #8]
 59e:	68a0      	ldr	r0, [r4, #8]
 5a0:	3001      	adds	r0, #1
 5a2:	60a0      	str	r0, [r4, #8]
 5a4:	68a0      	ldr	r0, [r4, #8]
 5a6:	3001      	adds	r0, #1
 5a8:	60a0      	str	r0, [r4, #8]
 5aa:	68a0      	ldr	r0, [r4, #8]
 5ac:	3001      	adds	r0, #1
 5ae:	60a0      	str	r0, [r4, #8]
 5b0:	68a0      	ldr	r0, [r4, #8]
 5b2:	3001      	adds	r0, #1
 5b4:	60a0      	str	r0, [r4, #8]
 5b6:	68a0      	ldr	r0, [r4, #8]
 5b8:	3001      	adds	r0, #1
 5ba:	60a0      	str	r0, [r4, #8]
 5bc:	68a0      	ldr	r0, [r4, #8]
 5be:	3001      	adds	r0, #1
 5c0:	60a0      	str	r0, [r4, #8]
 5c2:	68a0      	ldr	r0, [r4, #8]
 5c4:	3001      	adds	r0, #1
 5c6:	60a0      	str	r0, [r4, #8]
 5c8:	68a0      	ldr	r0, [r4, #8]
 5ca:	3001      	adds	r0, #1
 5cc:	60a0      	str	r0, [r4, #8]
 5ce:	68a0      	ldr	r0, [r4, #8]
 5d0:	3001      	adds	r0, #1
 5d2:	60a0      	str	r0, [r4, #8]
 5d4:	68a0      	ldr	r0, [r4, #8]
 5d6:	3001      	adds	r0, #1
 5d8:	60a0      	str	r0, [r4, #8]
 5da:	68a0      	ldr	r0, [r4, #8]
 5dc:	3001      	adds	r0, #1
 5de:	60a0      	str	r0, [r4, #8]
 5e0:	68a0      	ldr	r0, [r4, #8]
 5e2:	3001      	adds	r0, #1
 5e4:	60a0      	str	r0, [r4, #8]
 5e6:	68a0      	ldr	r0, [r4, #8]
 5e8:	3001      	adds	r0, #1
 5ea:	60a0      	str	r0, [r4, #8]
 5ec:	68a0      	ldr	r0, [r4, #8]
 5ee:	3001      	adds	r0, #1
 5f0:	60a0      	str	r0, [r4, #8]
 5f2:	68a0      	ldr	r0, [r4, #8]
 5f4:	3001      	adds	r0, #1
 5f6:	60a0      	str	r0, [r4, #8]
 5f8:	68a0      	ldr	r0, [r4, #8]
 5fa:	3001      	adds	r0, #1
 5fc:	60a0      	str	r0, [r4, #8]
 5fe:	68a0      	ldr	r0, [r4, #8]
 600:	3001      	adds	r0, #1
 602:	60a0      	str	r0, [r4, #8]
 604:	68a0      	ldr	r0, [r4, #8]
 606:	3001      	adds	r0, #1
 608:	60a0      	str	r0, [r4, #8]
 60a:	68a0      	ldr	r0, [r4, #8]
 60c:	3001      	adds	r0, #1
 60e:	60a0      	str	r0, [r4, #8]
 610:	68a0      	ldr	r0, [r4, #8]
 612:	3001      	adds	r0, #1
 614:	60a0      	str	r0, [r4, #8]
 616:	68a0      	ldr	r0, [r4, #8]
 618:	3001      	adds	r0, #1
 61a:	60a0      	str	r0, [r4, #8]
 61c:	68a0      	ldr	r0, [r4, #8]
 61e:	3001      	adds	r0, #1
 620:	60a0      	str	r0, [r4, #8]
 622:	68a0      	ldr	r0, [r4, #8]
 624:	3001      	adds	r0, #1
 626:	60a0      	str	r0, [r4, #8]
 628:	68a0      	ldr	r0, [r4, #8]
 62a:	3001      	adds	r0, #1
 62c:	60a0      	str	r0, [r4, #8]
 62e:	68a0      	ldr	r0, [r4, #8]
 630:	3001      	adds	r0, #1
 632:	60a0      	str	r0, [r4, #8]
 634:	68a0      	ldr	r0, [r4, #8]
 636:	3001      	adds	r0, #1
 638:	60a0      	str	r0, [r4, #8]
 63a:	68a0      	ldr	r0, [r4, #8]
 63c:	3001      	adds	r0, #1
 63e:	60a0      	str	r0, [r4, #8]
 640:	68a0      	ldr	r0, [r4, #8]
 642:	3001      	adds	r0, #1
 644:	60a0      	str	r0, [r4, #8]
 646:	68a0      	ldr	r0, [r4, #8]
 648:	3001      	adds	r0, #1
 64a:	60a0      	str	r0, [r4, #8]
 64c:	68a0      	ldr	r0, [r4, #8]
 64e:	3001      	adds	r0, #1
 650:	60a0      	str	r0, [r4, #8]
 652:	68a0      	ldr	r0, [r4, #8]
 654:	3001      	adds	r0, #1
 656:	60a0      	str	r0, [r4, #8]
 658:	68a0      	ldr	r0, [r4, #8]
 65a:	3001      	adds	r0, #1
 65c:	60a0      	str	r0, [r4, #8]
 65e:	68a0      	ldr	r0, [r4, #8]
 660:	3001      	adds	r0, #1
 662:	60a0      	str	r0, [r4, #8]
 664:	6810      	ldr	r0, [r2, #0]
 666:	f040 0004 	orr.w	r0, r0, #4
 66a:	6010      	str	r0, [r2, #0]
 66c:	6810      	ldr	r0, [r2, #0]
 66e:	f040 0008 	orr.w	r0, r0, #8
 672:	6010      	str	r0, [r2, #0]
 674:	68a0      	ldr	r0, [r4, #8]
 676:	3001      	adds	r0, #1
 678:	60a0      	str	r0, [r4, #8]
 67a:	68a0      	ldr	r0, [r4, #8]
 67c:	3001      	adds	r0, #1
 67e:	60a0      	str	r0, [r4, #8]
 680:	68a0      	ldr	r0, [r4, #8]
 682:	3001      	adds	r0, #1
 684:	60a0      	str	r0, [r4, #8]
 686:	68a0      	ldr	r0, [r4, #8]
 688:	3001      	adds	r0, #1
 68a:	60a0      	str	r0, [r4, #8]
 68c:	68a0      	ldr	r0, [r4, #8]
 68e:	3001      	adds	r0, #1
 690:	60a0      	str	r0, [r4, #8]
 692:	68a0      	ldr	r0, [r4, #8]
 694:	3001      	adds	r0, #1
 696:	60a0      	str	r0, [r4, #8]
 698:	68a0      	ldr	r0, [r4, #8]
 69a:	3001      	adds	r0, #1
 69c:	60a0      	str	r0, [r4, #8]
 69e:	68a0      	ldr	r0, [r4, #8]
 6a0:	3001      	adds	r0, #1
 6a2:	60a0      	str	r0, [r4, #8]
 6a4:	68a0      	ldr	r0, [r4, #8]
 6a6:	3001      	adds	r0, #1
 6a8:	60a0      	str	r0, [r4, #8]
 6aa:	68a0      	ldr	r0, [r4, #8]
 6ac:	3001      	adds	r0, #1
 6ae:	60a0      	str	r0, [r4, #8]
 6b0:	68a0      	ldr	r0, [r4, #8]
 6b2:	3001      	adds	r0, #1
 6b4:	60a0      	str	r0, [r4, #8]
 6b6:	68a0      	ldr	r0, [r4, #8]
 6b8:	3001      	adds	r0, #1
 6ba:	60a0      	str	r0, [r4, #8]
 6bc:	68a0      	ldr	r0, [r4, #8]
 6be:	3001      	adds	r0, #1
 6c0:	60a0      	str	r0, [r4, #8]
 6c2:	68a0      	ldr	r0, [r4, #8]
 6c4:	3001      	adds	r0, #1
 6c6:	60a0      	str	r0, [r4, #8]
 6c8:	68a0      	ldr	r0, [r4, #8]
 6ca:	3001      	adds	r0, #1
 6cc:	60a0      	str	r0, [r4, #8]
 6ce:	68a0      	ldr	r0, [r4, #8]
 6d0:	3001      	adds	r0, #1
 6d2:	60a0      	str	r0, [r4, #8]
 6d4:	68a0      	ldr	r0, [r4, #8]
 6d6:	3001      	adds	r0, #1
 6d8:	60a0      	str	r0, [r4, #8]
 6da:	68a0      	ldr	r0, [r4, #8]
 6dc:	3001      	adds	r0, #1
 6de:	60a0      	str	r0, [r4, #8]
 6e0:	68a0      	ldr	r0, [r4, #8]
 6e2:	3001      	adds	r0, #1
 6e4:	60a0      	str	r0, [r4, #8]
 6e6:	68a0      	ldr	r0, [r4, #8]
 6e8:	3001      	adds	r0, #1
 6ea:	60a0      	str	r0, [r4, #8]
 6ec:	68a0      	ldr	r0, [r4, #8]
 6ee:	3001      	adds	r0, #1
 6f0:	60a0      	str	r0, [r4, #8]
 6f2:	68a0      	ldr	r0, [r4, #8]
 6f4:	3001      	adds	r0, #1
 6f6:	60a0      	str	r0, [r4, #8]
 6f8:	68a0      	ldr	r0, [r4, #8]
 6fa:	3001      	adds	r0, #1
 6fc:	60a0      	str	r0, [r4, #8]
 6fe:	68a0      	ldr	r0, [r4, #8]
 700:	3001      	adds	r0, #1
 702:	60a0      	str	r0, [r4, #8]
 704:	68a0      	ldr	r0, [r4, #8]
 706:	3001      	adds	r0, #1
 708:	60a0      	str	r0, [r4, #8]
 70a:	68a0      	ldr	r0, [r4, #8]
 70c:	3001      	adds	r0, #1
 70e:	60a0      	str	r0, [r4, #8]
 710:	68a0      	ldr	r0, [r4, #8]
 712:	3001      	adds	r0, #1
 714:	60a0      	str	r0, [r4, #8]
 716:	68a0      	ldr	r0, [r4, #8]
 718:	3001      	adds	r0, #1
 71a:	60a0      	str	r0, [r4, #8]
 71c:	68a0      	ldr	r0, [r4, #8]
 71e:	3001      	adds	r0, #1
 720:	60a0      	str	r0, [r4, #8]
 722:	68a0      	ldr	r0, [r4, #8]
 724:	3001      	adds	r0, #1
 726:	60a0      	str	r0, [r4, #8]
 728:	68a0      	ldr	r0, [r4, #8]
 72a:	3001      	adds	r0, #1
 72c:	60a0      	str	r0, [r4, #8]
 72e:	68a0      	ldr	r0, [r4, #8]
 730:	3001      	adds	r0, #1
 732:	60a0      	str	r0, [r4, #8]
 734:	68a0      	ldr	r0, [r4, #8]
 736:	3001      	adds	r0, #1
 738:	60a0      	str	r0, [r4, #8]
 73a:	68a0      	ldr	r0, [r4, #8]
 73c:	3001      	adds	r0, #1
 73e:	60a0      	str	r0, [r4, #8]
 740:	68a0      	ldr	r0, [r4, #8]
 742:	3001      	adds	r0, #1
 744:	60a0      	str	r0, [r4, #8]
 746:	68a0      	ldr	r0, [r4, #8]
 748:	3001      	adds	r0, #1
 74a:	60a0      	str	r0, [r4, #8]
 74c:	68a0      	ldr	r0, [r4, #8]
 74e:	3001      	adds	r0, #1
 750:	60a0      	str	r0, [r4, #8]
 752:	68a0      	ldr	r0, [r4, #8]
 754:	3001      	adds	r0, #1
 756:	60a0      	str	r0, [r4, #8]
 758:	68a0      	ldr	r0, [r4, #8]
 75a:	3001      	adds	r0, #1
 75c:	60a0      	str	r0, [r4, #8]
 75e:	68a0      	ldr	r0, [r4, #8]
 760:	3001      	adds	r0, #1
 762:	60a0      	str	r0, [r4, #8]
 764:	68a0      	ldr	r0, [r4, #8]
 766:	3001      	adds	r0, #1
 768:	60a0      	str	r0, [r4, #8]
 76a:	68a0      	ldr	r0, [r4, #8]
 76c:	3001      	adds	r0, #1
 76e:	60a0      	str	r0, [r4, #8]
 770:	68a0      	ldr	r0, [r4, #8]
 772:	3001      	adds	r0, #1
 774:	60a0      	str	r0, [r4, #8]
 776:	68a0      	ldr	r0, [r4, #8]
 778:	3001      	adds	r0, #1
 77a:	60a0      	str	r0, [r4, #8]
 77c:	68a0      	ldr	r0, [r4, #8]
 77e:	3001      	adds	r0, #1
 780:	60a0      	str	r0, [r4, #8]
 782:	68a0      	ldr	r0, [r4, #8]
 784:	3001      	adds	r0, #1
 786:	60a0      	str	r0, [r4, #8]
 788:	68a0      	ldr	r0, [r4, #8]
 78a:	3001      	adds	r0, #1
 78c:	60a0      	str	r0, [r4, #8]
 78e:	68a0      	ldr	r0, [r4, #8]
 790:	3001      	adds	r0, #1
 792:	60a0      	str	r0, [r4, #8]
 794:	68a0      	ldr	r0, [r4, #8]
 796:	3001      	adds	r0, #1
 798:	60a0      	str	r0, [r4, #8]
 79a:	68a0      	ldr	r0, [r4, #8]
 79c:	3001      	adds	r0, #1
 79e:	60a0      	str	r0, [r4, #8]
 7a0:	68a0      	ldr	r0, [r4, #8]
 7a2:	3001      	adds	r0, #1
 7a4:	60a0      	str	r0, [r4, #8]
 7a6:	68a0      	ldr	r0, [r4, #8]
 7a8:	3001      	adds	r0, #1
 7aa:	60a0      	str	r0, [r4, #8]
 7ac:	68a0      	ldr	r0, [r4, #8]
 7ae:	3001      	adds	r0, #1
 7b0:	60a0      	str	r0, [r4, #8]
 7b2:	68a0      	ldr	r0, [r4, #8]
 7b4:	3001      	adds	r0, #1
 7b6:	60a0      	str	r0, [r4, #8]
 7b8:	68a0      	ldr	r0, [r4, #8]
 7ba:	3001      	adds	r0, #1
 7bc:	60a0      	str	r0, [r4, #8]
 7be:	68a0      	ldr	r0, [r4, #8]
 7c0:	3001      	adds	r0, #1
 7c2:	60a0      	str	r0, [r4, #8]
 7c4:	68a0      	ldr	r0, [r4, #8]
 7c6:	3001      	adds	r0, #1
 7c8:	60a0      	str	r0, [r4, #8]
 7ca:	68a0      	ldr	r0, [r4, #8]
 7cc:	3001      	adds	r0, #1
 7ce:	60a0      	str	r0, [r4, #8]
 7d0:	68a0      	ldr	r0, [r4, #8]
 7d2:	3001      	adds	r0, #1
 7d4:	60a0      	str	r0, [r4, #8]
 7d6:	68a0      	ldr	r0, [r4, #8]
 7d8:	3001      	adds	r0, #1
 7da:	60a0      	str	r0, [r4, #8]
 7dc:	68a0      	ldr	r0, [r4, #8]
 7de:	3001      	adds	r0, #1
 7e0:	60a0      	str	r0, [r4, #8]
 7e2:	68a0      	ldr	r0, [r4, #8]
 7e4:	3001      	adds	r0, #1
 7e6:	60a0      	str	r0, [r4, #8]
 7e8:	68a0      	ldr	r0, [r4, #8]
 7ea:	3001      	adds	r0, #1
 7ec:	60a0      	str	r0, [r4, #8]
 7ee:	68a0      	ldr	r0, [r4, #8]
 7f0:	3001      	adds	r0, #1
 7f2:	60a0      	str	r0, [r4, #8]
 7f4:	68a0      	ldr	r0, [r4, #8]
 7f6:	3001      	adds	r0, #1
 7f8:	60a0      	str	r0, [r4, #8]
 7fa:	68a0      	ldr	r0, [r4, #8]
 7fc:	3001      	adds	r0, #1
 7fe:	60a0      	str	r0, [r4, #8]
 800:	68a0      	ldr	r0, [r4, #8]
 802:	3001      	adds	r0, #1
 804:	60a0      	str	r0, [r4, #8]
 806:	68a0      	ldr	r0, [r4, #8]
 808:	3001      	adds	r0, #1
 80a:	60a0      	str	r0, [r4, #8]
 80c:	68a0      	ldr	r0, [r4, #8]
 80e:	3001      	adds	r0, #1
 810:	60a0      	str	r0, [r4, #8]
 812:	68a0      	ldr	r0, [r4, #8]
 814:	3001      	adds	r0, #1
 816:	60a0      	str	r0, [r4, #8]
 818:	68a0      	ldr	r0, [r4, #8]
 81a:	3001      	adds	r0, #1
 81c:	60a0      	str	r0, [r4, #8]
 81e:	68a0      	ldr	r0, [r4, #8]
 820:	3001      	adds	r0, #1
 822:	60a0      	str	r0, [r4, #8]
 824:	68a0      	ldr	r0, [r4, #8]
 826:	3001      	adds	r0, #1
 828:	60a0      	str	r0, [r4, #8]
 82a:	68a0      	ldr	r0, [r4, #8]
 82c:	3001      	adds	r0, #1
 82e:	60a0      	str	r0, [r4, #8]
 830:	68a0      	ldr	r0, [r4, #8]
 832:	3001      	adds	r0, #1
 834:	60a0      	str	r0, [r4, #8]
 836:	68a0      	ldr	r0, [r4, #8]
 838:	3001      	adds	r0, #1
 83a:	60a0      	str	r0, [r4, #8]
 83c:	68a0      	ldr	r0, [r4, #8]
 83e:	3001      	adds	r0, #1
 840:	60a0      	str	r0, [r4, #8]
 842:	68a0      	ldr	r0, [r4, #8]
 844:	3001      	adds	r0, #1
 846:	60a0      	str	r0, [r4, #8]
 848:	68a0      	ldr	r0, [r4, #8]
 84a:	3001      	adds	r0, #1
 84c:	60a0      	str	r0, [r4, #8]
 84e:	68a0      	ldr	r0, [r4, #8]
 850:	3001      	adds	r0, #1
 852:	60a0      	str	r0, [r4, #8]
 854:	68a0      	ldr	r0, [r4, #8]
 856:	3001      	adds	r0, #1
 858:	60a0      	str	r0, [r4, #8]
 85a:	68a0      	ldr	r0, [r4, #8]
 85c:	3001      	adds	r0, #1
 85e:	60a0      	str	r0, [r4, #8]
 860:	68a0      	ldr	r0, [r4, #8]
 862:	3001      	adds	r0, #1
 864:	60a0      	str	r0, [r4, #8]
 866:	68a0      	ldr	r0, [r4, #8]
 868:	3001      	adds	r0, #1
 86a:	60a0      	str	r0, [r4, #8]
 86c:	68a0      	ldr	r0, [r4, #8]
 86e:	3001      	adds	r0, #1
 870:	60a0      	str	r0, [r4, #8]
 872:	68a0      	ldr	r0, [r4, #8]
 874:	3001      	adds	r0, #1
 876:	60a0      	str	r0, [r4, #8]
 878:	68a0      	ldr	r0, [r4, #8]
 87a:	3001      	adds	r0, #1
 87c:	60a0      	str	r0, [r4, #8]
 87e:	68a0      	ldr	r0, [r4, #8]
 880:	3001      	adds	r0, #1
 882:	60a0      	str	r0, [r4, #8]
 884:	68a0      	ldr	r0, [r4, #8]
 886:	3001      	adds	r0, #1
 888:	60a0      	str	r0, [r4, #8]
 88a:	68a0      	ldr	r0, [r4, #8]
 88c:	3001      	adds	r0, #1
 88e:	60a0      	str	r0, [r4, #8]
 890:	68a0      	ldr	r0, [r4, #8]
 892:	3001      	adds	r0, #1
 894:	60a0      	str	r0, [r4, #8]
 896:	68a0      	ldr	r0, [r4, #8]
 898:	3001      	adds	r0, #1
 89a:	60a0      	str	r0, [r4, #8]
 89c:	68a0      	ldr	r0, [r4, #8]
 89e:	3001      	adds	r0, #1
 8a0:	60a0      	str	r0, [r4, #8]
 8a2:	68a0      	ldr	r0, [r4, #8]
 8a4:	3001      	adds	r0, #1
 8a6:	60a0      	str	r0, [r4, #8]
 8a8:	68a0      	ldr	r0, [r4, #8]
 8aa:	3001      	adds	r0, #1
 8ac:	60a0      	str	r0, [r4, #8]
 8ae:	68a0      	ldr	r0, [r4, #8]
 8b0:	3001      	adds	r0, #1
 8b2:	60a0      	str	r0, [r4, #8]
 8b4:	68a0      	ldr	r0, [r4, #8]
 8b6:	3001      	adds	r0, #1
 8b8:	60a0      	str	r0, [r4, #8]
 8ba:	68a0      	ldr	r0, [r4, #8]
 8bc:	3001      	adds	r0, #1
 8be:	60a0      	str	r0, [r4, #8]
 8c0:	68a0      	ldr	r0, [r4, #8]
 8c2:	3001      	adds	r0, #1
 8c4:	60a0      	str	r0, [r4, #8]
 8c6:	68a0      	ldr	r0, [r4, #8]
 8c8:	3001      	adds	r0, #1
 8ca:	60a0      	str	r0, [r4, #8]
 8cc:	68a0      	ldr	r0, [r4, #8]
 8ce:	3001      	adds	r0, #1
 8d0:	60a0      	str	r0, [r4, #8]
 8d2:	68a0      	ldr	r0, [r4, #8]
 8d4:	3001      	adds	r0, #1
 8d6:	60a0      	str	r0, [r4, #8]
 8d8:	68a0      	ldr	r0, [r4, #8]
 8da:	3001      	adds	r0, #1
 8dc:	60a0      	str	r0, [r4, #8]
 8de:	68a0      	ldr	r0, [r4, #8]
 8e0:	3001      	adds	r0, #1
 8e2:	60a0      	str	r0, [r4, #8]
 8e4:	68a0      	ldr	r0, [r4, #8]
 8e6:	3001      	adds	r0, #1
 8e8:	60a0      	str	r0, [r4, #8]
 8ea:	68a0      	ldr	r0, [r4, #8]
 8ec:	3001      	adds	r0, #1
 8ee:	60a0      	str	r0, [r4, #8]
 8f0:	68a0      	ldr	r0, [r4, #8]
 8f2:	3001      	adds	r0, #1
 8f4:	60a0      	str	r0, [r4, #8]
 8f6:	68a0      	ldr	r0, [r4, #8]
 8f8:	3001      	adds	r0, #1
 8fa:	60a0      	str	r0, [r4, #8]
 8fc:	68a0      	ldr	r0, [r4, #8]
 8fe:	3001      	adds	r0, #1
 900:	60a0      	str	r0, [r4, #8]
 902:	68a0      	ldr	r0, [r4, #8]
 904:	3001      	adds	r0, #1
 906:	60a0      	str	r0, [r4, #8]
 908:	68a0      	ldr	r0, [r4, #8]
 90a:	3001      	adds	r0, #1
 90c:	60a0      	str	r0, [r4, #8]
 90e:	68a0      	ldr	r0, [r4, #8]
 910:	3001      	adds	r0, #1
 912:	60a0      	str	r0, [r4, #8]
 914:	68a0      	ldr	r0, [r4, #8]
 916:	3001      	adds	r0, #1
 918:	60a0      	str	r0, [r4, #8]
 91a:	68a0      	ldr	r0, [r4, #8]
 91c:	3001      	adds	r0, #1
 91e:	60a0      	str	r0, [r4, #8]
 920:	68a0      	ldr	r0, [r4, #8]
 922:	3001      	adds	r0, #1
 924:	60a0      	str	r0, [r4, #8]
 926:	68a0      	ldr	r0, [r4, #8]
 928:	3001      	adds	r0, #1
 92a:	60a0      	str	r0, [r4, #8]
 92c:	68a0      	ldr	r0, [r4, #8]
 92e:	3001      	adds	r0, #1
 930:	60a0      	str	r0, [r4, #8]
 932:	68a0      	ldr	r0, [r4, #8]
 934:	3001      	adds	r0, #1
 936:	60a0      	str	r0, [r4, #8]
 938:	68a0      	ldr	r0, [r4, #8]
 93a:	3001      	adds	r0, #1
 93c:	60a0      	str	r0, [r4, #8]
 93e:	68a0      	ldr	r0, [r4, #8]
 940:	3001      	adds	r0, #1
 942:	60a0      	str	r0, [r4, #8]
 944:	68a0      	ldr	r0, [r4, #8]
 946:	3001      	adds	r0, #1
 948:	60a0      	str	r0, [r4, #8]
 94a:	68a0      	ldr	r0, [r4, #8]
 94c:	3001      	adds	r0, #1
 94e:	60a0      	str	r0, [r4, #8]
 950:	68a0      	ldr	r0, [r4, #8]
 952:	3001      	adds	r0, #1
 954:	60a0      	str	r0, [r4, #8]
 956:	68a0      	ldr	r0, [r4, #8]
 958:	3001      	adds	r0, #1
 95a:	60a0      	str	r0, [r4, #8]
 95c:	68a0      	ldr	r0, [r4, #8]
 95e:	3001      	adds	r0, #1
 960:	60a0      	str	r0, [r4, #8]
 962:	5a58      	ldrh	r0, [r3, r1]
 964:	f040 0004 	orr.w	r0, r0, #4
 968:	5258      	strh	r0, [r3, r1]
 96a:	5a58      	ldrh	r0, [r3, r1]
 96c:	f040 0008 	orr.w	r0, r0, #8
 970:	5258      	strh	r0, [r3, r1]
 972:	f241 0130 	movw	r1, #4144	; 0x1030
 976:	5858      	ldr	r0, [r3, r1]
 978:	f36f 0082 	bfc	r0, #2, #1
 97c:	5058      	str	r0, [r3, r1]
 97e:	5858      	ldr	r0, [r3, r1]
 980:	f36f 00c3 	bfc	r0, #3, #1
 984:	5058      	str	r0, [r3, r1]
 986:	5858      	ldr	r0, [r3, r1]
 988:	f36f 0000 	bfc	r0, #0, #1
 98c:	5058      	str	r0, [r3, r1]
 98e:	5858      	ldr	r0, [r3, r1]
 990:	f36f 1045 	bfc	r0, #5, #1
 994:	5058      	str	r0, [r3, r1]

00000996 <.LBB54>:
 996:	f241 0108 	movw	r1, #4104	; 0x1008
 99a:	5a58      	ldrh	r0, [r3, r1]
 99c:	f36f 0000 	bfc	r0, #0, #1
 9a0:	5258      	strh	r0, [r3, r1]
 9a2:	f641 2118 	movw	r1, #6680	; 0x1a18
 9a6:	5a58      	ldrh	r0, [r3, r1]
 9a8:	f36f 2008 	bfc	r0, #8, #1
 9ac:	5258      	strh	r0, [r3, r1]
 9ae:	f241 610c 	movw	r1, #5644	; 0x160c
 9b2:	5858      	ldr	r0, [r3, r1]
 9b4:	f36f 605a 	bfc	r0, #25, #2
 9b8:	5058      	str	r0, [r3, r1]
 9ba:	5858      	ldr	r0, [r3, r1]
 9bc:	f36f 60db 	bfc	r0, #27, #1
 9c0:	5058      	str	r0, [r3, r1]
 9c2:	6810      	ldr	r0, [r2, #0]
 9c4:	f36f 6018 	bfc	r0, #24, #1
 9c8:	6010      	str	r0, [r2, #0]
 9ca:	f832 0c20 	ldrh.w	r0, [r2, #-32]
 9ce:	f36f 0007 	bfc	r0, #0, #8
 9d2:	f822 0c20 	strh.w	r0, [r2, #-32]
 9d6:	f241 6204 	movw	r2, #5636	; 0x1604
 9da:	5a98      	ldrh	r0, [r3, r2]
 9dc:	f36f 0007 	bfc	r0, #0, #8
 9e0:	5298      	strh	r0, [r3, r2]
 9e2:	585a      	ldr	r2, [r3, r1]
 9e4:	f36f 0207 	bfc	r2, #0, #8
 9e8:	505a      	str	r2, [r3, r1]
 9ea:	f241 6208 	movw	r2, #5640	; 0x1608
 9ee:	f44f 704b 	mov.w	r0, #812	; 0x32c
 9f2:	5a99      	ldrh	r1, [r3, r2]
 9f4:	f36f 0107 	bfc	r1, #0, #8
 9f8:	5299      	strh	r1, [r3, r2]
 9fa:	f641 021c 	movw	r2, #6172	; 0x181c
 9fe:	5a99      	ldrh	r1, [r3, r2]
 a00:	f360 010f 	bfi	r1, r0, #0, #16
 a04:	5299      	strh	r1, [r3, r2]
 a06:	f641 0214 	movw	r2, #6164	; 0x1814
 a0a:	5a99      	ldrh	r1, [r3, r2]
 a0c:	f360 010f 	bfi	r1, r0, #0, #16
 a10:	5299      	strh	r1, [r3, r2]

00000a12 <.LBE54>:
 a12:	2000      	movs	r0, #0
 a14:	bd38      	pop	{r3, r4, r5, pc}

00000a16 <.LFE173>:
 a16:	bf00      	nop

Disassembly of section .text.BLE_DTM_EnhancedReceiverTestCmd:

00000000 <BLE_DTM_EnhancedReceiverTestCmd>:
   0:	2827      	cmp	r0, #39	; 0x27
   2:	b570      	push	{r4, r5, r6, lr}

00000004 <.LCFI13>:
   4:	4605      	mov	r5, r0
   6:	460c      	mov	r4, r1
   8:	4616      	mov	r6, r2
   a:	d815      	bhi.n	38 <.LVL93>
   c:	1e4b      	subs	r3, r1, #1
   e:	2b02      	cmp	r3, #2
  10:	d812      	bhi.n	38 <.LVL93>
  12:	b98a      	cbnz	r2, 38 <.LVL93>
  14:	f7ff fffe 	bl	0 <BLE_DTM_EnhancedReceiverTestCmd>

00000018 <.LVL91>:
  18:	2c02      	cmp	r4, #2
  1a:	4b08      	ldr	r3, [pc, #32]	; (3c <.LVL94+0x2>)
  1c:	d007      	beq.n	2e <.LVL92+0x4>
  1e:	2c03      	cmp	r4, #3
  20:	d008      	beq.n	34 <.LVL92+0xa>
  22:	721e      	strb	r6, [r3, #8]
  24:	701d      	strb	r5, [r3, #0]
  26:	f7ff fffe 	bl	0 <BLE_DTM_EnhancedReceiverTestCmd>

0000002a <.LVL92>:
  2a:	2000      	movs	r0, #0
  2c:	bd70      	pop	{r4, r5, r6, pc}
  2e:	2201      	movs	r2, #1
  30:	721a      	strb	r2, [r3, #8]
  32:	e7f7      	b.n	24 <.LVL91+0xc>
  34:	2204      	movs	r2, #4
  36:	e7fb      	b.n	30 <.LVL92+0x6>

00000038 <.LVL93>:
  38:	2012      	movs	r0, #18

0000003a <.LVL94>:
  3a:	bd70      	pop	{r4, r5, r6, pc}
  3c:	00000000 	.word	0x00000000

Disassembly of section .text.BLE_DTM_EnhancedTransmitterTestCmd:

00000000 <BLE_DTM_EnhancedTransmitterTestCmd>:
   0:	2827      	cmp	r0, #39	; 0x27
   2:	e92d 41f0 	stmdb	sp!, {r4, r5, r6, r7, r8, lr}

00000006 <.LCFI14>:
   6:	4607      	mov	r7, r0
   8:	4688      	mov	r8, r1
   a:	4616      	mov	r6, r2
   c:	461d      	mov	r5, r3
   e:	d81d      	bhi.n	4c <.LVL99>
  10:	2a07      	cmp	r2, #7
  12:	d81b      	bhi.n	4c <.LVL99>
  14:	3b01      	subs	r3, #1

00000016 <.LVL96>:
  16:	2b03      	cmp	r3, #3
  18:	d818      	bhi.n	4c <.LVL99>
  1a:	f7ff fffe 	bl	0 <BLE_DTM_EnhancedTransmitterTestCmd>

0000001e <.LVL97>:
  1e:	2d03      	cmp	r5, #3
  20:	4c0c      	ldr	r4, [pc, #48]	; (54 <.LVL100+0x6>)
  22:	d007      	beq.n	34 <.LVL97+0x16>
  24:	2d04      	cmp	r5, #4
  26:	d00f      	beq.n	48 <.LVL98+0x6>
  28:	2d02      	cmp	r5, #2
  2a:	bf14      	ite	ne
  2c:	2300      	movne	r3, #0
  2e:	2301      	moveq	r3, #1
  30:	7223      	strb	r3, [r4, #8]
  32:	e000      	b.n	36 <.LVL97+0x18>
  34:	7225      	strb	r5, [r4, #8]
  36:	7067      	strb	r7, [r4, #1]
  38:	f884 8002 	strb.w	r8, [r4, #2]
  3c:	70e6      	strb	r6, [r4, #3]
  3e:	f7ff fffe 	bl	0 <BLE_DTM_EnhancedTransmitterTestCmd>

00000042 <.LVL98>:
  42:	2000      	movs	r0, #0
  44:	e8bd 81f0 	ldmia.w	sp!, {r4, r5, r6, r7, r8, pc}
  48:	2302      	movs	r3, #2
  4a:	e7f1      	b.n	30 <.LVL97+0x12>

0000004c <.LVL99>:
  4c:	2012      	movs	r0, #18

0000004e <.LVL100>:
  4e:	e8bd 81f0 	ldmia.w	sp!, {r4, r5, r6, r7, r8, pc}
  52:	bf00      	nop
  54:	00000000 	.word	0x00000000

ble_hal_ch_sel.o:     file format elf32-littlearm


Disassembly of section .text.hal_bt_gen_ch_idx_by_BLE_CSA1:

00000000 <hal_bt_gen_ch_idx_by_BLE_CSA1>:
   0:	b530      	push	{r4, r5, lr}

00000002 <.LCFI0>:
   2:	4b1f      	ldr	r3, [pc, #124]	; (80 <.LCFI0+0x7e>)
   4:	7844      	ldrb	r4, [r0, #1]
   6:	f241 0254 	movw	r2, #4180	; 0x1054
   a:	5899      	ldr	r1, [r3, r2]
   c:	f364 210c 	bfi	r1, r4, #8, #5
  10:	5099      	str	r1, [r3, r2]
  12:	5899      	ldr	r1, [r3, r2]
  14:	7804      	ldrb	r4, [r0, #0]
  16:	f364 0105 	bfi	r1, r4, #0, #6
  1a:	5099      	str	r1, [r3, r2]
  1c:	5899      	ldr	r1, [r3, r2]
  1e:	f36f 314d 	bfc	r1, #13, #1
  22:	5099      	str	r1, [r3, r2]
  24:	f241 01b0 	movw	r1, #4272	; 0x10b0
  28:	8905      	ldrh	r5, [r0, #8]
  2a:	585c      	ldr	r4, [r3, r1]
  2c:	f365 040f 	bfi	r4, r5, #0, #16
  30:	505c      	str	r4, [r3, r1]
  32:	f241 0158 	movw	r1, #4184	; 0x1058
  36:	f8d0 4002 	ldr.w	r4, [r0, #2]
  3a:	505c      	str	r4, [r3, r1]
  3c:	f241 015c 	movw	r1, #4188	; 0x105c
  40:	7985      	ldrb	r5, [r0, #6]
  42:	585c      	ldr	r4, [r3, r1]
  44:	f365 0404 	bfi	r4, r5, #0, #5
  48:	505c      	str	r4, [r3, r1]
  4a:	5899      	ldr	r1, [r3, r2]
  4c:	f36f 11c7 	bfc	r1, #7, #1
  50:	5099      	str	r1, [r3, r2]
  52:	5899      	ldr	r1, [r3, r2]
  54:	f041 0140 	orr.w	r1, r1, #64	; 0x40
  58:	5099      	str	r1, [r3, r2]
  5a:	490a      	ldr	r1, [pc, #40]	; (84 <.LCFI0+0x82>)
  5c:	460a      	mov	r2, r1
  5e:	680c      	ldr	r4, [r1, #0]
  60:	0664      	lsls	r4, r4, #25
  62:	d4fc      	bmi.n	5e <.LCFI0+0x5c>
  64:	6811      	ldr	r1, [r2, #0]
  66:	0049      	lsls	r1, r1, #1
  68:	d5fc      	bpl.n	64 <.LCFI0+0x62>
  6a:	f241 01b0 	movw	r1, #4272	; 0x10b0
  6e:	585b      	ldr	r3, [r3, r1]
  70:	f3c3 4305 	ubfx	r3, r3, #16, #6
  74:	72c3      	strb	r3, [r0, #11]
  76:	6813      	ldr	r3, [r2, #0]
  78:	f3c3 6305 	ubfx	r3, r3, #24, #6
  7c:	7283      	strb	r3, [r0, #10]
  7e:	bd30      	pop	{r4, r5, pc}
  80:	00000000 	.word	0x00000000
  84:	00001054 	.word	0x00001054

Disassembly of section .text.hal_bt_gen_ch_idx_by_csa2:

00000000 <hal_bt_gen_ch_idx_by_csa2>:
   0:	b530      	push	{r4, r5, lr}

00000002 <.LCFI1>:
   2:	7901      	ldrb	r1, [r0, #4]
   4:	4b3d      	ldr	r3, [pc, #244]	; (fc <.LVL5+0x72>)
   6:	2900      	cmp	r1, #0
   8:	d03f      	beq.n	8a <.LVL5>
   a:	2901      	cmp	r1, #1
   c:	d057      	beq.n	be <.LVL5+0x34>
   e:	f241 0254 	movw	r2, #4180	; 0x1054
  12:	5899      	ldr	r1, [r3, r2]
  14:	f041 0180 	orr.w	r1, r1, #128	; 0x80
  18:	5099      	str	r1, [r3, r2]
  1a:	f241 0158 	movw	r1, #4184	; 0x1058
  1e:	585c      	ldr	r4, [r3, r1]
  20:	f36f 040f 	bfc	r4, #0, #16
  24:	505c      	str	r4, [r3, r1]
  26:	585c      	ldr	r4, [r3, r1]
  28:	f36f 441f 	bfc	r4, #16, #16
  2c:	505c      	str	r4, [r3, r1]
  2e:	f241 015c 	movw	r1, #4188	; 0x105c
  32:	585c      	ldr	r4, [r3, r1]
  34:	f36f 0404 	bfc	r4, #0, #5
  38:	505c      	str	r4, [r3, r1]
  3a:	5899      	ldr	r1, [r3, r2]
  3c:	f041 0140 	orr.w	r1, r1, #64	; 0x40
  40:	5099      	str	r1, [r3, r2]
  42:	492f      	ldr	r1, [pc, #188]	; (100 <.LVL5+0x76>)
  44:	460a      	mov	r2, r1
  46:	680c      	ldr	r4, [r1, #0]
  48:	0665      	lsls	r5, r4, #25
  4a:	d4fc      	bmi.n	46 <.LCFI1+0x44>
  4c:	6811      	ldr	r1, [r2, #0]
  4e:	004c      	lsls	r4, r1, #1
  50:	d5fc      	bpl.n	4c <.LCFI1+0x4a>
  52:	f241 0158 	movw	r1, #4184	; 0x1058
  56:	f8d0 4005 	ldr.w	r4, [r0, #5]
  5a:	505c      	str	r4, [r3, r1]
  5c:	f241 015c 	movw	r1, #4188	; 0x105c
  60:	7a44      	ldrb	r4, [r0, #9]
  62:	5858      	ldr	r0, [r3, r1]

00000064 <.LVL2>:
  64:	f364 0004 	bfi	r0, r4, #0, #5
  68:	5058      	str	r0, [r3, r1]
  6a:	6811      	ldr	r1, [r2, #0]
  6c:	f041 0140 	orr.w	r1, r1, #64	; 0x40
  70:	6011      	str	r1, [r2, #0]
  72:	6811      	ldr	r1, [r2, #0]
  74:	0648      	lsls	r0, r1, #25
  76:	d4fc      	bmi.n	72 <.LVL2+0xe>
  78:	6811      	ldr	r1, [r2, #0]
  7a:	0049      	lsls	r1, r1, #1
  7c:	d5fc      	bpl.n	78 <.LVL2+0x14>
  7e:	f241 02b0 	movw	r2, #4272	; 0x10b0
  82:	5898      	ldr	r0, [r3, r2]

00000084 <.LVL3>:
  84:	f3c0 4005 	ubfx	r0, r0, #16, #6

00000088 <.LVL4>:
  88:	bd30      	pop	{r4, r5, pc}

0000008a <.LVL5>:
  8a:	f503 5283 	add.w	r2, r3, #4192	; 0x1060
  8e:	8805      	ldrh	r5, [r0, #0]
  90:	6814      	ldr	r4, [r2, #0]
  92:	f365 040f 	bfi	r4, r5, #0, #16
  96:	6014      	str	r4, [r2, #0]
  98:	6814      	ldr	r4, [r2, #0]
  9a:	8845      	ldrh	r5, [r0, #2]
  9c:	f365 441f 	bfi	r4, r5, #16, #16
  a0:	6014      	str	r4, [r2, #0]
  a2:	f241 0254 	movw	r2, #4180	; 0x1054
  a6:	589c      	ldr	r4, [r3, r2]
  a8:	f361 344d 	bfi	r4, r1, #13, #1
  ac:	509c      	str	r4, [r3, r2]
  ae:	f241 02b0 	movw	r2, #4272	; 0x10b0
  b2:	8944      	ldrh	r4, [r0, #10]
  b4:	5899      	ldr	r1, [r3, r2]
  b6:	f364 010f 	bfi	r1, r4, #0, #16
  ba:	5099      	str	r1, [r3, r2]
  bc:	e7a7      	b.n	e <.LCFI1+0xc>
  be:	f241 2254 	movw	r2, #4692	; 0x1254
  c2:	8804      	ldrh	r4, [r0, #0]
  c4:	5899      	ldr	r1, [r3, r2]
  c6:	f364 411f 	bfi	r1, r4, #16, #16
  ca:	5099      	str	r1, [r3, r2]
  cc:	f241 2258 	movw	r2, #4696	; 0x1258
  d0:	8844      	ldrh	r4, [r0, #2]
  d2:	5899      	ldr	r1, [r3, r2]
  d4:	f364 010f 	bfi	r1, r4, #0, #16
  d8:	5099      	str	r1, [r3, r2]
  da:	5899      	ldr	r1, [r3, r2]
  dc:	f441 21e0 	orr.w	r1, r1, #458752	; 0x70000
  e0:	5099      	str	r1, [r3, r2]
  e2:	f241 0154 	movw	r1, #4180	; 0x1054
  e6:	585a      	ldr	r2, [r3, r1]
  e8:	f442 5200 	orr.w	r2, r2, #8192	; 0x2000
  ec:	505a      	str	r2, [r3, r1]
  ee:	f241 02bc 	movw	r2, #4284	; 0x10bc
  f2:	8944      	ldrh	r4, [r0, #10]
  f4:	5899      	ldr	r1, [r3, r2]
  f6:	f364 411f 	bfi	r1, r4, #16, #16
  fa:	e7de      	b.n	ba <.LVL5+0x30>
  fc:	00000000 	.word	0x00000000
 100:	00001054 	.word	0x00001054

ble_hal_clk.o:     file format elf32-littlearm


Disassembly of section .text.bt_hal_read_clkn_and_nphase:

00000000 <bt_hal_read_clkn_and_nphase>:
   0:	b530      	push	{r4, r5, lr}

00000002 <.LBB24>:
   2:	4b0c      	ldr	r3, [pc, #48]	; (34 <.LBE26+0x6>)
   4:	f641 2414 	movw	r4, #6676	; 0x1a14
   8:	591a      	ldr	r2, [r3, r4]

0000000a <.LBE24>:
   a:	f042 0205 	orr.w	r2, r2, #5

0000000e <.LVL2>:
   e:	511a      	str	r2, [r3, r4]
  10:	4a09      	ldr	r2, [pc, #36]	; (38 <.LBE26+0xa>)

00000012 <.LVL3>:
  12:	4614      	mov	r4, r2

00000014 <.LVL4>:
  14:	6815      	ldr	r5, [r2, #0]
  16:	076d      	lsls	r5, r5, #29
  18:	d4fc      	bmi.n	14 <.LVL4>
  1a:	6822      	ldr	r2, [r4, #0]
  1c:	07d2      	lsls	r2, r2, #31
  1e:	d4fc      	bmi.n	1a <.LVL4+0x6>
  20:	f641 220c 	movw	r2, #6668	; 0x1a0c
  24:	589a      	ldr	r2, [r3, r2]
  26:	800a      	strh	r2, [r1, #0]

00000028 <.LBB26>:
  28:	f641 2208 	movw	r2, #6664	; 0x1a08
  2c:	589b      	ldr	r3, [r3, r2]

0000002e <.LBE26>:
  2e:	6003      	str	r3, [r0, #0]
  30:	bd30      	pop	{r4, r5, pc}
  32:	bf00      	nop
  34:	00000000 	.word	0x00000000
  38:	00001a14 	.word	0x00001a14

Disassembly of section .text.bt_hal_read_clkn:

00000000 <bt_hal_read_clkn>:
   0:	f641 2114 	movw	r1, #6676	; 0x1a14
   4:	4b06      	ldr	r3, [pc, #24]	; (20 <.LBE28+0x4>)
   6:	5a5a      	ldrh	r2, [r3, r1]
   8:	f042 0201 	orr.w	r2, r2, #1
   c:	525a      	strh	r2, [r3, r1]
   e:	4905      	ldr	r1, [pc, #20]	; (24 <.LBE28+0x8>)
  10:	680a      	ldr	r2, [r1, #0]
  12:	07d2      	lsls	r2, r2, #31
  14:	d4fc      	bmi.n	10 <bt_hal_read_clkn+0x10>

00000016 <.LBB28>:
  16:	f641 2208 	movw	r2, #6664	; 0x1a08
  1a:	5898      	ldr	r0, [r3, r2]

0000001c <.LBE28>:
  1c:	4770      	bx	lr
  1e:	bf00      	nop
  20:	00000000 	.word	0x00000000
  24:	00001a14 	.word	0x00001a14

Disassembly of section .text.bt_hal_read_clkn_llbyte:

00000000 <bt_hal_read_clkn_llbyte>:
   0:	b508      	push	{r3, lr}

00000002 <.LCFI1>:
   2:	f7ff fffe 	bl	0 <bt_hal_read_clkn_llbyte>

00000006 <.LVL9>:
   6:	b2c0      	uxtb	r0, r0

00000008 <.LVL10>:
   8:	bd08      	pop	{r3, pc}

Disassembly of section .text.bt_hal_read_clkb:

00000000 <bt_hal_read_clkb>:
   0:	f641 2214 	movw	r2, #6676	; 0x1a14
   4:	4905      	ldr	r1, [pc, #20]	; (1c <.LBE30+0x2>)
   6:	5a8b      	ldrh	r3, [r1, r2]
   8:	f043 0302 	orr.w	r3, r3, #2
   c:	528b      	strh	r3, [r1, r2]
   e:	4a04      	ldr	r2, [pc, #16]	; (20 <.LBE30+0x6>)
  10:	6813      	ldr	r3, [r2, #0]
  12:	079b      	lsls	r3, r3, #30
  14:	d4fc      	bmi.n	10 <bt_hal_read_clkb+0x10>

00000016 <.LBB30>:
  16:	4b03      	ldr	r3, [pc, #12]	; (24 <.LBE30+0xa>)

00000018 <.LVL12>:
  18:	6818      	ldr	r0, [r3, #0]

0000001a <.LBE30>:
  1a:	4770      	bx	lr
  1c:	00000000 	.word	0x00000000
  20:	00001a14 	.word	0x00001a14
  24:	00001a00 	.word	0x00001a00

Disassembly of section .text.bt_hal_read_clkb_phase:

00000000 <bt_hal_read_clkb_phase>:
   0:	f641 2114 	movw	r1, #6676	; 0x1a14
   4:	4b06      	ldr	r3, [pc, #24]	; (20 <bt_hal_read_clkb_phase+0x20>)
   6:	5a5a      	ldrh	r2, [r3, r1]
   8:	f042 0208 	orr.w	r2, r2, #8
   c:	525a      	strh	r2, [r3, r1]
   e:	4905      	ldr	r1, [pc, #20]	; (24 <bt_hal_read_clkb_phase+0x24>)
  10:	680a      	ldr	r2, [r1, #0]
  12:	0712      	lsls	r2, r2, #28
  14:	d4fc      	bmi.n	10 <bt_hal_read_clkb_phase+0x10>
  16:	f641 2204 	movw	r2, #6660	; 0x1a04
  1a:	5898      	ldr	r0, [r3, r2]
  1c:	b280      	uxth	r0, r0
  1e:	4770      	bx	lr
  20:	00000000 	.word	0x00000000
  24:	00001a14 	.word	0x00001a14

Disassembly of section .text.bt_hal_read_clkn_phase:

00000000 <bt_hal_read_clkn_phase>:
   0:	f641 2114 	movw	r1, #6676	; 0x1a14
   4:	4b06      	ldr	r3, [pc, #24]	; (20 <bt_hal_read_clkn_phase+0x20>)
   6:	5a5a      	ldrh	r2, [r3, r1]
   8:	f042 0204 	orr.w	r2, r2, #4
   c:	525a      	strh	r2, [r3, r1]
   e:	4905      	ldr	r1, [pc, #20]	; (24 <bt_hal_read_clkn_phase+0x24>)
  10:	680a      	ldr	r2, [r1, #0]
  12:	0752      	lsls	r2, r2, #29
  14:	d4fc      	bmi.n	10 <bt_hal_read_clkn_phase+0x10>
  16:	f641 220c 	movw	r2, #6668	; 0x1a0c
  1a:	5898      	ldr	r0, [r3, r2]
  1c:	b280      	uxth	r0, r0
  1e:	4770      	bx	lr
  20:	00000000 	.word	0x00000000
  24:	00001a14 	.word	0x00001a14

Disassembly of section .text.bt_hal_read_clknu:

00000000 <bt_hal_read_clknu>:
   0:	f641 2114 	movw	r1, #6676	; 0x1a14
   4:	4b0a      	ldr	r3, [pc, #40]	; (30 <.LVL23>)
   6:	585a      	ldr	r2, [r3, r1]

00000008 <.LBE32>:
   8:	f042 0205 	orr.w	r2, r2, #5

0000000c <.LVL18>:
   c:	505a      	str	r2, [r3, r1]
   e:	4a09      	ldr	r2, [pc, #36]	; (34 <.LVL23+0x4>)

00000010 <.LVL19>:
  10:	4611      	mov	r1, r2

00000012 <.LVL20>:
  12:	6810      	ldr	r0, [r2, #0]
  14:	0740      	lsls	r0, r0, #29
  16:	d4fc      	bmi.n	12 <.LVL20>
  18:	680a      	ldr	r2, [r1, #0]
  1a:	07d2      	lsls	r2, r2, #31
  1c:	d4fc      	bmi.n	18 <.LVL20+0x6>
  1e:	f641 220c 	movw	r2, #6668	; 0x1a0c
  22:	5899      	ldr	r1, [r3, r2]

00000024 <.LBB34>:
  24:	f641 2208 	movw	r2, #6664	; 0x1a08

00000028 <.LBE34>:
  28:	b289      	uxth	r1, r1

0000002a <.LBB37>:
  2a:	5898      	ldr	r0, [r3, r2]

0000002c <.LBE37>:
  2c:	f7ff bffe 	b.w	0 <BLE_CLK_TransClkClkphaseToClku>

00000030 <.LVL23>:
  30:	00000000 	.word	0x00000000
  34:	00001a14 	.word	0x00001a14

Disassembly of section .text.hal_clk_restore_B_CLK_and_Phase:

00000000 <hal_clk_restore_B_CLK_and_Phase>:
   0:	4b0a      	ldr	r3, [pc, #40]	; (2c <.LVL29+0x10>)
   2:	f503 52d0 	add.w	r2, r3, #6656	; 0x1a00
   6:	6010      	str	r0, [r2, #0]
   8:	f641 2204 	movw	r2, #6660	; 0x1a04
   c:	5299      	strh	r1, [r3, r2]

0000000e <.LBB38>:
   e:	f641 2110 	movw	r1, #6672	; 0x1a10

00000012 <.LVL26>:
  12:	585a      	ldr	r2, [r3, r1]

00000014 <.LBE38>:
  14:	f442 42e0 	orr.w	r2, r2, #28672	; 0x7000

00000018 <.LVL28>:
  18:	505a      	str	r2, [r3, r1]
  1a:	4b05      	ldr	r3, [pc, #20]	; (30 <.LVL29+0x14>)

0000001c <.LVL29>:
  1c:	681a      	ldr	r2, [r3, #0]
  1e:	0491      	lsls	r1, r2, #18
  20:	d4fc      	bmi.n	1c <.LVL29>
  22:	681a      	ldr	r2, [r3, #0]
  24:	04d2      	lsls	r2, r2, #19
  26:	d4f9      	bmi.n	1c <.LVL29>
  28:	4770      	bx	lr
  2a:	bf00      	nop
  2c:	00000000 	.word	0x00000000
  30:	00001a10 	.word	0x00001a10

Disassembly of section .text.hal_clk_read_CLKN:

00000000 <hal_clk_read_CLKN>:
   0:	f641 2114 	movw	r1, #6676	; 0x1a14
   4:	4b06      	ldr	r3, [pc, #24]	; (20 <.LBE40+0x4>)
   6:	5a5a      	ldrh	r2, [r3, r1]
   8:	f042 0201 	orr.w	r2, r2, #1
   c:	525a      	strh	r2, [r3, r1]
   e:	4905      	ldr	r1, [pc, #20]	; (24 <.LBE40+0x8>)
  10:	680a      	ldr	r2, [r1, #0]
  12:	07d2      	lsls	r2, r2, #31
  14:	d4fc      	bmi.n	10 <hal_clk_read_CLKN+0x10>

00000016 <.LBB40>:
  16:	f641 2208 	movw	r2, #6664	; 0x1a08
  1a:	5898      	ldr	r0, [r3, r2]

0000001c <.LBE40>:
  1c:	4770      	bx	lr
  1e:	bf00      	nop
  20:	00000000 	.word	0x00000000
  24:	00001a14 	.word	0x00001a14

Disassembly of section .text.hal_clk_read_CLKB:

00000000 <hal_clk_read_CLKB>:
   0:	f641 2214 	movw	r2, #6676	; 0x1a14
   4:	4905      	ldr	r1, [pc, #20]	; (1c <.LBE42+0x2>)
   6:	5a8b      	ldrh	r3, [r1, r2]
   8:	f043 0302 	orr.w	r3, r3, #2
   c:	528b      	strh	r3, [r1, r2]
   e:	4a04      	ldr	r2, [pc, #16]	; (20 <.LBE42+0x6>)
  10:	6813      	ldr	r3, [r2, #0]
  12:	079b      	lsls	r3, r3, #30
  14:	d4fc      	bmi.n	10 <hal_clk_read_CLKB+0x10>

00000016 <.LBB42>:
  16:	4b03      	ldr	r3, [pc, #12]	; (24 <.LBE42+0xa>)

00000018 <.LVL33>:
  18:	6818      	ldr	r0, [r3, #0]

0000001a <.LBE42>:
  1a:	4770      	bx	lr
  1c:	00000000 	.word	0x00000000
  20:	00001a14 	.word	0x00001a14
  24:	00001a00 	.word	0x00001a00

Disassembly of section .text.hal_clk_offset_cal:

00000000 <hal_clk_offset_cal>:
   0:	b510      	push	{r4, lr}

00000002 <.LCFI2>:
   2:	4b09      	ldr	r3, [pc, #36]	; (28 <.LBE44+0xc>)
   4:	f641 2414 	movw	r4, #6676	; 0x1a14
   8:	5b1a      	ldrh	r2, [r3, r4]
   a:	f042 0240 	orr.w	r2, r2, #64	; 0x40
   e:	531a      	strh	r2, [r3, r4]
  10:	4c06      	ldr	r4, [pc, #24]	; (2c <.LBE44+0x10>)
  12:	6822      	ldr	r2, [r4, #0]
  14:	0652      	lsls	r2, r2, #25
  16:	d4fc      	bmi.n	12 <.LCFI2+0x10>

00000018 <.LBB44>:
  18:	4a05      	ldr	r2, [pc, #20]	; (30 <.LBE44+0x14>)

0000001a <.LVL37>:
  1a:	6812      	ldr	r2, [r2, #0]

0000001c <.LBE44>:
  1c:	6002      	str	r2, [r0, #0]
  1e:	f641 2204 	movw	r2, #6660	; 0x1a04
  22:	589b      	ldr	r3, [r3, r2]
  24:	800b      	strh	r3, [r1, #0]
  26:	bd10      	pop	{r4, pc}
  28:	00000000 	.word	0x00000000
  2c:	00001a14 	.word	0x00001a14
  30:	00001a00 	.word	0x00001a00

Disassembly of section .text.hal_clk_Disable_Auto_Alignment:

00000000 <hal_clk_Disable_Auto_Alignment>:
   0:	4a03      	ldr	r2, [pc, #12]	; (10 <hal_clk_Disable_Auto_Alignment+0x10>)
   2:	f641 2318 	movw	r3, #6680	; 0x1a18
   6:	5ad1      	ldrh	r1, [r2, r3]
   8:	f360 2108 	bfi	r1, r0, #8, #1
   c:	52d1      	strh	r1, [r2, r3]
   e:	4770      	bx	lr
  10:	00000000 	.word	0x00000000

Disassembly of section .text.hal_clk_PKH_sync_en:

00000000 <hal_clk_PKH_sync_en>:
   0:	4a03      	ldr	r2, [pc, #12]	; (10 <hal_clk_PKH_sync_en+0x10>)
   2:	f641 2318 	movw	r3, #6680	; 0x1a18
   6:	5ad1      	ldrh	r1, [r2, r3]
   8:	f360 2149 	bfi	r1, r0, #9, #1
   c:	52d1      	strh	r1, [r2, r3]
   e:	4770      	bx	lr
  10:	00000000 	.word	0x00000000

Disassembly of section .text.hal_clk_slave_restore_CLKB:

00000000 <hal_clk_slave_restore_CLKB>:
   0:	b508      	push	{r3, lr}

00000002 <.LCFI3>:
   2:	f7ff fffe 	bl	0 <hal_clk_slave_restore_CLKB>

00000006 <.LVL42>:
   6:	4b06      	ldr	r3, [pc, #24]	; (20 <.LCFI5+0x4>)
   8:	681b      	ldr	r3, [r3, #0]
   a:	f013 0f06 	tst.w	r3, #6
   e:	d005      	beq.n	1c <.LCFI5>
  10:	2140      	movs	r1, #64	; 0x40
  12:	2000      	movs	r0, #0

00000014 <.LVL43>:
  14:	e8bd 4008 	ldmia.w	sp!, {r3, lr}

00000018 <.LCFI4>:
  18:	f7ff bffe 	b.w	0 <hal_bt_sys_clear_interrupts>

0000001c <.LCFI5>:
  1c:	bd08      	pop	{r3, pc}
  1e:	bf00      	nop
  20:	00001b20 	.word	0x00001b20

Disassembly of section .text.vMaster_Restore_CLK:

00000000 <vMaster_Restore_CLK>:
   0:	4907      	ldr	r1, [pc, #28]	; (20 <.LVL48+0x10>)
   2:	f641 2210 	movw	r2, #6672	; 0x1a10
   6:	588b      	ldr	r3, [r1, r2]

00000008 <.LBE46>:
   8:	f443 7340 	orr.w	r3, r3, #768	; 0x300

0000000c <.LVL47>:
   c:	508b      	str	r3, [r1, r2]
   e:	4b05      	ldr	r3, [pc, #20]	; (24 <.LVL48+0x14>)

00000010 <.LVL48>:
  10:	681a      	ldr	r2, [r3, #0]
  12:	05d1      	lsls	r1, r2, #23
  14:	d4fc      	bmi.n	10 <.LVL48>
  16:	681a      	ldr	r2, [r3, #0]
  18:	0592      	lsls	r2, r2, #22
  1a:	d4f9      	bmi.n	10 <.LVL48>
  1c:	4770      	bx	lr
  1e:	bf00      	nop
  20:	00000000 	.word	0x00000000
  24:	00001a10 	.word	0x00001a10

Disassembly of section .text.hal_clk_slave_backup_CLKB:

00000000 <hal_clk_slave_backup_CLKB>:
   0:	b513      	push	{r0, r1, r4, lr}

00000002 <.LCFI6>:
   2:	4604      	mov	r4, r0
   4:	f10d 0102 	add.w	r1, sp, #2
   8:	a801      	add	r0, sp, #4

0000000a <.LVL50>:
   a:	f7ff fffe 	bl	0 <hal_clk_slave_backup_CLKB>

0000000e <.LVL51>:
   e:	f8bd 2002 	ldrh.w	r2, [sp, #2]
  12:	9b01      	ldr	r3, [sp, #4]
  14:	0411      	lsls	r1, r2, #16
  16:	f023 4370 	bic.w	r3, r3, #4026531840	; 0xf0000000
  1a:	bf43      	ittte	mi
  1c:	f202 42e2 	addwmi	r2, r2, #1250	; 0x4e2
  20:	f103 33ff 	addmi.w	r3, r3, #4294967295
  24:	f8a4 2044 	strhmi.w	r2, [r4, #68]	; 0x44
  28:	f8a4 2044 	strhpl.w	r2, [r4, #68]	; 0x44
  2c:	64a3      	str	r3, [r4, #72]	; 0x48
  2e:	b002      	add	sp, #8

00000030 <.LCFI7>:
  30:	bd10      	pop	{r4, pc}

ble_hal_fal.o:     file format elf32-littlearm


Disassembly of section .text.hal_fal_empty_list_search:

00000000 <hal_fal_empty_list_search>:
   0:	b570      	push	{r4, r5, r6, lr}

00000002 <.LCFI0>:
   2:	4b11      	ldr	r3, [pc, #68]	; (48 <.LVL8+0x2>)
   4:	6819      	ldr	r1, [r3, #0]
   6:	4605      	mov	r5, r0
   8:	2200      	movs	r2, #0

0000000a <.LVL1>:
   a:	0054      	lsls	r4, r2, #1
   c:	fa21 f604 	lsr.w	r6, r1, r4
  10:	07b6      	lsls	r6, r6, #30
  12:	b2d0      	uxtb	r0, r2

00000014 <.LVL2>:
  14:	d113      	bne.n	3e <.LVL6>
  16:	2dff      	cmp	r5, #255	; 0xff

00000018 <.LVL3>:
  18:	bf02      	ittt	eq
  1a:	789a      	ldrbeq	r2, [r3, #2]
  1c:	f042 0201 	orreq.w	r2, r2, #1
  20:	709a      	strbeq	r2, [r3, #2]
  22:	f04f 0203 	mov.w	r2, #3
  26:	fa02 f504 	lsl.w	r5, r2, r4
  2a:	681a      	ldr	r2, [r3, #0]
  2c:	bf0c      	ite	eq
  2e:	2103      	moveq	r1, #3
  30:	2101      	movne	r1, #1

00000032 <.LVL4>:
  32:	ea22 0205 	bic.w	r2, r2, r5
  36:	40a1      	lsls	r1, r4

00000038 <.LVL5>:
  38:	430a      	orrs	r2, r1
  3a:	601a      	str	r2, [r3, #0]
  3c:	bd70      	pop	{r4, r5, r6, pc}

0000003e <.LVL6>:
  3e:	3201      	adds	r2, #1

00000040 <.LVL7>:
  40:	2a08      	cmp	r2, #8
  42:	d1e2      	bne.n	a <.LVL1>
  44:	4610      	mov	r0, r2

00000046 <.LVL8>:
  46:	bd70      	pop	{r4, r5, r6, pc}
  48:	00000000 	.word	0x00000000

Disassembly of section .text.hal_fal_type_set:

00000000 <hal_fal_type_set>:
   0:	2807      	cmp	r0, #7
   2:	d80c      	bhi.n	1e <hal_fal_type_set+0x1e>
   4:	e8df f000 	tbb	[pc, r0]
   8:	18120c04 	.word	0x18120c04
   c:	302a241e 	.word	0x302a241e
  10:	4b18      	ldr	r3, [pc, #96]	; (74 <hal_fal_type_set+0x74>)
  12:	f8d3 2f64 	ldr.w	r2, [r3, #3940]	; 0xf64
  16:	f361 4210 	bfi	r2, r1, #16, #1
  1a:	f8c3 2f64 	str.w	r2, [r3, #3940]	; 0xf64
  1e:	4770      	bx	lr
  20:	4b14      	ldr	r3, [pc, #80]	; (74 <hal_fal_type_set+0x74>)
  22:	f8d3 2f64 	ldr.w	r2, [r3, #3940]	; 0xf64
  26:	f361 4251 	bfi	r2, r1, #17, #1
  2a:	e7f6      	b.n	1a <hal_fal_type_set+0x1a>
  2c:	4b11      	ldr	r3, [pc, #68]	; (74 <hal_fal_type_set+0x74>)
  2e:	f8d3 2f64 	ldr.w	r2, [r3, #3940]	; 0xf64
  32:	f361 4292 	bfi	r2, r1, #18, #1
  36:	e7f0      	b.n	1a <hal_fal_type_set+0x1a>
  38:	4b0e      	ldr	r3, [pc, #56]	; (74 <hal_fal_type_set+0x74>)
  3a:	f8d3 2f64 	ldr.w	r2, [r3, #3940]	; 0xf64
  3e:	f361 42d3 	bfi	r2, r1, #19, #1
  42:	e7ea      	b.n	1a <hal_fal_type_set+0x1a>
  44:	4b0b      	ldr	r3, [pc, #44]	; (74 <hal_fal_type_set+0x74>)
  46:	f8d3 2f64 	ldr.w	r2, [r3, #3940]	; 0xf64
  4a:	f361 5214 	bfi	r2, r1, #20, #1
  4e:	e7e4      	b.n	1a <hal_fal_type_set+0x1a>
  50:	4b08      	ldr	r3, [pc, #32]	; (74 <hal_fal_type_set+0x74>)
  52:	f8d3 2f64 	ldr.w	r2, [r3, #3940]	; 0xf64
  56:	f361 5255 	bfi	r2, r1, #21, #1
  5a:	e7de      	b.n	1a <hal_fal_type_set+0x1a>
  5c:	4b05      	ldr	r3, [pc, #20]	; (74 <hal_fal_type_set+0x74>)
  5e:	f8d3 2f64 	ldr.w	r2, [r3, #3940]	; 0xf64
  62:	f361 5296 	bfi	r2, r1, #22, #1
  66:	e7d8      	b.n	1a <hal_fal_type_set+0x1a>
  68:	4b02      	ldr	r3, [pc, #8]	; (74 <hal_fal_type_set+0x74>)
  6a:	f8d3 2f64 	ldr.w	r2, [r3, #3940]	; 0xf64
  6e:	f361 52d7 	bfi	r2, r1, #23, #1
  72:	e7d2      	b.n	1a <hal_fal_type_set+0x1a>
  74:	00000000 	.word	0x00000000

Disassembly of section .text.hal_fal_add_device:

00000000 <hal_fal_add_device>:
   0:	2901      	cmp	r1, #1
   2:	b570      	push	{r4, r5, r6, lr}

00000004 <.LCFI1>:
   4:	4605      	mov	r5, r0
   6:	460c      	mov	r4, r1
   8:	d903      	bls.n	12 <.LVL12>
   a:	29ff      	cmp	r1, #255	; 0xff
   c:	d015      	beq.n	3a <.LVL20>

0000000e <.LVL11>:
   e:	2000      	movs	r0, #0
  10:	bd70      	pop	{r4, r5, r6, pc}

00000012 <.LVL12>:
  12:	4608      	mov	r0, r1

00000014 <.LVL13>:
  14:	f7ff fffe 	bl	0 <hal_fal_add_device>

00000018 <.LVL14>:
  18:	2807      	cmp	r0, #7
  1a:	d8f8      	bhi.n	e <.LVL11>
  1c:	b203      	sxth	r3, r0
  1e:	eb03 0343 	add.w	r3, r3, r3, lsl #1
  22:	005b      	lsls	r3, r3, #1
  24:	4a0b      	ldr	r2, [pc, #44]	; (54 <.LVL24+0x2>)
  26:	682e      	ldr	r6, [r5, #0]
  28:	509e      	str	r6, [r3, r2]
  2a:	1899      	adds	r1, r3, r2

0000002c <.LVL16>:
  2c:	88ab      	ldrh	r3, [r5, #4]
  2e:	808b      	strh	r3, [r1, #4]
  30:	4621      	mov	r1, r4

00000032 <.LVL17>:
  32:	f7ff fffe 	bl	0 <hal_fal_add_device>

00000036 <.LVL18>:
  36:	2001      	movs	r0, #1

00000038 <.LVL19>:
  38:	bd70      	pop	{r4, r5, r6, pc}

0000003a <.LVL20>:
  3a:	4b07      	ldr	r3, [pc, #28]	; (58 <.LVL24+0x6>)
  3c:	789b      	ldrb	r3, [r3, #2]
  3e:	07db      	lsls	r3, r3, #31
  40:	d4f9      	bmi.n	36 <.LVL18>
  42:	4608      	mov	r0, r1

00000044 <.LVL21>:
  44:	f7ff fffe 	bl	0 <hal_fal_add_device>

00000048 <.LVL22>:
  48:	2807      	cmp	r0, #7
  4a:	bf8c      	ite	hi
  4c:	2000      	movhi	r0, #0

0000004e <.LVL23>:
  4e:	2001      	movls	r0, #1
  50:	bd70      	pop	{r4, r5, r6, pc}

00000052 <.LVL24>:
  52:	bf00      	nop
  54:	00000f00 	.word	0x00000f00
  58:	00000000 	.word	0x00000000

Disassembly of section .text.hal_fal_remove_device:

00000000 <hal_fal_remove_device>:
   0:	2901      	cmp	r1, #1
   2:	e92d 43f8 	stmdb	sp!, {r3, r4, r5, r6, r7, r8, r9, lr}

00000006 <.LCFI2>:
   6:	4680      	mov	r8, r0
   8:	d904      	bls.n	14 <.LVL28>
   a:	29ff      	cmp	r1, #255	; 0xff
   c:	d024      	beq.n	58 <.LVL35>

0000000e <.LVL26>:
   e:	2000      	movs	r0, #0

00000010 <.LVL27>:
  10:	e8bd 83f8 	ldmia.w	sp!, {r3, r4, r5, r6, r7, r8, r9, pc}

00000014 <.LVL28>:
  14:	4e1d      	ldr	r6, [pc, #116]	; (8c <.LVL37+0x26>)
  16:	f8df 9078 	ldr.w	r9, [pc, #120]	; 90 <.LVL37+0x2a>
  1a:	6837      	ldr	r7, [r6, #0]
  1c:	2500      	movs	r5, #0

0000001e <.LVL29>:
  1e:	fa27 f005 	lsr.w	r0, r7, r5
  22:	f000 0403 	and.w	r4, r0, #3
  26:	2c01      	cmp	r4, #1
  28:	d112      	bne.n	50 <.LVL34>
  2a:	eb05 0145 	add.w	r1, r5, r5, lsl #1
  2e:	f501 6170 	add.w	r1, r1, #3840	; 0xf00
  32:	2206      	movs	r2, #6
  34:	4449      	add	r1, r9
  36:	4640      	mov	r0, r8
  38:	f7ff fffe 	bl	0 <memcmp>

0000003c <.LVL31>:
  3c:	b940      	cbnz	r0, 50 <.LVL34>
  3e:	2303      	movs	r3, #3
  40:	fa03 f505 	lsl.w	r5, r3, r5
  44:	ea27 0505 	bic.w	r5, r7, r5
  48:	6035      	str	r5, [r6, #0]

0000004a <.LVL33>:
  4a:	2001      	movs	r0, #1
  4c:	e8bd 83f8 	ldmia.w	sp!, {r3, r4, r5, r6, r7, r8, r9, pc}

00000050 <.LVL34>:
  50:	3502      	adds	r5, #2
  52:	2d10      	cmp	r5, #16
  54:	d1e3      	bne.n	1e <.LVL29>
  56:	e7da      	b.n	e <.LVL26>

00000058 <.LVL35>:
  58:	4b0c      	ldr	r3, [pc, #48]	; (8c <.LVL37+0x26>)
  5a:	7898      	ldrb	r0, [r3, #2]

0000005c <.LVL36>:
  5c:	f010 0001 	ands.w	r0, r0, #1
  60:	d0d6      	beq.n	10 <.LVL27>
  62:	681c      	ldr	r4, [r3, #0]
  64:	2000      	movs	r0, #0

00000066 <.LVL37>:
  66:	fa24 f100 	lsr.w	r1, r4, r0
  6a:	f001 0203 	and.w	r2, r1, #3
  6e:	2a03      	cmp	r2, #3
  70:	d108      	bne.n	84 <.LVL37+0x1e>
  72:	4082      	lsls	r2, r0
  74:	ea24 0202 	bic.w	r2, r4, r2
  78:	601a      	str	r2, [r3, #0]
  7a:	789a      	ldrb	r2, [r3, #2]
  7c:	f36f 0200 	bfc	r2, #0, #1
  80:	709a      	strb	r2, [r3, #2]
  82:	e7e2      	b.n	4a <.LVL33>
  84:	3002      	adds	r0, #2
  86:	2810      	cmp	r0, #16
  88:	d1ed      	bne.n	66 <.LVL37>
  8a:	e7f6      	b.n	7a <.LVL37+0x14>
	...

Disassembly of section .text.hal_fal_pl_header_check_type_set:

00000000 <hal_fal_pl_header_check_type_set>:
   0:	4b32      	ldr	r3, [pc, #200]	; (cc <.LVL39+0x12>)
   2:	f8d3 2f60 	ldr.w	r2, [r3, #3936]	; 0xf60
   6:	f010 0101 	ands.w	r1, r0, #1
   a:	bf14      	ite	ne
   c:	f042 0201 	orrne.w	r2, r2, #1
  10:	f361 0200 	bfieq	r2, r1, #0, #1
  14:	f8c3 2f60 	str.w	r2, [r3, #3936]	; 0xf60
  18:	f8d3 2f60 	ldr.w	r2, [r3, #3936]	; 0xf60
  1c:	f010 0102 	ands.w	r1, r0, #2
  20:	bf14      	ite	ne
  22:	f042 0202 	orrne.w	r2, r2, #2
  26:	f361 0241 	bfieq	r2, r1, #1, #1
  2a:	f8c3 2f60 	str.w	r2, [r3, #3936]	; 0xf60
  2e:	f8d3 2f60 	ldr.w	r2, [r3, #3936]	; 0xf60
  32:	f010 0104 	ands.w	r1, r0, #4
  36:	bf14      	ite	ne
  38:	f042 0204 	orrne.w	r2, r2, #4
  3c:	f361 0282 	bfieq	r2, r1, #2, #1
  40:	f8c3 2f60 	str.w	r2, [r3, #3936]	; 0xf60
  44:	f8d3 2f60 	ldr.w	r2, [r3, #3936]	; 0xf60
  48:	f010 0108 	ands.w	r1, r0, #8
  4c:	bf14      	ite	ne
  4e:	f042 0208 	orrne.w	r2, r2, #8
  52:	f361 02c3 	bfieq	r2, r1, #3, #1
  56:	f8c3 2f60 	str.w	r2, [r3, #3936]	; 0xf60
  5a:	f8d3 2f60 	ldr.w	r2, [r3, #3936]	; 0xf60
  5e:	f010 0110 	ands.w	r1, r0, #16
  62:	bf14      	ite	ne
  64:	f042 0210 	orrne.w	r2, r2, #16
  68:	f361 1204 	bfieq	r2, r1, #4, #1
  6c:	f8c3 2f60 	str.w	r2, [r3, #3936]	; 0xf60
  70:	f8d3 2f60 	ldr.w	r2, [r3, #3936]	; 0xf60
  74:	f010 0120 	ands.w	r1, r0, #32
  78:	bf14      	ite	ne
  7a:	f042 0220 	orrne.w	r2, r2, #32
  7e:	f361 1245 	bfieq	r2, r1, #5, #1
  82:	f8c3 2f60 	str.w	r2, [r3, #3936]	; 0xf60
  86:	f8d3 2f60 	ldr.w	r2, [r3, #3936]	; 0xf60
  8a:	f010 0140 	ands.w	r1, r0, #64	; 0x40
  8e:	bf14      	ite	ne
  90:	f042 0240 	orrne.w	r2, r2, #64	; 0x40
  94:	f361 1286 	bfieq	r2, r1, #6, #1
  98:	f8c3 2f60 	str.w	r2, [r3, #3936]	; 0xf60
  9c:	f8d3 2f60 	ldr.w	r2, [r3, #3936]	; 0xf60
  a0:	f010 0180 	ands.w	r1, r0, #128	; 0x80
  a4:	bf14      	ite	ne
  a6:	f042 0280 	orrne.w	r2, r2, #128	; 0x80
  aa:	f361 12c7 	bfieq	r2, r1, #7, #1
  ae:	f8c3 2f60 	str.w	r2, [r3, #3936]	; 0xf60
  b2:	f8d3 2f60 	ldr.w	r2, [r3, #3936]	; 0xf60
  b6:	f410 7080 	ands.w	r0, r0, #256	; 0x100

000000ba <.LVL39>:
  ba:	bf14      	ite	ne
  bc:	f442 7280 	orrne.w	r2, r2, #256	; 0x100
  c0:	f360 2208 	bfieq	r2, r0, #8, #1
  c4:	f8c3 2f60 	str.w	r2, [r3, #3936]	; 0xf60
  c8:	4770      	bx	lr
  ca:	bf00      	nop
  cc:	00000000 	.word	0x00000000

Disassembly of section .text.hal_fal_pass_check:

00000000 <hal_fal_pass_check>:
   0:	4b09      	ldr	r3, [pc, #36]	; (28 <.LVL41+0x4>)
   2:	f8d3 0f60 	ldr.w	r0, [r3, #3936]	; 0xf60
   6:	f3c0 2040 	ubfx	r0, r0, #9, #1
   a:	b158      	cbz	r0, 24 <.LVL41>
   c:	f8d3 2f60 	ldr.w	r2, [r3, #3936]	; 0xf60
  10:	01d2      	lsls	r2, r2, #7
  12:	d406      	bmi.n	22 <hal_fal_pass_check+0x22>
  14:	f8d3 0f60 	ldr.w	r0, [r3, #3936]	; 0xf60
  18:	f3c0 6040 	ubfx	r0, r0, #25, #1
  1c:	f080 0001 	eor.w	r0, r0, #1
  20:	4770      	bx	lr
  22:	2000      	movs	r0, #0

00000024 <.LVL41>:
  24:	4770      	bx	lr
  26:	bf00      	nop
  28:	00000000 	.word	0x00000000

Disassembly of section .text.hal_fal_device_enable:

00000000 <hal_fal_device_enable>:
   0:	4b4a      	ldr	r3, [pc, #296]	; (12c <.LVL46+0x5a>)
   2:	2800      	cmp	r0, #0
   4:	d063      	beq.n	ce <.LVL45>
   6:	494a      	ldr	r1, [pc, #296]	; (130 <.LVL46+0x5e>)
   8:	780a      	ldrb	r2, [r1, #0]
   a:	f002 0003 	and.w	r0, r2, #3

0000000e <.LVL43>:
   e:	2801      	cmp	r0, #1
  10:	f8d3 0f64 	ldr.w	r0, [r3, #3940]	; 0xf64
  14:	bf0c      	ite	eq
  16:	f040 0001 	orreq.w	r0, r0, #1
  1a:	f36f 0000 	bfcne	r0, #0, #1
  1e:	f8c3 0f64 	str.w	r0, [r3, #3940]	; 0xf64
  22:	f002 000c 	and.w	r0, r2, #12
  26:	2804      	cmp	r0, #4
  28:	f8d3 0f64 	ldr.w	r0, [r3, #3940]	; 0xf64
  2c:	bf0c      	ite	eq
  2e:	f040 0002 	orreq.w	r0, r0, #2
  32:	f36f 0041 	bfcne	r0, #1, #1
  36:	f8c3 0f64 	str.w	r0, [r3, #3940]	; 0xf64
  3a:	f002 0030 	and.w	r0, r2, #48	; 0x30
  3e:	2810      	cmp	r0, #16
  40:	f8d3 0f64 	ldr.w	r0, [r3, #3940]	; 0xf64
  44:	bf0c      	ite	eq
  46:	f040 0004 	orreq.w	r0, r0, #4
  4a:	f36f 0082 	bfcne	r0, #2, #1
  4e:	f8c3 0f64 	str.w	r0, [r3, #3940]	; 0xf64
  52:	f002 02c0 	and.w	r2, r2, #192	; 0xc0
  56:	2a40      	cmp	r2, #64	; 0x40
  58:	f8d3 2f64 	ldr.w	r2, [r3, #3940]	; 0xf64
  5c:	bf0c      	ite	eq
  5e:	f042 0208 	orreq.w	r2, r2, #8
  62:	f36f 02c3 	bfcne	r2, #3, #1
  66:	f8c3 2f64 	str.w	r2, [r3, #3940]	; 0xf64
  6a:	784a      	ldrb	r2, [r1, #1]
  6c:	f002 0103 	and.w	r1, r2, #3
  70:	2901      	cmp	r1, #1
  72:	f8d3 1f64 	ldr.w	r1, [r3, #3940]	; 0xf64
  76:	bf0c      	ite	eq
  78:	f041 0110 	orreq.w	r1, r1, #16
  7c:	f36f 1104 	bfcne	r1, #4, #1
  80:	f8c3 1f64 	str.w	r1, [r3, #3940]	; 0xf64
  84:	f002 010c 	and.w	r1, r2, #12
  88:	2904      	cmp	r1, #4
  8a:	f8d3 1f64 	ldr.w	r1, [r3, #3940]	; 0xf64
  8e:	bf0c      	ite	eq
  90:	f041 0120 	orreq.w	r1, r1, #32
  94:	f36f 1145 	bfcne	r1, #5, #1
  98:	f8c3 1f64 	str.w	r1, [r3, #3940]	; 0xf64
  9c:	f002 0130 	and.w	r1, r2, #48	; 0x30
  a0:	2910      	cmp	r1, #16
  a2:	f8d3 1f64 	ldr.w	r1, [r3, #3940]	; 0xf64
  a6:	bf0c      	ite	eq
  a8:	f041 0140 	orreq.w	r1, r1, #64	; 0x40
  ac:	f36f 1186 	bfcne	r1, #6, #1
  b0:	f002 02c0 	and.w	r2, r2, #192	; 0xc0
  b4:	f8c3 1f64 	str.w	r1, [r3, #3940]	; 0xf64
  b8:	2a40      	cmp	r2, #64	; 0x40
  ba:	f8d3 2f64 	ldr.w	r2, [r3, #3940]	; 0xf64
  be:	bf0c      	ite	eq
  c0:	f042 0280 	orreq.w	r2, r2, #128	; 0x80
  c4:	f36f 12c7 	bfcne	r2, #7, #1

000000c8 <.LVL44>:
  c8:	f8c3 2f64 	str.w	r2, [r3, #3940]	; 0xf64
  cc:	4770      	bx	lr

000000ce <.LVL45>:
  ce:	f8d3 2f64 	ldr.w	r2, [r3, #3940]	; 0xf64

000000d2 <.LVL46>:
  d2:	f360 0200 	bfi	r2, r0, #0, #1
  d6:	f8c3 2f64 	str.w	r2, [r3, #3940]	; 0xf64
  da:	f8d3 2f64 	ldr.w	r2, [r3, #3940]	; 0xf64
  de:	f360 0241 	bfi	r2, r0, #1, #1
  e2:	f8c3 2f64 	str.w	r2, [r3, #3940]	; 0xf64
  e6:	f8d3 2f64 	ldr.w	r2, [r3, #3940]	; 0xf64
  ea:	f360 0282 	bfi	r2, r0, #2, #1
  ee:	f8c3 2f64 	str.w	r2, [r3, #3940]	; 0xf64
  f2:	f8d3 2f64 	ldr.w	r2, [r3, #3940]	; 0xf64
  f6:	f360 02c3 	bfi	r2, r0, #3, #1
  fa:	f8c3 2f64 	str.w	r2, [r3, #3940]	; 0xf64
  fe:	f8d3 2f64 	ldr.w	r2, [r3, #3940]	; 0xf64
 102:	f360 1204 	bfi	r2, r0, #4, #1
 106:	f8c3 2f64 	str.w	r2, [r3, #3940]	; 0xf64
 10a:	f8d3 2f64 	ldr.w	r2, [r3, #3940]	; 0xf64
 10e:	f360 1245 	bfi	r2, r0, #5, #1
 112:	f8c3 2f64 	str.w	r2, [r3, #3940]	; 0xf64
 116:	f8d3 2f64 	ldr.w	r2, [r3, #3940]	; 0xf64
 11a:	f360 1286 	bfi	r2, r0, #6, #1
 11e:	f8c3 2f64 	str.w	r2, [r3, #3940]	; 0xf64
 122:	f8d3 2f64 	ldr.w	r2, [r3, #3940]	; 0xf64
 126:	f360 12c7 	bfi	r2, r0, #7, #1
 12a:	e7cd      	b.n	c8 <.LVL44>
	...

Disassembly of section .text.hal_fal_initiator_device_set:

00000000 <hal_fal_initiator_device_set>:
   0:	4b05      	ldr	r3, [pc, #20]	; (18 <.LVL49+0xe>)
   2:	4602      	mov	r2, r0
   4:	6800      	ldr	r0, [r0, #0]

00000006 <.LVL48>:
   6:	6318      	str	r0, [r3, #48]	; 0x30
   8:	8892      	ldrh	r2, [r2, #4]

0000000a <.LVL49>:
   a:	869a      	strh	r2, [r3, #52]	; 0x34
   c:	6e5a      	ldr	r2, [r3, #100]	; 0x64
   e:	f361 6218 	bfi	r2, r1, #24, #1
  12:	665a      	str	r2, [r3, #100]	; 0x64
  14:	4770      	bx	lr
  16:	bf00      	nop
  18:	00000f00 	.word	0x00000f00

Disassembly of section .text.hal_fal_dir_adv_device_set:

00000000 <hal_fal_dir_adv_device_set>:
   0:	4b05      	ldr	r3, [pc, #20]	; (18 <hal_fal_dir_adv_device_set+0x18>)
   2:	6802      	ldr	r2, [r0, #0]
   4:	f8c3 2036 	str.w	r2, [r3, #54]	; 0x36
   8:	8882      	ldrh	r2, [r0, #4]
   a:	875a      	strh	r2, [r3, #58]	; 0x3a
   c:	6e5a      	ldr	r2, [r3, #100]	; 0x64
   e:	f361 6259 	bfi	r2, r1, #25, #1
  12:	665a      	str	r2, [r3, #100]	; 0x64
  14:	4770      	bx	lr
  16:	bf00      	nop
  18:	00000f00 	.word	0x00000f00

Disassembly of section .text.hal_fal_dir_adv_pass_check:

00000000 <hal_fal_dir_adv_pass_check>:
   0:	4b05      	ldr	r3, [pc, #20]	; (18 <.LVL52+0x4>)
   2:	f8d3 0f60 	ldr.w	r0, [r3, #3936]	; 0xf60
   6:	f3c0 2040 	ubfx	r0, r0, #9, #1
   a:	b118      	cbz	r0, 14 <.LVL52>
   c:	f8d3 0f60 	ldr.w	r0, [r3, #3936]	; 0xf60
  10:	f3c0 6040 	ubfx	r0, r0, #25, #1

00000014 <.LVL52>:
  14:	4770      	bx	lr
  16:	bf00      	nop
  18:	00000000 	.word	0x00000000

ble_hal_hop.o:     file format elf32-littlearm


Disassembly of section .text.hal_hop_sequence_select:

00000000 <hal_hop_sequence_select>:
   0:	4b02      	ldr	r3, [pc, #8]	; (c <.LVL1+0x4>)
   2:	881a      	ldrh	r2, [r3, #0]
   4:	f360 0207 	bfi	r2, r0, #0, #8

00000008 <.LVL1>:
   8:	801a      	strh	r2, [r3, #0]
   a:	4770      	bx	lr
   c:	00001800 	.word	0x00001800

Disassembly of section .text.hal_hop_train_A_B_select:

00000000 <hal_hop_train_A_B_select>:
   0:	4b02      	ldr	r3, [pc, #8]	; (c <hal_hop_train_A_B_select+0xc>)
   2:	881a      	ldrh	r2, [r3, #0]
   4:	f360 2249 	bfi	r2, r0, #9, #1
   8:	801a      	strh	r2, [r3, #0]
   a:	4770      	bx	lr
   c:	00001800 	.word	0x00001800

Disassembly of section .text.hal_hop_disable_autohop:

00000000 <hal_hop_disable_autohop>:
   0:	4b02      	ldr	r3, [pc, #8]	; (c <hal_hop_disable_autohop+0xc>)
   2:	881a      	ldrh	r2, [r3, #0]
   4:	f360 228a 	bfi	r2, r0, #10, #1
   8:	801a      	strh	r2, [r3, #0]
   a:	4770      	bx	lr
   c:	00001800 	.word	0x00001800

Disassembly of section .text.hal_hop_interlanced_enable:

00000000 <hal_hop_interlanced_enable>:
   0:	4b02      	ldr	r3, [pc, #8]	; (c <hal_hop_interlanced_enable+0xc>)
   2:	881a      	ldrh	r2, [r3, #0]
   4:	f360 22cb 	bfi	r2, r0, #11, #1
   8:	801a      	strh	r2, [r3, #0]
   a:	4770      	bx	lr
   c:	00001800 	.word	0x00001800

Disassembly of section .text.hal_hop_reg_prog_hop_enable:

00000000 <hal_hop_reg_prog_hop_enable>:
   0:	4b02      	ldr	r3, [pc, #8]	; (c <hal_hop_reg_prog_hop_enable+0xc>)
   2:	881a      	ldrh	r2, [r3, #0]
   4:	f360 32cf 	bfi	r2, r0, #15, #1
   8:	801a      	strh	r2, [r3, #0]
   a:	4770      	bx	lr
   c:	00001800 	.word	0x00001800

Disassembly of section .text.hal_hop_freq_cal_set:

00000000 <hal_hop_freq_cal_set>:
   0:	f641 030c 	movw	r3, #6156	; 0x180c
   4:	4a02      	ldr	r2, [pc, #8]	; (10 <.LVL7+0x6>)
   6:	ea40 6101 	orr.w	r1, r0, r1, lsl #24

0000000a <.LVL7>:
   a:	50d1      	str	r1, [r2, r3]
   c:	4770      	bx	lr
   e:	bf00      	nop
  10:	00000000 	.word	0x00000000

Disassembly of section .text.hal_hop_n_counter_set:

00000000 <hal_hop_n_counter_set>:
   0:	4a03      	ldr	r2, [pc, #12]	; (10 <hal_hop_n_counter_set+0x10>)
   2:	f641 0310 	movw	r3, #6160	; 0x1810
   6:	5ad1      	ldrh	r1, [r2, r3]
   8:	f360 0104 	bfi	r1, r0, #0, #5
   c:	52d1      	strh	r1, [r2, r3]
   e:	4770      	bx	lr
  10:	00000000 	.word	0x00000000

Disassembly of section .text.hal_hop_rx_start_count_set:

00000000 <hal_hop_rx_start_count_set>:
   0:	f641 031c 	movw	r3, #6172	; 0x181c
   4:	4a01      	ldr	r2, [pc, #4]	; (c <hal_hop_rx_start_count_set+0xc>)
   6:	52d0      	strh	r0, [r2, r3]
   8:	4770      	bx	lr
   a:	bf00      	nop
   c:	00000000 	.word	0x00000000

Disassembly of section .text.hal_hop_afh_enabled:

00000000 <hal_hop_afh_enabled>:
   0:	4b02      	ldr	r3, [pc, #8]	; (c <hal_hop_afh_enabled+0xc>)
   2:	881a      	ldrh	r2, [r3, #0]
   4:	f360 0241 	bfi	r2, r0, #1, #1
   8:	801a      	strh	r2, [r3, #0]
   a:	4770      	bx	lr
   c:	00001820 	.word	0x00001820

Disassembly of section .text.hal_hop_hopprog_set:

00000000 <hal_hop_hopprog_set>:
   0:	4b02      	ldr	r3, [pc, #8]	; (c <hal_hop_hopprog_set+0xc>)
   2:	881a      	ldrh	r2, [r3, #0]
   4:	f360 32cf 	bfi	r2, r0, #15, #1
   8:	801a      	strh	r2, [r3, #0]
   a:	4770      	bx	lr
   c:	00001820 	.word	0x00001820

Disassembly of section .text.hal_hop_rxpc_minus_time_set:

00000000 <hal_hop_rxpc_minus_time_set>:
   0:	4a03      	ldr	r2, [pc, #12]	; (10 <.LVL13+0x4>)
   2:	f641 0324 	movw	r3, #6180	; 0x1824
   6:	5ad1      	ldrh	r1, [r2, r3]
   8:	f360 0107 	bfi	r1, r0, #0, #8

0000000c <.LVL13>:
   c:	52d1      	strh	r1, [r2, r3]
   e:	4770      	bx	lr
  10:	00000000 	.word	0x00000000

ble_hal_low_energy.o:     file format elf32-littlearm


Disassembly of section .text.hal_le_security_set_IV:

00000000 <hal_le_security_set_IV>:
   0:	b510      	push	{r4, lr}

00000002 <.LCFI0>:
   2:	4b18      	ldr	r3, [pc, #96]	; (64 <.LVL1+0xc>)
   4:	7804      	ldrb	r4, [r0, #0]
   6:	f241 0294 	movw	r2, #4244	; 0x1094
   a:	5899      	ldr	r1, [r3, r2]
   c:	f364 210f 	bfi	r1, r4, #8, #8
  10:	5099      	str	r1, [r3, r2]
  12:	5899      	ldr	r1, [r3, r2]
  14:	7844      	ldrb	r4, [r0, #1]
  16:	f364 4117 	bfi	r1, r4, #16, #8
  1a:	5099      	str	r1, [r3, r2]
  1c:	5899      	ldr	r1, [r3, r2]
  1e:	7884      	ldrb	r4, [r0, #2]
  20:	f364 611f 	bfi	r1, r4, #24, #8
  24:	5099      	str	r1, [r3, r2]
  26:	f241 0298 	movw	r2, #4248	; 0x1098
  2a:	78c4      	ldrb	r4, [r0, #3]
  2c:	5899      	ldr	r1, [r3, r2]
  2e:	f364 0107 	bfi	r1, r4, #0, #8
  32:	5099      	str	r1, [r3, r2]
  34:	5899      	ldr	r1, [r3, r2]
  36:	7904      	ldrb	r4, [r0, #4]
  38:	f364 210f 	bfi	r1, r4, #8, #8
  3c:	5099      	str	r1, [r3, r2]
  3e:	5899      	ldr	r1, [r3, r2]
  40:	7944      	ldrb	r4, [r0, #5]
  42:	f364 4117 	bfi	r1, r4, #16, #8
  46:	5099      	str	r1, [r3, r2]
  48:	5899      	ldr	r1, [r3, r2]
  4a:	7984      	ldrb	r4, [r0, #6]
  4c:	f364 611f 	bfi	r1, r4, #24, #8
  50:	5099      	str	r1, [r3, r2]
  52:	f241 029c 	movw	r2, #4252	; 0x109c
  56:	79c0      	ldrb	r0, [r0, #7]

00000058 <.LVL1>:
  58:	5a99      	ldrh	r1, [r3, r2]
  5a:	f360 0107 	bfi	r1, r0, #0, #8
  5e:	5299      	strh	r1, [r3, r2]
  60:	bd10      	pop	{r4, pc}
  62:	bf00      	nop
  64:	00000000 	.word	0x00000000

Disassembly of section .text.hal_le_security_set_SK:

00000000 <hal_le_security_set_SK>:
   0:	b530      	push	{r4, r5, lr}

00000002 <.LCFI1>:
   2:	4c06      	ldr	r4, [pc, #24]	; (1c <.LVL4>)
   4:	4603      	mov	r3, r0
   6:	f100 0510 	add.w	r5, r0, #16

0000000a <.LVL3>:
   a:	6818      	ldr	r0, [r3, #0]
   c:	6859      	ldr	r1, [r3, #4]
   e:	4622      	mov	r2, r4
  10:	c203      	stmia	r2!, {r0, r1}
  12:	3308      	adds	r3, #8
  14:	42ab      	cmp	r3, r5
  16:	4614      	mov	r4, r2
  18:	d1f7      	bne.n	a <.LVL3>
  1a:	bd30      	pop	{r4, r5, pc}

0000001c <.LVL4>:
  1c:	000010a0 	.word	0x000010a0

Disassembly of section .text.hal_le_security_clear_tx_pkt_cnt:

00000000 <hal_le_security_clear_tx_pkt_cnt>:
   0:	4b02      	ldr	r3, [pc, #8]	; (c <hal_le_security_clear_tx_pkt_cnt+0xc>)
   2:	2200      	movs	r2, #0
   4:	601a      	str	r2, [r3, #0]
   6:	711a      	strb	r2, [r3, #4]
   8:	4770      	bx	lr
   a:	bf00      	nop
   c:	00001090 	.word	0x00001090

Disassembly of section .text.hal_le_security_clear_rx_pkt_cnt:

00000000 <hal_le_security_clear_rx_pkt_cnt>:
   0:	4b02      	ldr	r3, [pc, #8]	; (c <hal_le_security_clear_rx_pkt_cnt+0xc>)
   2:	2200      	movs	r2, #0
   4:	601a      	str	r2, [r3, #0]
   6:	711a      	strb	r2, [r3, #4]
   8:	4770      	bx	lr
   a:	bf00      	nop
   c:	000010b4 	.word	0x000010b4

Disassembly of section .text.hal_le_security_clear_IV:

00000000 <hal_le_security_clear_IV>:
   0:	4b13      	ldr	r3, [pc, #76]	; (50 <hal_le_security_clear_IV+0x50>)
   2:	f241 0294 	movw	r2, #4244	; 0x1094
   6:	5899      	ldr	r1, [r3, r2]
   8:	f36f 210f 	bfc	r1, #8, #8
   c:	5099      	str	r1, [r3, r2]
   e:	5899      	ldr	r1, [r3, r2]
  10:	f36f 4117 	bfc	r1, #16, #8
  14:	5099      	str	r1, [r3, r2]
  16:	5899      	ldr	r1, [r3, r2]
  18:	f36f 611f 	bfc	r1, #24, #8
  1c:	5099      	str	r1, [r3, r2]
  1e:	f241 0298 	movw	r2, #4248	; 0x1098
  22:	5899      	ldr	r1, [r3, r2]
  24:	f36f 0107 	bfc	r1, #0, #8
  28:	5099      	str	r1, [r3, r2]
  2a:	5899      	ldr	r1, [r3, r2]
  2c:	f36f 210f 	bfc	r1, #8, #8
  30:	5099      	str	r1, [r3, r2]
  32:	5899      	ldr	r1, [r3, r2]
  34:	f36f 4117 	bfc	r1, #16, #8
  38:	5099      	str	r1, [r3, r2]
  3a:	5899      	ldr	r1, [r3, r2]
  3c:	f36f 611f 	bfc	r1, #24, #8
  40:	5099      	str	r1, [r3, r2]
  42:	f241 029c 	movw	r2, #4252	; 0x109c
  46:	5a99      	ldrh	r1, [r3, r2]
  48:	f36f 0107 	bfc	r1, #0, #8
  4c:	5299      	strh	r1, [r3, r2]
  4e:	4770      	bx	lr
  50:	00000000 	.word	0x00000000

Disassembly of section .text.hal_le_security_set_dirction:

00000000 <hal_le_security_set_dirction>:
   0:	4b13      	ldr	r3, [pc, #76]	; (50 <.LVL8+0x22>)
   2:	f241 02b8 	movw	r2, #4280	; 0x10b8
   6:	5899      	ldr	r1, [r3, r2]
   8:	b180      	cbz	r0, 2c <.LVL7>
   a:	5a98      	ldrh	r0, [r3, r2]

0000000c <.LVL6>:
   c:	f001 017f 	and.w	r1, r1, #127	; 0x7f
  10:	f361 0007 	bfi	r0, r1, #0, #8
  14:	5298      	strh	r0, [r3, r2]
  16:	f241 0194 	movw	r1, #4244	; 0x1094
  1a:	585a      	ldr	r2, [r3, r1]
  1c:	5858      	ldr	r0, [r3, r1]
  1e:	f062 027f 	orn	r2, r2, #127	; 0x7f
  22:	b2d2      	uxtb	r2, r2
  24:	f362 0007 	bfi	r0, r2, #0, #8
  28:	5058      	str	r0, [r3, r1]
  2a:	4770      	bx	lr

0000002c <.LVL7>:
  2c:	5a98      	ldrh	r0, [r3, r2]

0000002e <.LVL8>:
  2e:	f061 017f 	orn	r1, r1, #127	; 0x7f
  32:	b2c9      	uxtb	r1, r1
  34:	f361 0007 	bfi	r0, r1, #0, #8
  38:	5298      	strh	r0, [r3, r2]
  3a:	f241 0294 	movw	r2, #4244	; 0x1094
  3e:	5899      	ldr	r1, [r3, r2]
  40:	5898      	ldr	r0, [r3, r2]
  42:	f001 017f 	and.w	r1, r1, #127	; 0x7f
  46:	f361 0007 	bfi	r0, r1, #0, #8
  4a:	5098      	str	r0, [r3, r2]
  4c:	4770      	bx	lr
  4e:	bf00      	nop
  50:	00000000 	.word	0x00000000

ble_hal_main.o:     file format elf32-littlearm


ble_hal_packet.o:     file format elf32-littlearm


Disassembly of section .text.hal_packet_sync_match_timeout_disable:

00000000 <hal_packet_sync_match_timeout_disable>:
   0:	4a03      	ldr	r2, [pc, #12]	; (10 <hal_packet_sync_match_timeout_disable+0x10>)
   2:	f241 436c 	movw	r3, #5228	; 0x146c
   6:	5ad1      	ldrh	r1, [r2, r3]
   8:	f360 31cf 	bfi	r1, r0, #15, #1
   c:	52d1      	strh	r1, [r2, r3]
   e:	4770      	bx	lr
  10:	00000000 	.word	0x00000000

ble_hal_palist.o:     file format elf32-littlearm


Disassembly of section .text.hal_ble_palist_init:

00000000 <hal_ble_palist_init>:
   0:	4b01      	ldr	r3, [pc, #4]	; (8 <hal_ble_palist_init+0x8>)
   2:	2200      	movs	r2, #0
   4:	701a      	strb	r2, [r3, #0]
   6:	4770      	bx	lr
   8:	00000000 	.word	0x00000000

Disassembly of section .text.hal_ble_palist_clear_list:

00000000 <hal_ble_palist_clear_list>:
   0:	4b01      	ldr	r3, [pc, #4]	; (8 <hal_ble_palist_clear_list+0x8>)
   2:	2200      	movs	r2, #0
   4:	701a      	strb	r2, [r3, #0]
   6:	4770      	bx	lr
   8:	00000000 	.word	0x00000000

Disassembly of section .text.hal_ble_palist_check_list_full:

00000000 <hal_ble_palist_check_list_full>:
   0:	4b03      	ldr	r3, [pc, #12]	; (10 <.LVL2+0x8>)

00000002 <.LVL1>:
   2:	7818      	ldrb	r0, [r3, #0]
   4:	f1a0 03ff 	sub.w	r3, r0, #255	; 0xff

00000008 <.LVL2>:
   8:	4258      	negs	r0, r3
   a:	4158      	adcs	r0, r3
   c:	4770      	bx	lr
   e:	bf00      	nop
  10:	00000000 	.word	0x00000000

Disassembly of section .text.hal_ble_palist_get_empty_entry:

00000000 <hal_ble_palist_get_empty_entry>:
   0:	b510      	push	{r4, lr}

00000002 <.LCFI0>:
   2:	4b08      	ldr	r3, [pc, #32]	; (24 <.LVL10+0x2>)
   4:	781c      	ldrb	r4, [r3, #0]
   6:	2200      	movs	r2, #0

00000008 <.LVL4>:
   8:	fa24 f302 	lsr.w	r3, r4, r2
   c:	f013 0301 	ands.w	r3, r3, #1
  10:	b2d1      	uxtb	r1, r2

00000012 <.LVL5>:
  12:	d004      	beq.n	1e <.LVL9>

00000014 <.LVL6>:
  14:	3201      	adds	r2, #1

00000016 <.LVL7>:
  16:	2a08      	cmp	r2, #8
  18:	d1f6      	bne.n	8 <.LVL4>
  1a:	2007      	movs	r0, #7

0000001c <.LVL8>:
  1c:	bd10      	pop	{r4, pc}

0000001e <.LVL9>:
  1e:	7001      	strb	r1, [r0, #0]
  20:	4618      	mov	r0, r3

00000022 <.LVL10>:
  22:	bd10      	pop	{r4, pc}
  24:	00000000 	.word	0x00000000

Disassembly of section .text.hal_ble_palist_add_device:

00000000 <hal_ble_palist_add_device>:
   0:	b573      	push	{r0, r1, r4, r5, r6, lr}

00000002 <.LCFI1>:
   2:	4604      	mov	r4, r0
   4:	f10d 0007 	add.w	r0, sp, #7

00000008 <.LVL12>:
   8:	f7ff fffe 	bl	0 <hal_ble_palist_add_device>

0000000c <.LVL13>:
   c:	b980      	cbnz	r0, 30 <.LVL13+0x24>
   e:	f89d 1007 	ldrb.w	r1, [sp, #7]
  12:	4b08      	ldr	r3, [pc, #32]	; (34 <.LVL14>)
  14:	6822      	ldr	r2, [r4, #0]
  16:	b20d      	sxth	r5, r1
  18:	eb03 06c5 	add.w	r6, r3, r5, lsl #3
  1c:	f843 2035 	str.w	r2, [r3, r5, lsl #3]
  20:	6862      	ldr	r2, [r4, #4]
  22:	6072      	str	r2, [r6, #4]
  24:	4a04      	ldr	r2, [pc, #16]	; (38 <.LVL14+0x4>)
  26:	2301      	movs	r3, #1
  28:	408b      	lsls	r3, r1
  2a:	7811      	ldrb	r1, [r2, #0]
  2c:	430b      	orrs	r3, r1
  2e:	7013      	strb	r3, [r2, #0]
  30:	b002      	add	sp, #8

00000032 <.LCFI2>:
  32:	bd70      	pop	{r4, r5, r6, pc}

00000034 <.LVL14>:
	...

Disassembly of section .text.hal_ble_palist_find_device:

00000000 <hal_ble_palist_find_device>:
   0:	e92d 43f8 	stmdb	sp!, {r3, r4, r5, r6, r7, r8, r9, lr}

00000004 <.LBB2>:
   4:	4b0d      	ldr	r3, [pc, #52]	; (3c <.LVL24>)
   6:	f8df 9038 	ldr.w	r9, [pc, #56]	; 40 <.LVL24+0x4>
   a:	781f      	ldrb	r7, [r3, #0]

0000000c <.LBE2>:
   c:	4680      	mov	r8, r0
   e:	460d      	mov	r5, r1

00000010 <.LBB3>:
  10:	2400      	movs	r4, #0

00000012 <.LVL16>:
  12:	2208      	movs	r2, #8
  14:	4641      	mov	r1, r8
  16:	eb09 00c4 	add.w	r0, r9, r4, lsl #3
  1a:	f7ff fffe 	bl	0 <memcmp>

0000001e <.LVL17>:
  1e:	fa27 f304 	lsr.w	r3, r7, r4
  22:	07db      	lsls	r3, r3, #31
  24:	b2e6      	uxtb	r6, r4

00000026 <.LVL18>:
  26:	d500      	bpl.n	2a <.LVL19>
  28:	b128      	cbz	r0, 36 <.LVL22>

0000002a <.LVL19>:
  2a:	3401      	adds	r4, #1

0000002c <.LBE3>:
  2c:	2c08      	cmp	r4, #8
  2e:	d1f0      	bne.n	12 <.LVL16>
  30:	2042      	movs	r0, #66	; 0x42

00000032 <.LVL21>:
  32:	e8bd 83f8 	ldmia.w	sp!, {r3, r4, r5, r6, r7, r8, r9, pc}

00000036 <.LVL22>:
  36:	702e      	strb	r6, [r5, #0]

00000038 <.LVL23>:
  38:	e8bd 83f8 	ldmia.w	sp!, {r3, r4, r5, r6, r7, r8, r9, pc}

0000003c <.LVL24>:
	...

Disassembly of section .text.hal_ble_palist_remove_device:

00000000 <hal_ble_palist_remove_device>:
   0:	b507      	push	{r0, r1, r2, lr}

00000002 <.LCFI4>:
   2:	f10d 0107 	add.w	r1, sp, #7
   6:	f7ff fffe 	bl	0 <hal_ble_palist_remove_device>

0000000a <.LVL26>:
   a:	b948      	cbnz	r0, 20 <.LVL26+0x16>
   c:	4906      	ldr	r1, [pc, #24]	; (28 <.LCFI5+0x6>)
   e:	f89d 2007 	ldrb.w	r2, [sp, #7]
  12:	2301      	movs	r3, #1
  14:	fa03 f202 	lsl.w	r2, r3, r2
  18:	780b      	ldrb	r3, [r1, #0]
  1a:	ea23 0302 	bic.w	r3, r3, r2
  1e:	700b      	strb	r3, [r1, #0]
  20:	b003      	add	sp, #12

00000022 <.LCFI5>:
  22:	f85d fb04 	ldr.w	pc, [sp], #4
  26:	bf00      	nop
  28:	00000000 	.word	0x00000000

Disassembly of section .text.hal_ble_palist_read_list_size:

00000000 <hal_ble_palist_read_list_size>:
   0:	2008      	movs	r0, #8
   2:	4770      	bx	lr

ble_hal_privacy.o:     file format elf32-littlearm


Disassembly of section .text.hal_bt_privacy_remove_device_from_rl:

00000000 <hal_bt_privacy_remove_device_from_rl>:
   0:	4a14      	ldr	r2, [pc, #80]	; (54 <.LVL7+0x4>)
   2:	4603      	mov	r3, r0
   4:	6800      	ldr	r0, [r0, #0]

00000006 <.LVL1>:
   6:	6010      	str	r0, [r2, #0]
   8:	8899      	ldrh	r1, [r3, #4]
   a:	799b      	ldrb	r3, [r3, #6]

0000000c <.LVL2>:
   c:	8091      	strh	r1, [r2, #4]
   e:	7193      	strb	r3, [r2, #6]
  10:	f832 3c04 	ldrh.w	r3, [r2, #-4]
  14:	f043 0302 	orr.w	r3, r3, #2
  18:	f822 3c04 	strh.w	r3, [r2, #-4]
  1c:	f852 3c08 	ldr.w	r3, [r2, #-8]
  20:	f3c3 7380 	ubfx	r3, r3, #30, #1
  24:	f5a2 6277 	sub.w	r2, r2, #3952	; 0xf70
  28:	b18b      	cbz	r3, 4e <.LVL6>
  2a:	f8d2 0f94 	ldr.w	r0, [r2, #3988]	; 0xf94
  2e:	f892 1f68 	ldrb.w	r1, [r2, #3944]	; 0xf68
  32:	f3c0 6002 	ubfx	r0, r0, #24, #3

00000036 <.LVL3>:
  36:	4083      	lsls	r3, r0
  38:	43db      	mvns	r3, r3
  3a:	b2db      	uxtb	r3, r3
  3c:	4019      	ands	r1, r3
  3e:	f882 1f68 	strb.w	r1, [r2, #3944]	; 0xf68
  42:	4a05      	ldr	r2, [pc, #20]	; (58 <.LVL7+0x8>)
  44:	7811      	ldrb	r1, [r2, #0]

00000046 <.LVL5>:
  46:	400b      	ands	r3, r1
  48:	7013      	strb	r3, [r2, #0]
  4a:	2000      	movs	r0, #0
  4c:	4770      	bx	lr

0000004e <.LVL6>:
  4e:	2002      	movs	r0, #2

00000050 <.LVL7>:
  50:	4770      	bx	lr
  52:	bf00      	nop
  54:	00000f70 	.word	0x00000f70
  58:	00000000 	.word	0x00000000

Disassembly of section .text.hal_bt_privacy_clear_rl:

00000000 <hal_bt_privacy_clear_rl>:
   0:	4b08      	ldr	r3, [pc, #32]	; (24 <hal_bt_privacy_clear_rl+0x24>)
   2:	f8d3 2f68 	ldr.w	r2, [r3, #3944]	; 0xf68
   6:	f442 1200 	orr.w	r2, r2, #2097152	; 0x200000
   a:	f8c3 2f68 	str.w	r2, [r3, #3944]	; 0xf68
   e:	f8d3 2f68 	ldr.w	r2, [r3, #3944]	; 0xf68
  12:	0292      	lsls	r2, r2, #10
  14:	d4fb      	bmi.n	e <hal_bt_privacy_clear_rl+0xe>
  16:	2200      	movs	r2, #0
  18:	f883 2f68 	strb.w	r2, [r3, #3944]	; 0xf68
  1c:	4b02      	ldr	r3, [pc, #8]	; (28 <hal_bt_privacy_clear_rl+0x28>)
  1e:	701a      	strb	r2, [r3, #0]
  20:	4770      	bx	lr
  22:	bf00      	nop
	...

Disassembly of section .text.hal_bt_privacy_write_local_rpa:

00000000 <hal_bt_privacy_write_local_rpa>:
   0:	4b15      	ldr	r3, [pc, #84]	; (58 <hal_bt_privacy_write_local_rpa+0x58>)
   2:	7801      	ldrb	r1, [r0, #0]
   4:	f8d3 2fb0 	ldr.w	r2, [r3, #4016]	; 0xfb0
   8:	f361 4217 	bfi	r2, r1, #16, #8
   c:	f8c3 2fb0 	str.w	r2, [r3, #4016]	; 0xfb0
  10:	f8d3 2fb0 	ldr.w	r2, [r3, #4016]	; 0xfb0
  14:	7841      	ldrb	r1, [r0, #1]
  16:	f361 621f 	bfi	r2, r1, #24, #8
  1a:	f8c3 2fb0 	str.w	r2, [r3, #4016]	; 0xfb0
  1e:	f8d3 2fb4 	ldr.w	r2, [r3, #4020]	; 0xfb4
  22:	7881      	ldrb	r1, [r0, #2]
  24:	f361 0207 	bfi	r2, r1, #0, #8
  28:	f8c3 2fb4 	str.w	r2, [r3, #4020]	; 0xfb4
  2c:	f8d3 2fb4 	ldr.w	r2, [r3, #4020]	; 0xfb4
  30:	78c1      	ldrb	r1, [r0, #3]
  32:	f361 220f 	bfi	r2, r1, #8, #8
  36:	f8c3 2fb4 	str.w	r2, [r3, #4020]	; 0xfb4
  3a:	7901      	ldrb	r1, [r0, #4]
  3c:	f8d3 2fb4 	ldr.w	r2, [r3, #4020]	; 0xfb4
  40:	f361 4217 	bfi	r2, r1, #16, #8
  44:	f8c3 2fb4 	str.w	r2, [r3, #4020]	; 0xfb4
  48:	7941      	ldrb	r1, [r0, #5]
  4a:	f8d3 2fb4 	ldr.w	r2, [r3, #4020]	; 0xfb4
  4e:	f361 621f 	bfi	r2, r1, #24, #8
  52:	f8c3 2fb4 	str.w	r2, [r3, #4020]	; 0xfb4
  56:	4770      	bx	lr
  58:	00000000 	.word	0x00000000

Disassembly of section .text.hal_bt_privacy_read_peer_rpa:

00000000 <hal_bt_privacy_read_peer_rpa>:
   0:	4b0f      	ldr	r3, [pc, #60]	; (40 <.LVL13+0x4>)
   2:	4602      	mov	r2, r0
   4:	6800      	ldr	r0, [r0, #0]

00000006 <.LVL11>:
   6:	6018      	str	r0, [r3, #0]
   8:	8890      	ldrh	r0, [r2, #4]
   a:	7992      	ldrb	r2, [r2, #6]

0000000c <.LVL12>:
   c:	8098      	strh	r0, [r3, #4]
   e:	719a      	strb	r2, [r3, #6]
  10:	f833 2c04 	ldrh.w	r2, [r3, #-4]
  14:	f042 0202 	orr.w	r2, r2, #2
  18:	f823 2c04 	strh.w	r2, [r3, #-4]
  1c:	f853 2c08 	ldr.w	r2, [r3, #-8]
  20:	f5a3 6377 	sub.w	r3, r3, #3952	; 0xf70
  24:	0052      	lsls	r2, r2, #1
  26:	bf41      	itttt	mi
  28:	f8d3 0f98 	ldrmi.w	r0, [r3, #3992]	; 0xf98
  2c:	6008      	strmi	r0, [r1, #0]
  2e:	f8b3 3f9c 	ldrhmi.w	r3, [r3, #3996]	; 0xf9c
  32:	808b      	strhmi	r3, [r1, #4]
  34:	bf4c      	ite	mi
  36:	2000      	movmi	r0, #0
  38:	f04f 30ff 	movpl.w	r0, #4294967295

0000003c <.LVL13>:
  3c:	4770      	bx	lr
  3e:	bf00      	nop
  40:	00000f70 	.word	0x00000f70

Disassembly of section .text.hal_bt_privacy_read_local_rpa:

00000000 <hal_bt_privacy_read_local_rpa>:
   0:	4b04      	ldr	r3, [pc, #16]	; (14 <.LVL15+0xe>)
   2:	eb00 0040 	add.w	r0, r0, r0, lsl #1

00000006 <.LVL15>:
   6:	eb03 0040 	add.w	r0, r3, r0, lsl #1
   a:	6803      	ldr	r3, [r0, #0]
   c:	600b      	str	r3, [r1, #0]
   e:	8883      	ldrh	r3, [r0, #4]
  10:	808b      	strh	r3, [r1, #4]
  12:	4770      	bx	lr
  14:	00000000 	.word	0x00000000

Disassembly of section .text.hal_bt_privacy_gen_rpa:

00000000 <hal_bt_privacy_gen_rpa>:
   0:	e92d 43f7 	stmdb	sp!, {r0, r1, r2, r4, r5, r6, r7, r8, r9, lr}

00000004 <.LCFI0>:
   4:	4c6d      	ldr	r4, [pc, #436]	; (1bc <.LCFI1+0x4>)
   6:	f8df 91c8 	ldr.w	r9, [pc, #456]	; 1d0 <.LCFI1+0x18>
   a:	4607      	mov	r7, r0
   c:	4688      	mov	r8, r1
   e:	26c9      	movs	r6, #201	; 0xc9
  10:	4625      	mov	r5, r4

00000012 <.LVL17>:
  12:	2103      	movs	r1, #3
  14:	a801      	add	r0, sp, #4
  16:	f7ff fffe 	bl	0 <BT_SYS_RandGet>

0000001a <.LVL18>:
  1a:	f89d 2006 	ldrb.w	r2, [sp, #6]
  1e:	f002 027f 	and.w	r2, r2, #127	; 0x7f
  22:	f042 0240 	orr.w	r2, r2, #64	; 0x40
  26:	f88d 2006 	strb.w	r2, [sp, #6]
  2a:	f8d9 3000 	ldr.w	r3, [r9]
  2e:	0099      	lsls	r1, r3, #2
  30:	d4fb      	bmi.n	2a <.LVL18+0x10>
  32:	4b63      	ldr	r3, [pc, #396]	; (1c0 <.LCFI1+0x8>)
  34:	8819      	ldrh	r1, [r3, #0]
  36:	f041 0140 	orr.w	r1, r1, #64	; 0x40
  3a:	8019      	strh	r1, [r3, #0]
  3c:	8819      	ldrh	r1, [r3, #0]
  3e:	f041 0120 	orr.w	r1, r1, #32
  42:	8019      	strh	r1, [r3, #0]
  44:	2f00      	cmp	r7, #0
  46:	d07a      	beq.n	13e <.LVL18+0x124>
  48:	4b5e      	ldr	r3, [pc, #376]	; (1c4 <.LCFI1+0xc>)
  4a:	2127      	movs	r1, #39	; 0x27
  4c:	fb01 3308 	mla	r3, r1, r8, r3
  50:	f8d4 1f84 	ldr.w	r1, [r4, #3972]	; 0xf84
  54:	7dd8      	ldrb	r0, [r3, #23]
  56:	f360 611f 	bfi	r1, r0, #24, #8
  5a:	f8c4 1f84 	str.w	r1, [r4, #3972]	; 0xf84
  5e:	f8d4 1f88 	ldr.w	r1, [r4, #3976]	; 0xf88
  62:	7e18      	ldrb	r0, [r3, #24]
  64:	f360 0107 	bfi	r1, r0, #0, #8
  68:	f8c4 1f88 	str.w	r1, [r4, #3976]	; 0xf88
  6c:	f8d4 1f88 	ldr.w	r1, [r4, #3976]	; 0xf88
  70:	7e58      	ldrb	r0, [r3, #25]
  72:	f360 210f 	bfi	r1, r0, #8, #8
  76:	f8c4 1f88 	str.w	r1, [r4, #3976]	; 0xf88
  7a:	f8d4 1f88 	ldr.w	r1, [r4, #3976]	; 0xf88
  7e:	7e98      	ldrb	r0, [r3, #26]
  80:	f360 4117 	bfi	r1, r0, #16, #8
  84:	f8c4 1f88 	str.w	r1, [r4, #3976]	; 0xf88
  88:	f8d4 1f88 	ldr.w	r1, [r4, #3976]	; 0xf88
  8c:	7ed8      	ldrb	r0, [r3, #27]
  8e:	f360 611f 	bfi	r1, r0, #24, #8
  92:	f8c4 1f88 	str.w	r1, [r4, #3976]	; 0xf88
  96:	f8d4 1f8c 	ldr.w	r1, [r4, #3980]	; 0xf8c
  9a:	7f18      	ldrb	r0, [r3, #28]
  9c:	f360 0107 	bfi	r1, r0, #0, #8
  a0:	f8c4 1f8c 	str.w	r1, [r4, #3980]	; 0xf8c
  a4:	f8d4 1f8c 	ldr.w	r1, [r4, #3980]	; 0xf8c
  a8:	7f58      	ldrb	r0, [r3, #29]
  aa:	f360 210f 	bfi	r1, r0, #8, #8
  ae:	f8c4 1f8c 	str.w	r1, [r4, #3980]	; 0xf8c
  b2:	f8d4 1f8c 	ldr.w	r1, [r4, #3980]	; 0xf8c
  b6:	7f98      	ldrb	r0, [r3, #30]
  b8:	f360 4117 	bfi	r1, r0, #16, #8
  bc:	f8c4 1f8c 	str.w	r1, [r4, #3980]	; 0xf8c
  c0:	7fd8      	ldrb	r0, [r3, #31]
  c2:	f8d4 1f8c 	ldr.w	r1, [r4, #3980]	; 0xf8c
  c6:	f360 611f 	bfi	r1, r0, #24, #8
  ca:	f8c4 1f8c 	str.w	r1, [r4, #3980]	; 0xf8c
  ce:	f893 0020 	ldrb.w	r0, [r3, #32]
  d2:	f8d4 1f90 	ldr.w	r1, [r4, #3984]	; 0xf90
  d6:	f360 0107 	bfi	r1, r0, #0, #8
  da:	f8c4 1f90 	str.w	r1, [r4, #3984]	; 0xf90
  de:	f893 0021 	ldrb.w	r0, [r3, #33]	; 0x21
  e2:	f8d4 1f90 	ldr.w	r1, [r4, #3984]	; 0xf90
  e6:	f360 210f 	bfi	r1, r0, #8, #8
  ea:	f8c4 1f90 	str.w	r1, [r4, #3984]	; 0xf90
  ee:	f8d4 1f90 	ldr.w	r1, [r4, #3984]	; 0xf90
  f2:	f893 0022 	ldrb.w	r0, [r3, #34]	; 0x22
  f6:	f360 4117 	bfi	r1, r0, #16, #8
  fa:	f8c4 1f90 	str.w	r1, [r4, #3984]	; 0xf90
  fe:	f8d4 1f90 	ldr.w	r1, [r4, #3984]	; 0xf90
 102:	f893 0023 	ldrb.w	r0, [r3, #35]	; 0x23
 106:	f360 611f 	bfi	r1, r0, #24, #8
 10a:	f8c4 1f90 	str.w	r1, [r4, #3984]	; 0xf90
 10e:	f893 0024 	ldrb.w	r0, [r3, #36]	; 0x24
 112:	f8d4 1f94 	ldr.w	r1, [r4, #3988]	; 0xf94
 116:	f360 0107 	bfi	r1, r0, #0, #8
 11a:	f8c4 1f94 	str.w	r1, [r4, #3988]	; 0xf94
 11e:	f893 0025 	ldrb.w	r0, [r3, #37]	; 0x25
 122:	f8d4 1f94 	ldr.w	r1, [r4, #3988]	; 0xf94
 126:	f360 210f 	bfi	r1, r0, #8, #8
 12a:	f8c4 1f94 	str.w	r1, [r4, #3988]	; 0xf94
 12e:	f893 1026 	ldrb.w	r1, [r3, #38]	; 0x26
 132:	f8d4 3f94 	ldr.w	r3, [r4, #3988]	; 0xf94
 136:	f361 4317 	bfi	r3, r1, #16, #8
 13a:	f8c4 3f94 	str.w	r3, [r4, #3988]	; 0xf94
 13e:	f8d5 3f68 	ldr.w	r3, [r5, #3944]	; 0xf68
 142:	f368 4312 	bfi	r3, r8, #16, #3
 146:	f8c5 3f68 	str.w	r3, [r5, #3944]	; 0xf68
 14a:	f8b5 1f6c 	ldrh.w	r1, [r5, #3948]	; 0xf6c
 14e:	f087 0301 	eor.w	r3, r7, #1
 152:	f363 0100 	bfi	r1, r3, #0, #1
 156:	4b1c      	ldr	r3, [pc, #112]	; (1c8 <.LCFI1+0x10>)
 158:	f8a5 1f6c 	strh.w	r1, [r5, #3948]	; 0xf6c
 15c:	6819      	ldr	r1, [r3, #0]
 15e:	f89d 0004 	ldrb.w	r0, [sp, #4]
 162:	f360 0107 	bfi	r1, r0, #0, #8
 166:	6019      	str	r1, [r3, #0]
 168:	6819      	ldr	r1, [r3, #0]
 16a:	f89d 0005 	ldrb.w	r0, [sp, #5]
 16e:	f360 210f 	bfi	r1, r0, #8, #8
 172:	6019      	str	r1, [r3, #0]
 174:	6819      	ldr	r1, [r3, #0]
 176:	f362 4117 	bfi	r1, r2, #16, #8
 17a:	6019      	str	r1, [r3, #0]
 17c:	f8d5 3f68 	ldr.w	r3, [r5, #3944]	; 0xf68
 180:	f443 0380 	orr.w	r3, r3, #4194304	; 0x400000
 184:	f8c5 3f68 	str.w	r3, [r5, #3944]	; 0xf68
 188:	f8d5 3f68 	ldr.w	r3, [r5, #3944]	; 0xf68
 18c:	025b      	lsls	r3, r3, #9
 18e:	d4fb      	bmi.n	188 <.LVL18+0x16e>

00000190 <.LVL19>:
 190:	4b0e      	ldr	r3, [pc, #56]	; (1cc <.LCFI1+0x14>)
 192:	f8d9 0000 	ldr.w	r0, [r9]
 196:	681b      	ldr	r3, [r3, #0]
 198:	3e01      	subs	r6, #1

0000019a <.LVL20>:
 19a:	f013 0f02 	tst.w	r3, #2
 19e:	f340 6000 	sbfx	r0, r0, #24, #1

000001a2 <.LVL21>:
 1a2:	bf18      	it	ne
 1a4:	f04f 30ff 	movne.w	r0, #4294967295
 1a8:	f016 06ff 	ands.w	r6, r6, #255	; 0xff
 1ac:	d003      	beq.n	1b6 <.LVL24>
 1ae:	3001      	adds	r0, #1

000001b0 <.LVL23>:
 1b0:	f43f af2f 	beq.w	12 <.LVL17>
 1b4:	2000      	movs	r0, #0

000001b6 <.LVL24>:
 1b6:	b003      	add	sp, #12

000001b8 <.LCFI1>:
 1b8:	e8bd 83f0 	ldmia.w	sp!, {r4, r5, r6, r7, r8, r9, pc}
 1bc:	00000000 	.word	0x00000000
 1c0:	000010c4 	.word	0x000010c4
 1c4:	00000000 	.word	0x00000000
 1c8:	00001010 	.word	0x00001010
 1cc:	0000108c 	.word	0x0000108c
 1d0:	00001030 	.word	0x00001030

Disassembly of section .text.hal_bt_privacy_gen_all_local_rpa:

00000000 <hal_bt_privacy_gen_all_local_rpa>:
   0:	b5f8      	push	{r3, r4, r5, r6, r7, lr}

00000002 <.LCFI2>:
   2:	4c16      	ldr	r4, [pc, #88]	; (5c <.LVL30+0xc>)
   4:	4f16      	ldr	r7, [pc, #88]	; (60 <.LVL30+0x10>)
   6:	4d17      	ldr	r5, [pc, #92]	; (64 <.LVL30+0x14>)
   8:	2600      	movs	r6, #0

0000000a <.LVL26>:
   a:	783b      	ldrb	r3, [r7, #0]
   c:	40f3      	lsrs	r3, r6
   e:	07db      	lsls	r3, r3, #31
  10:	b2f1      	uxtb	r1, r6

00000012 <.LVL27>:
  12:	d51c      	bpl.n	4e <.LVL29>
  14:	2001      	movs	r0, #1
  16:	f7ff fffe 	bl	0 <hal_bt_privacy_gen_all_local_rpa>

0000001a <.LVL28>:
  1a:	f8d5 3fa4 	ldr.w	r3, [r5, #4004]	; 0xfa4
  1e:	7023      	strb	r3, [r4, #0]
  20:	f8d5 3fa4 	ldr.w	r3, [r5, #4004]	; 0xfa4
  24:	f3c3 2307 	ubfx	r3, r3, #8, #8
  28:	7063      	strb	r3, [r4, #1]
  2a:	f8d5 3fa4 	ldr.w	r3, [r5, #4004]	; 0xfa4
  2e:	f3c3 4307 	ubfx	r3, r3, #16, #8
  32:	70a3      	strb	r3, [r4, #2]
  34:	f8d5 3fa4 	ldr.w	r3, [r5, #4004]	; 0xfa4
  38:	f3c3 6307 	ubfx	r3, r3, #24, #8
  3c:	70e3      	strb	r3, [r4, #3]
  3e:	f8d5 3fa8 	ldr.w	r3, [r5, #4008]	; 0xfa8
  42:	7123      	strb	r3, [r4, #4]
  44:	f8d5 3fa8 	ldr.w	r3, [r5, #4008]	; 0xfa8
  48:	f3c3 2307 	ubfx	r3, r3, #8, #8
  4c:	7163      	strb	r3, [r4, #5]

0000004e <.LVL29>:
  4e:	3601      	adds	r6, #1

00000050 <.LVL30>:
  50:	2e08      	cmp	r6, #8
  52:	f104 0406 	add.w	r4, r4, #6
  56:	d1d8      	bne.n	a <.LVL26>
  58:	bdf8      	pop	{r3, r4, r5, r6, r7, pc}
  5a:	bf00      	nop
	...

Disassembly of section .text.hal_bt_privacy_read_peer_id_addr:

00000000 <hal_bt_privacy_read_peer_id_addr>:
   0:	4b11      	ldr	r3, [pc, #68]	; (48 <hal_bt_privacy_read_peer_id_addr+0x48>)
   2:	f8d3 2f68 	ldr.w	r2, [r3, #3944]	; 0xf68
   6:	f360 4212 	bfi	r2, r0, #16, #3
   a:	f8c3 2f68 	str.w	r2, [r3, #3944]	; 0xf68
   e:	f8d3 2f70 	ldr.w	r2, [r3, #3952]	; 0xf70
  12:	f3c2 2207 	ubfx	r2, r2, #8, #8
  16:	700a      	strb	r2, [r1, #0]
  18:	f8d3 2f70 	ldr.w	r2, [r3, #3952]	; 0xf70
  1c:	f3c2 4207 	ubfx	r2, r2, #16, #8
  20:	704a      	strb	r2, [r1, #1]
  22:	f8d3 2f70 	ldr.w	r2, [r3, #3952]	; 0xf70
  26:	f3c2 6207 	ubfx	r2, r2, #24, #8
  2a:	708a      	strb	r2, [r1, #2]
  2c:	f8d3 2f74 	ldr.w	r2, [r3, #3956]	; 0xf74
  30:	70ca      	strb	r2, [r1, #3]
  32:	f8d3 2f74 	ldr.w	r2, [r3, #3956]	; 0xf74
  36:	f3c2 2207 	ubfx	r2, r2, #8, #8
  3a:	710a      	strb	r2, [r1, #4]
  3c:	f8d3 3f74 	ldr.w	r3, [r3, #3956]	; 0xf74
  40:	f3c3 4307 	ubfx	r3, r3, #16, #8
  44:	714b      	strb	r3, [r1, #5]
  46:	4770      	bx	lr
  48:	00000000 	.word	0x00000000

Disassembly of section .text.hal_bt_privacy_read_peer_id_addr_type:

00000000 <hal_bt_privacy_read_peer_id_addr_type>:
   0:	4b05      	ldr	r3, [pc, #20]	; (18 <.LVL33+0x6>)
   2:	f8d3 2f68 	ldr.w	r2, [r3, #3944]	; 0xf68
   6:	f360 4212 	bfi	r2, r0, #16, #3
   a:	f8c3 2f68 	str.w	r2, [r3, #3944]	; 0xf68
   e:	f8d3 0f70 	ldr.w	r0, [r3, #3952]	; 0xf70

00000012 <.LVL33>:
  12:	f000 0001 	and.w	r0, r0, #1
  16:	4770      	bx	lr
  18:	00000000 	.word	0x00000000

Disassembly of section .text.hal_bt_privacy_check_rl_full:

00000000 <hal_bt_privacy_check_rl_full>:
   0:	4b03      	ldr	r3, [pc, #12]	; (10 <hal_bt_privacy_check_rl_full+0x10>)
   2:	7818      	ldrb	r0, [r3, #0]
   4:	f1a0 03ff 	sub.w	r3, r0, #255	; 0xff
   8:	4258      	negs	r0, r3
   a:	4158      	adcs	r0, r3
   c:	4770      	bx	lr
   e:	bf00      	nop
  10:	00000000 	.word	0x00000000

Disassembly of section .text.hal_bt_privacy_check_rl_empty:

00000000 <hal_bt_privacy_check_rl_empty>:
   0:	4b02      	ldr	r3, [pc, #8]	; (c <hal_bt_privacy_check_rl_empty+0xc>)
   2:	7818      	ldrb	r0, [r3, #0]
   4:	fab0 f080 	clz	r0, r0
   8:	0940      	lsrs	r0, r0, #5
   a:	4770      	bx	lr
   c:	00000000 	.word	0x00000000

Disassembly of section .text.hal_bt_privacy_get_empty_entry_in_rl:

00000000 <hal_bt_privacy_get_empty_entry_in_rl>:
   0:	4b06      	ldr	r3, [pc, #24]	; (1c <.LVL41+0x4>)
   2:	781a      	ldrb	r2, [r3, #0]
   4:	2300      	movs	r3, #0

00000006 <.LVL37>:
   6:	fa22 f103 	lsr.w	r1, r2, r3
   a:	07c9      	lsls	r1, r1, #31
   c:	b2d8      	uxtb	r0, r3

0000000e <.LVL38>:
   e:	d503      	bpl.n	18 <.LVL41>

00000010 <.LVL39>:
  10:	3301      	adds	r3, #1

00000012 <.LVL40>:
  12:	2b08      	cmp	r3, #8
  14:	d1f7      	bne.n	6 <.LVL37>
  16:	4618      	mov	r0, r3

00000018 <.LVL41>:
  18:	4770      	bx	lr
  1a:	bf00      	nop
  1c:	00000000 	.word	0x00000000

Disassembly of section .text.hal_bt_privacy_add_device_to_rl:

00000000 <hal_bt_privacy_add_device_to_rl>:
   0:	4a2a      	ldr	r2, [pc, #168]	; (ac <.LVL53+0x4>)
   2:	b570      	push	{r4, r5, r6, lr}

00000004 <.LCFI3>:
   4:	4603      	mov	r3, r0
   6:	4604      	mov	r4, r0
   8:	f100 0620 	add.w	r6, r0, #32

0000000c <.LVL43>:
   c:	6818      	ldr	r0, [r3, #0]
   e:	6859      	ldr	r1, [r3, #4]
  10:	4615      	mov	r5, r2
  12:	c503      	stmia	r5!, {r0, r1}
  14:	3308      	adds	r3, #8
  16:	42b3      	cmp	r3, r6
  18:	462a      	mov	r2, r5
  1a:	d1f7      	bne.n	c <.LVL43>
  1c:	6818      	ldr	r0, [r3, #0]
  1e:	6028      	str	r0, [r5, #0]
  20:	8899      	ldrh	r1, [r3, #4]
  22:	799b      	ldrb	r3, [r3, #6]
  24:	80a9      	strh	r1, [r5, #4]
  26:	71ab      	strb	r3, [r5, #6]
  28:	f7ff fffe 	bl	0 <hal_bt_privacy_add_device_to_rl>

0000002c <.LVL44>:
  2c:	4b20      	ldr	r3, [pc, #128]	; (b0 <.LVL53+0x8>)
  2e:	f8d3 2f68 	ldr.w	r2, [r3, #3944]	; 0xf68
  32:	f360 4212 	bfi	r2, r0, #16, #3
  36:	f8c3 2f68 	str.w	r2, [r3, #3944]	; 0xf68
  3a:	f8d3 2f68 	ldr.w	r2, [r3, #3944]	; 0xf68
  3e:	f442 1280 	orr.w	r2, r2, #1048576	; 0x100000
  42:	f8c3 2f68 	str.w	r2, [r3, #3944]	; 0xf68
  46:	f8d3 2f68 	ldr.w	r2, [r3, #3944]	; 0xf68
  4a:	02d2      	lsls	r2, r2, #11
  4c:	d4fb      	bmi.n	46 <.LVL44+0x1a>
  4e:	2201      	movs	r2, #1
  50:	f893 1f68 	ldrb.w	r1, [r3, #3944]	; 0xf68

00000054 <.LVL45>:
  54:	4082      	lsls	r2, r0
  56:	b2d2      	uxtb	r2, r2
  58:	4311      	orrs	r1, r2
  5a:	f883 1f68 	strb.w	r1, [r3, #3944]	; 0xf68
  5e:	4b15      	ldr	r3, [pc, #84]	; (b4 <.LVL53+0xc>)
  60:	7819      	ldrb	r1, [r3, #0]

00000062 <.LVL47>:
  62:	430a      	orrs	r2, r1
  64:	701a      	strb	r2, [r3, #0]
  66:	f104 0317 	add.w	r3, r4, #23
  6a:	f104 0227 	add.w	r2, r4, #39	; 0x27

0000006e <.LVL48>:
  6e:	f813 1b01 	ldrb.w	r1, [r3], #1
  72:	b9c9      	cbnz	r1, a8 <.LVL53>
  74:	4293      	cmp	r3, r2
  76:	d1fa      	bne.n	6e <.LVL48>
  78:	2301      	movs	r3, #1

0000007a <.LVL49>:
  7a:	4a0f      	ldr	r2, [pc, #60]	; (b8 <.LVL53+0x10>)
  7c:	5413      	strb	r3, [r2, r0]
  7e:	b200      	sxth	r0, r0

00000080 <.LVL50>:
  80:	eb00 0380 	add.w	r3, r0, r0, lsl #2

00000084 <.LVL51>:
  84:	4a0d      	ldr	r2, [pc, #52]	; (bc <.LVL53+0x14>)
  86:	ebc0 03c3 	rsb	r3, r0, r3, lsl #3
  8a:	4413      	add	r3, r2
  8c:	4620      	mov	r0, r4
  8e:	f104 0224 	add.w	r2, r4, #36	; 0x24
  92:	f850 1b04 	ldr.w	r1, [r0], #4
  96:	f843 1b04 	str.w	r1, [r3], #4
  9a:	4290      	cmp	r0, r2
  9c:	d1f9      	bne.n	92 <.LVL51+0xe>
  9e:	8802      	ldrh	r2, [r0, #0]
  a0:	801a      	strh	r2, [r3, #0]
  a2:	7882      	ldrb	r2, [r0, #2]
  a4:	709a      	strb	r2, [r3, #2]
  a6:	bd70      	pop	{r4, r5, r6, pc}

000000a8 <.LVL53>:
  a8:	2300      	movs	r3, #0
  aa:	e7e6      	b.n	7a <.LVL49>
  ac:	00000f70 	.word	0x00000f70
	...

Disassembly of section .text.hal_bt_privacy_enable_privacy:

00000000 <hal_bt_privacy_enable_privacy>:
   0:	4b04      	ldr	r3, [pc, #16]	; (14 <hal_bt_privacy_enable_privacy+0x14>)
   2:	f8d3 2f68 	ldr.w	r2, [r3, #3944]	; 0xf68
   6:	f360 52d7 	bfi	r2, r0, #23, #1
   a:	f8c3 2f68 	str.w	r2, [r3, #3944]	; 0xf68
   e:	4b02      	ldr	r3, [pc, #8]	; (18 <hal_bt_privacy_enable_privacy+0x18>)
  10:	7058      	strb	r0, [r3, #1]
  12:	4770      	bx	lr
	...

Disassembly of section .text.hal_bt_privacy_enable_check:

00000000 <hal_bt_privacy_enable_check>:
   0:	4b01      	ldr	r3, [pc, #4]	; (8 <hal_bt_privacy_enable_check+0x8>)
   2:	7858      	ldrb	r0, [r3, #1]
   4:	4770      	bx	lr
   6:	bf00      	nop
   8:	00000000 	.word	0x00000000

Disassembly of section .text.hal_bt_privacy_set_privacy_mode:

00000000 <hal_bt_privacy_set_privacy_mode>:
   0:	b5f0      	push	{r4, r5, r6, r7, lr}

00000002 <.LCFI4>:
   2:	4c2c      	ldr	r4, [pc, #176]	; (b4 <.LCFI7+0x6>)
   4:	4603      	mov	r3, r0
   6:	6800      	ldr	r0, [r0, #0]

00000008 <.LVL56>:
   8:	6020      	str	r0, [r4, #0]
   a:	889a      	ldrh	r2, [r3, #4]
   c:	799b      	ldrb	r3, [r3, #6]

0000000e <.LVL57>:
   e:	80a2      	strh	r2, [r4, #4]
  10:	f5a4 6777 	sub.w	r7, r4, #3952	; 0xf70
  14:	71a3      	strb	r3, [r4, #6]
  16:	f8b7 3f6c 	ldrh.w	r3, [r7, #3948]	; 0xf6c
  1a:	f043 0302 	orr.w	r3, r3, #2
  1e:	f8a7 3f6c 	strh.w	r3, [r7, #3948]	; 0xf6c
  22:	f8d7 3f68 	ldr.w	r3, [r7, #3944]	; 0xf68
  26:	005a      	lsls	r2, r3, #1
  28:	b08b      	sub	sp, #44	; 0x2c

0000002a <.LCFI5>:
  2a:	468e      	mov	lr, r1
  2c:	d53f      	bpl.n	ae <.LCFI7>
  2e:	f8d7 3f94 	ldr.w	r3, [r7, #3988]	; 0xf94
  32:	f3c3 6c02 	ubfx	ip, r3, #24, #3

00000036 <.LVL58>:
  36:	f8d7 3f68 	ldr.w	r3, [r7, #3944]	; 0xf68

0000003a <.LVL59>:
  3a:	f36c 4312 	bfi	r3, ip, #16, #3
  3e:	f8c7 3f68 	str.w	r3, [r7, #3944]	; 0xf68
  42:	4625      	mov	r5, r4
  44:	cd0f      	ldmia	r5!, {r0, r1, r2, r3}

00000046 <.LVL60>:
  46:	466e      	mov	r6, sp
  48:	c60f      	stmia	r6!, {r0, r1, r2, r3}
  4a:	cd0f      	ldmia	r5!, {r0, r1, r2, r3}
  4c:	c60f      	stmia	r6!, {r0, r1, r2, r3}
  4e:	e895 0003 	ldmia.w	r5, {r0, r1}
  52:	f846 0b04 	str.w	r0, [r6], #4
  56:	f826 1b02 	strh.w	r1, [r6], #2
  5a:	f89d 3000 	ldrb.w	r3, [sp]
  5e:	0c09      	lsrs	r1, r1, #16
  60:	7031      	strb	r1, [r6, #0]

00000062 <.LVL61>:
  62:	f00e 0e01 	and.w	lr, lr, #1

00000066 <.LVL62>:
  66:	ae0a      	add	r6, sp, #40	; 0x28
  68:	f36e 0341 	bfi	r3, lr, #1, #1
  6c:	f806 3d28 	strb.w	r3, [r6, #-40]!
  70:	ce0f      	ldmia	r6!, {r0, r1, r2, r3}
  72:	c40f      	stmia	r4!, {r0, r1, r2, r3}
  74:	ce0f      	ldmia	r6!, {r0, r1, r2, r3}
  76:	c40f      	stmia	r4!, {r0, r1, r2, r3}
  78:	e896 0003 	ldmia.w	r6, {r0, r1}
  7c:	6028      	str	r0, [r5, #0]
  7e:	80a9      	strh	r1, [r5, #4]
  80:	0c09      	lsrs	r1, r1, #16
  82:	71a9      	strb	r1, [r5, #6]
  84:	f8d7 3f68 	ldr.w	r3, [r7, #3944]	; 0xf68
  88:	f443 1380 	orr.w	r3, r3, #1048576	; 0x100000
  8c:	f8c7 3f68 	str.w	r3, [r7, #3944]	; 0xf68
  90:	f8d7 3f68 	ldr.w	r3, [r7, #3944]	; 0xf68
  94:	02db      	lsls	r3, r3, #11
  96:	d4fb      	bmi.n	90 <.LVL62+0x2a>
  98:	2327      	movs	r3, #39	; 0x27
  9a:	4a07      	ldr	r2, [pc, #28]	; (b8 <.LCFI7+0xa>)
  9c:	fb03 f30c 	mul.w	r3, r3, ip
  a0:	2000      	movs	r0, #0
  a2:	5cd1      	ldrb	r1, [r2, r3]
  a4:	f36e 0141 	bfi	r1, lr, #1, #1
  a8:	54d1      	strb	r1, [r2, r3]

000000aa <.LVL63>:
  aa:	b00b      	add	sp, #44	; 0x2c

000000ac <.LCFI6>:
  ac:	bdf0      	pop	{r4, r5, r6, r7, pc}

000000ae <.LCFI7>:
  ae:	2002      	movs	r0, #2
  b0:	e7fb      	b.n	aa <.LVL63>
  b2:	bf00      	nop
  b4:	00000f70 	.word	0x00000f70
  b8:	00000000 	.word	0x00000000

Disassembly of section .text.hal_bt_privacy_find_device_in_rl:

00000000 <hal_bt_privacy_find_device_in_rl>:
   0:	4b12      	ldr	r3, [pc, #72]	; (4c <.LVL70+0x8>)
   2:	4602      	mov	r2, r0
   4:	6800      	ldr	r0, [r0, #0]

00000006 <.LVL66>:
   6:	6018      	str	r0, [r3, #0]
   8:	8890      	ldrh	r0, [r2, #4]
   a:	7992      	ldrb	r2, [r2, #6]

0000000c <.LVL67>:
   c:	8098      	strh	r0, [r3, #4]
   e:	719a      	strb	r2, [r3, #6]
  10:	f833 2c04 	ldrh.w	r2, [r3, #-4]
  14:	f042 0202 	orr.w	r2, r2, #2
  18:	f823 2c04 	strh.w	r2, [r3, #-4]
  1c:	f853 2c08 	ldr.w	r2, [r3, #-8]
  20:	0052      	lsls	r2, r2, #1
  22:	f5a3 6377 	sub.w	r3, r3, #3952	; 0xf70
  26:	d50d      	bpl.n	44 <.LVL70>
  28:	4a09      	ldr	r2, [pc, #36]	; (50 <.LVL70+0xc>)
  2a:	f8d3 3f94 	ldr.w	r3, [r3, #3988]	; 0xf94
  2e:	7812      	ldrb	r2, [r2, #0]
  30:	f3c3 6302 	ubfx	r3, r3, #24, #3

00000034 <.LVL68>:
  34:	40da      	lsrs	r2, r3
  36:	f012 0f01 	tst.w	r2, #1
  3a:	bf14      	ite	ne
  3c:	2000      	movne	r0, #0
  3e:	2002      	moveq	r0, #2

00000040 <.LVL69>:
  40:	700b      	strb	r3, [r1, #0]
  42:	4770      	bx	lr

00000044 <.LVL70>:
  44:	2002      	movs	r0, #2
  46:	2300      	movs	r3, #0
  48:	e7fa      	b.n	40 <.LVL69>
  4a:	bf00      	nop
  4c:	00000f70 	.word	0x00000f70
  50:	00000000 	.word	0x00000000

Disassembly of section .text.hal_bt_privacy_check_device_valid:

00000000 <hal_bt_privacy_check_device_valid>:
   0:	4b03      	ldr	r3, [pc, #12]	; (10 <.LVL72+0x8>)
   2:	781b      	ldrb	r3, [r3, #0]
   4:	fa23 f000 	lsr.w	r0, r3, r0

00000008 <.LVL72>:
   8:	f000 0001 	and.w	r0, r0, #1
   c:	4770      	bx	lr
   e:	bf00      	nop
  10:	00000000 	.word	0x00000000

Disassembly of section .text.hal_bt_privacy_check_local_irk_valid:

00000000 <hal_bt_privacy_check_local_irk_valid>:
   0:	4b14      	ldr	r3, [pc, #80]	; (54 <.LVL83+0x8>)
   2:	4602      	mov	r2, r0
   4:	6800      	ldr	r0, [r0, #0]

00000006 <.LVL74>:
   6:	6018      	str	r0, [r3, #0]
   8:	8891      	ldrh	r1, [r2, #4]
   a:	7992      	ldrb	r2, [r2, #6]

0000000c <.LVL75>:
   c:	8099      	strh	r1, [r3, #4]
   e:	719a      	strb	r2, [r3, #6]
  10:	f833 2c04 	ldrh.w	r2, [r3, #-4]
  14:	f042 0202 	orr.w	r2, r2, #2
  18:	f823 2c04 	strh.w	r2, [r3, #-4]
  1c:	f853 0c08 	ldr.w	r0, [r3, #-8]
  20:	f3c0 7080 	ubfx	r0, r0, #30, #1
  24:	f5a3 6377 	sub.w	r3, r3, #3952	; 0xf70
  28:	b180      	cbz	r0, 4c <.LVL83>

0000002a <.LVL76>:
  2a:	f8d3 3f94 	ldr.w	r3, [r3, #3988]	; 0xf94
  2e:	f3c3 6302 	ubfx	r3, r3, #24, #3

00000032 <.LVL77>:
  32:	4a09      	ldr	r2, [pc, #36]	; (58 <.LVL83+0xc>)

00000034 <.LBB6>:
  34:	4909      	ldr	r1, [pc, #36]	; (5c <.LVL83+0x10>)

00000036 <.LBE6>:
  36:	7812      	ldrb	r2, [r2, #0]

00000038 <.LBB9>:
  38:	5cc9      	ldrb	r1, [r1, r3]

0000003a <.LBE9>:
  3a:	b130      	cbz	r0, 4a <.LVL82>

0000003c <.LVL80>:
  3c:	fa22 f003 	lsr.w	r0, r2, r3
  40:	f010 0001 	ands.w	r0, r0, #1

00000044 <.LVL81>:
  44:	bf18      	it	ne
  46:	f081 0001 	eorne.w	r0, r1, #1

0000004a <.LVL82>:
  4a:	4770      	bx	lr

0000004c <.LVL83>:
  4c:	2000      	movs	r0, #0
  4e:	4603      	mov	r3, r0
  50:	e7ef      	b.n	32 <.LVL77>
  52:	bf00      	nop
  54:	00000f70 	.word	0x00000f70
	...

Disassembly of section .text.hal_bt_privacy_check_if_local_irk_all_zero:

00000000 <hal_bt_privacy_check_if_local_irk_all_zero>:
   0:	4b01      	ldr	r3, [pc, #4]	; (8 <.LVL85+0x4>)
   2:	5c18      	ldrb	r0, [r3, r0]

00000004 <.LVL85>:
   4:	4770      	bx	lr
   6:	bf00      	nop
   8:	00000000 	.word	0x00000000

Disassembly of section .text.hal_bt_privacy_check_peer_irk_valid:

00000000 <hal_bt_privacy_check_peer_irk_valid>:
   0:	b570      	push	{r4, r5, r6, lr}

00000002 <.LCFI8>:
   2:	4c25      	ldr	r4, [pc, #148]	; (98 <.LVL99+0x4>)
   4:	4603      	mov	r3, r0
   6:	6800      	ldr	r0, [r0, #0]

00000008 <.LVL87>:
   8:	6020      	str	r0, [r4, #0]
   a:	889a      	ldrh	r2, [r3, #4]
   c:	799b      	ldrb	r3, [r3, #6]

0000000e <.LVL88>:
   e:	80a2      	strh	r2, [r4, #4]
  10:	71a3      	strb	r3, [r4, #6]
  12:	f834 2c04 	ldrh.w	r2, [r4, #-4]
  16:	f042 0202 	orr.w	r2, r2, #2
  1a:	f824 2c04 	strh.w	r2, [r4, #-4]
  1e:	f854 2c08 	ldr.w	r2, [r4, #-8]
  22:	0053      	lsls	r3, r2, #1
  24:	b08a      	sub	sp, #40	; 0x28

00000026 <.LCFI9>:
  26:	d523      	bpl.n	70 <.LVL94>

00000028 <.LVL89>:
  28:	6a62      	ldr	r2, [r4, #36]	; 0x24
  2a:	f854 1c08 	ldr.w	r1, [r4, #-8]
  2e:	f3c2 6202 	ubfx	r2, r2, #24, #3
  32:	f362 4112 	bfi	r1, r2, #16, #3
  36:	f844 1c08 	str.w	r1, [r4, #-8]
  3a:	6a66      	ldr	r6, [r4, #36]	; 0x24
  3c:	cc0f      	ldmia	r4!, {r0, r1, r2, r3}
  3e:	466d      	mov	r5, sp
  40:	c50f      	stmia	r5!, {r0, r1, r2, r3}
  42:	cc0f      	ldmia	r4!, {r0, r1, r2, r3}
  44:	c50f      	stmia	r5!, {r0, r1, r2, r3}
  46:	e894 0003 	ldmia.w	r4, {r0, r1}
  4a:	f845 0b04 	str.w	r0, [r5], #4
  4e:	f825 1b02 	strh.w	r1, [r5], #2
  52:	0c09      	lsrs	r1, r1, #16
  54:	f3c6 6602 	ubfx	r6, r6, #24, #3

00000058 <.LVL90>:
  58:	7029      	strb	r1, [r5, #0]
  5a:	2300      	movs	r3, #0

0000005c <.LVL91>:
  5c:	eb0d 0203 	add.w	r2, sp, r3
  60:	79d2      	ldrb	r2, [r2, #7]
  62:	b98a      	cbnz	r2, 88 <.LCFI11>

00000064 <.LVL92>:
  64:	3301      	adds	r3, #1

00000066 <.LVL93>:
  66:	2b10      	cmp	r3, #16
  68:	d1f8      	bne.n	5c <.LVL91>
  6a:	2201      	movs	r2, #1
  6c:	2001      	movs	r0, #1
  6e:	e002      	b.n	76 <.LVL95>

00000070 <.LVL94>:
  70:	2000      	movs	r0, #0
  72:	2201      	movs	r2, #1
  74:	4606      	mov	r6, r0

00000076 <.LVL95>:
  76:	4b09      	ldr	r3, [pc, #36]	; (9c <.LVL99+0x8>)
  78:	781b      	ldrb	r3, [r3, #0]
  7a:	40f3      	lsrs	r3, r6
  7c:	f013 0301 	ands.w	r3, r3, #1
  80:	d104      	bne.n	8c <.LVL98>
  82:	4618      	mov	r0, r3

00000084 <.LVL96>:
  84:	b00a      	add	sp, #40	; 0x28

00000086 <.LCFI10>:
  86:	bd70      	pop	{r4, r5, r6, pc}

00000088 <.LCFI11>:
  88:	2200      	movs	r2, #0
  8a:	e7ef      	b.n	6c <.LVL93+0x6>

0000008c <.LVL98>:
  8c:	2800      	cmp	r0, #0
  8e:	d0f9      	beq.n	84 <.LVL96>
  90:	f082 0001 	eor.w	r0, r2, #1

00000094 <.LVL99>:
  94:	e7f6      	b.n	84 <.LVL96>
  96:	bf00      	nop
  98:	00000f70 	.word	0x00000f70
  9c:	00000000 	.word	0x00000000

Disassembly of section .text.hal_bt_privacy_check_if_peer_irk_all_zero:

00000000 <hal_bt_privacy_check_if_peer_irk_all_zero>:
   0:	b570      	push	{r4, r5, r6, lr}

00000002 <.LCFI12>:
   2:	4c1e      	ldr	r4, [pc, #120]	; (7c <.LVL111+0x6>)
   4:	4603      	mov	r3, r0
   6:	6800      	ldr	r0, [r0, #0]

00000008 <.LVL101>:
   8:	6020      	str	r0, [r4, #0]
   a:	889a      	ldrh	r2, [r3, #4]
   c:	799b      	ldrb	r3, [r3, #6]

0000000e <.LVL102>:
   e:	80a2      	strh	r2, [r4, #4]
  10:	71a3      	strb	r3, [r4, #6]
  12:	f834 2c04 	ldrh.w	r2, [r4, #-4]
  16:	f042 0202 	orr.w	r2, r2, #2
  1a:	f824 2c04 	strh.w	r2, [r4, #-4]
  1e:	f854 2c08 	ldr.w	r2, [r4, #-8]
  22:	0053      	lsls	r3, r2, #1
  24:	b08a      	sub	sp, #40	; 0x28

00000026 <.LCFI13>:
  26:	460e      	mov	r6, r1
  28:	d521      	bpl.n	6e <.LCFI15>
  2a:	6a62      	ldr	r2, [r4, #36]	; 0x24
  2c:	f854 1c08 	ldr.w	r1, [r4, #-8]

00000030 <.LVL103>:
  30:	f3c2 6202 	ubfx	r2, r2, #24, #3
  34:	f362 4112 	bfi	r1, r2, #16, #3
  38:	f844 1c08 	str.w	r1, [r4, #-8]
  3c:	cc0f      	ldmia	r4!, {r0, r1, r2, r3}
  3e:	466d      	mov	r5, sp
  40:	c50f      	stmia	r5!, {r0, r1, r2, r3}
  42:	cc0f      	ldmia	r4!, {r0, r1, r2, r3}
  44:	c50f      	stmia	r5!, {r0, r1, r2, r3}
  46:	e894 0003 	ldmia.w	r4, {r0, r1}
  4a:	f845 0b04 	str.w	r0, [r5], #4
  4e:	f825 1b02 	strh.w	r1, [r5], #2
  52:	0c09      	lsrs	r1, r1, #16
  54:	7029      	strb	r1, [r5, #0]

00000056 <.LVL104>:
  56:	2300      	movs	r3, #0

00000058 <.LVL105>:
  58:	eb0d 0203 	add.w	r2, sp, r3
  5c:	79d0      	ldrb	r0, [r2, #7]
  5e:	b948      	cbnz	r0, 74 <.LVL110>

00000060 <.LVL106>:
  60:	3301      	adds	r3, #1

00000062 <.LVL107>:
  62:	2b10      	cmp	r3, #16
  64:	d1f8      	bne.n	58 <.LVL105>
  66:	2301      	movs	r3, #1

00000068 <.LVL108>:
  68:	7033      	strb	r3, [r6, #0]
  6a:	b00a      	add	sp, #40	; 0x28

0000006c <.LCFI14>:
  6c:	bd70      	pop	{r4, r5, r6, pc}

0000006e <.LCFI15>:
  6e:	2301      	movs	r3, #1
  70:	2002      	movs	r0, #2
  72:	e7f9      	b.n	68 <.LVL108>

00000074 <.LVL110>:
  74:	2300      	movs	r3, #0

00000076 <.LVL111>:
  76:	4618      	mov	r0, r3
  78:	e7f6      	b.n	68 <.LVL108>
  7a:	bf00      	nop
  7c:	00000f70 	.word	0x00000f70

Disassembly of section .text.hal_bt_check_if_local_irk_allowed:

00000000 <hal_bt_check_if_local_irk_allowed>:
   0:	e92d 43f8 	stmdb	sp!, {r3, r4, r5, r6, r7, r8, r9, lr}

00000004 <.LCFI16>:
   4:	4606      	mov	r6, r0
   6:	f7ff fffe 	bl	0 <hal_bt_check_if_local_irk_allowed>

0000000a <.LVL113>:
   a:	b9e8      	cbnz	r0, 48 <.LVL119>
   c:	4b0f      	ldr	r3, [pc, #60]	; (4c <.LVL120>)

0000000e <.LBB10>:
   e:	4f10      	ldr	r7, [pc, #64]	; (50 <.LVL120+0x4>)

00000010 <.LBE10>:
  10:	781d      	ldrb	r5, [r3, #0]
  12:	f8df 9040 	ldr.w	r9, [pc, #64]	; 54 <.LVL120+0x8>
  16:	4604      	mov	r4, r0
  18:	f04f 0827 	mov.w	r8, #39	; 0x27
  1c:	2001      	movs	r0, #1

0000001e <.LVL114>:
  1e:	fa25 f304 	lsr.w	r3, r5, r4
  22:	07db      	lsls	r3, r3, #31
  24:	d50d      	bpl.n	42 <.LVL117>
  26:	5de3      	ldrb	r3, [r4, r7]
  28:	b95b      	cbnz	r3, 42 <.LVL117>
  2a:	fb08 9004 	mla	r0, r8, r4, r9
  2e:	2210      	movs	r2, #16
  30:	4631      	mov	r1, r6
  32:	3017      	adds	r0, #23
  34:	f7ff fffe 	bl	0 <memcmp>

00000038 <.LVL115>:
  38:	2800      	cmp	r0, #0
  3a:	bf0c      	ite	eq
  3c:	2001      	moveq	r0, #1
  3e:	2000      	movne	r0, #0

00000040 <.LVL116>:
  40:	d102      	bne.n	48 <.LVL119>

00000042 <.LVL117>:
  42:	3401      	adds	r4, #1

00000044 <.LVL118>:
  44:	2c08      	cmp	r4, #8
  46:	d1ea      	bne.n	1e <.LVL114>

00000048 <.LVL119>:
  48:	e8bd 83f8 	ldmia.w	sp!, {r3, r4, r5, r6, r7, r8, r9, pc}

0000004c <.LVL120>:
	...

ble_hal_task.o:     file format elf32-littlearm


Disassembly of section .text.hal_task_preschedule:

00000000 <hal_task_preschedule>:
   0:	b510      	push	{r4, lr}

00000002 <.LCFI0>:
   2:	bb08      	cbnz	r0, 48 <.LVL3>
   4:	4b27      	ldr	r3, [pc, #156]	; (a4 <.LVL8+0x14>)
   6:	6818      	ldr	r0, [r3, #0]

00000008 <.LVL1>:
   8:	05c4      	lsls	r4, r0, #23
   a:	d53e      	bpl.n	8a <.LVL6+0x14>
   c:	4618      	mov	r0, r3
   e:	b2d2      	uxtb	r2, r2

00000010 <.LVL2>:
  10:	f830 4d20 	ldrh.w	r4, [r0, #-32]!
  14:	f362 0407 	bfi	r4, r2, #0, #8
  18:	8004      	strh	r4, [r0, #0]
  1a:	2903      	cmp	r1, #3
  1c:	d835      	bhi.n	8a <.LVL6+0x14>
  1e:	e8df f001 	tbb	[pc, r1]
  22:	0f06      	.short	0x0f06
  24:	0b02      	.short	0x0b02
  26:	681a      	ldr	r2, [r3, #0]
  28:	f042 0210 	orr.w	r2, r2, #16
  2c:	601a      	str	r2, [r3, #0]
  2e:	681a      	ldr	r2, [r3, #0]
  30:	f042 0201 	orr.w	r2, r2, #1
  34:	601a      	str	r2, [r3, #0]
  36:	bd10      	pop	{r4, pc}
  38:	681a      	ldr	r2, [r3, #0]
  3a:	f042 0210 	orr.w	r2, r2, #16
  3e:	601a      	str	r2, [r3, #0]
  40:	681a      	ldr	r2, [r3, #0]
  42:	f042 0202 	orr.w	r2, r2, #2
  46:	e7f5      	b.n	34 <.LVL2+0x24>

00000048 <.LVL3>:
  48:	2801      	cmp	r0, #1
  4a:	d11e      	bne.n	8a <.LVL6+0x14>
  4c:	4b16      	ldr	r3, [pc, #88]	; (a8 <.LVL8+0x18>)
  4e:	f241 6028 	movw	r0, #5672	; 0x1628

00000052 <.LVL4>:
  52:	5818      	ldr	r0, [r3, r0]
  54:	05c0      	lsls	r0, r0, #23
  56:	d518      	bpl.n	8a <.LVL6+0x14>
  58:	f241 6008 	movw	r0, #5640	; 0x1608
  5c:	b2d2      	uxtb	r2, r2

0000005e <.LVL5>:
  5e:	5a1c      	ldrh	r4, [r3, r0]
  60:	f362 0407 	bfi	r4, r2, #0, #8
  64:	521c      	strh	r4, [r3, r0]
  66:	2903      	cmp	r1, #3
  68:	d80f      	bhi.n	8a <.LVL6+0x14>
  6a:	e8df f001 	tbb	[pc, r1]
  6e:	1508      	.short	0x1508
  70:	0f02      	.short	0x0f02
  72:	f241 6128 	movw	r1, #5672	; 0x1628

00000076 <.LVL6>:
  76:	5a5a      	ldrh	r2, [r3, r1]
  78:	f042 0210 	orr.w	r2, r2, #16
  7c:	525a      	strh	r2, [r3, r1]
  7e:	f241 6128 	movw	r1, #5672	; 0x1628
  82:	5a5a      	ldrh	r2, [r3, r1]
  84:	f042 0201 	orr.w	r2, r2, #1
  88:	525a      	strh	r2, [r3, r1]
  8a:	bd10      	pop	{r4, pc}

0000008c <.LVL7>:
  8c:	f241 6128 	movw	r1, #5672	; 0x1628

00000090 <.LVL8>:
  90:	5a5a      	ldrh	r2, [r3, r1]
  92:	f042 0210 	orr.w	r2, r2, #16
  96:	525a      	strh	r2, [r3, r1]
  98:	f241 6128 	movw	r1, #5672	; 0x1628
  9c:	5a5a      	ldrh	r2, [r3, r1]
  9e:	f042 0202 	orr.w	r2, r2, #2
  a2:	e7f1      	b.n	88 <.LVL6+0x12>
  a4:	00001620 	.word	0x00001620
  a8:	00000000 	.word	0x00000000

Disassembly of section .text.hal_task_idle_check:

00000000 <hal_task_idle_check>:
   0:	b968      	cbnz	r0, 1e <.LVL11>
   2:	4a0e      	ldr	r2, [pc, #56]	; (3c <.LVL12+0x16>)
   4:	6813      	ldr	r3, [r2, #0]
   6:	f013 0301 	ands.w	r3, r3, #1
   a:	d115      	bne.n	38 <.LVL12+0x12>
   c:	6811      	ldr	r1, [r2, #0]
   e:	0788      	lsls	r0, r1, #30

00000010 <.LVL10>:
  10:	d411      	bmi.n	36 <.LVL12+0x10>
  12:	6810      	ldr	r0, [r2, #0]
  14:	f3c0 2000 	ubfx	r0, r0, #8, #1
  18:	f080 0001 	eor.w	r0, r0, #1
  1c:	4770      	bx	lr

0000001e <.LVL11>:
  1e:	4a08      	ldr	r2, [pc, #32]	; (40 <.LVL12+0x1a>)
  20:	f241 6328 	movw	r3, #5672	; 0x1628
  24:	58d0      	ldr	r0, [r2, r3]

00000026 <.LVL12>:
  26:	f010 0001 	ands.w	r0, r0, #1
  2a:	d104      	bne.n	36 <.LVL12+0x10>
  2c:	58d1      	ldr	r1, [r2, r3]
  2e:	0789      	lsls	r1, r1, #30
  30:	d402      	bmi.n	38 <.LVL12+0x12>
  32:	58d0      	ldr	r0, [r2, r3]
  34:	e7ee      	b.n	14 <.LVL10+0x4>
  36:	2000      	movs	r0, #0
  38:	4770      	bx	lr
  3a:	bf00      	nop
  3c:	00001620 	.word	0x00001620
  40:	00000000 	.word	0x00000000

Disassembly of section .text.hal_task_stop:

00000000 <hal_task_stop>:
   0:	b948      	cbnz	r0, 16 <.LVL15>
   2:	4b0b      	ldr	r3, [pc, #44]	; (30 <.LVL15+0x1a>)
   4:	681a      	ldr	r2, [r3, #0]
   6:	f042 0204 	orr.w	r2, r2, #4
   a:	601a      	str	r2, [r3, #0]
   c:	681a      	ldr	r2, [r3, #0]
   e:	05d2      	lsls	r2, r2, #23
  10:	d5fc      	bpl.n	c <hal_task_stop+0xc>
  12:	2001      	movs	r0, #1

00000014 <.LVL14>:
  14:	4770      	bx	lr

00000016 <.LVL15>:
  16:	f241 6228 	movw	r2, #5672	; 0x1628
  1a:	4906      	ldr	r1, [pc, #24]	; (34 <.LVL15+0x1e>)
  1c:	5a8b      	ldrh	r3, [r1, r2]
  1e:	f043 0304 	orr.w	r3, r3, #4
  22:	528b      	strh	r3, [r1, r2]
  24:	4a04      	ldr	r2, [pc, #16]	; (38 <.LVL15+0x22>)
  26:	6813      	ldr	r3, [r2, #0]
  28:	05db      	lsls	r3, r3, #23
  2a:	d5fc      	bpl.n	26 <.LVL15+0x10>
  2c:	e7f1      	b.n	12 <hal_task_stop+0x12>
  2e:	bf00      	nop
  30:	00001620 	.word	0x00001620
  34:	00000000 	.word	0x00000000
  38:	00001628 	.word	0x00001628

Disassembly of section .text.hal_task_t0t1_stop:

00000000 <hal_task_t0t1_stop>:
   0:	b5f7      	push	{r0, r1, r2, r4, r5, r6, r7, lr}

00000002 <.LCFI1>:
   2:	f241 6328 	movw	r3, #5672	; 0x1628
   6:	4c38      	ldr	r4, [pc, #224]	; (e8 <.LVL34+0xc>)
   8:	58e3      	ldr	r3, [r4, r3]
   a:	06dd      	lsls	r5, r3, #27
   c:	d557      	bpl.n	be <.LCFI3>
   e:	f7ff fffe 	bl	0 <BT_SYS_CpuIrqDisable>

00000012 <.LVL16>:
  12:	4b36      	ldr	r3, [pc, #216]	; (ec <.LVL34+0x10>)
  14:	9001      	str	r0, [sp, #4]
  16:	681a      	ldr	r2, [r3, #0]
  18:	f022 0273 	bic.w	r2, r2, #115	; 0x73
  1c:	601a      	str	r2, [r3, #0]
  1e:	681a      	ldr	r2, [r3, #0]
  20:	f042 020c 	orr.w	r2, r2, #12
  24:	601a      	str	r2, [r3, #0]

00000026 <.LVL17>:
  26:	2310      	movs	r3, #16

00000028 <.LVL18>:
  28:	bf00      	nop

0000002a <.LVL19>:
  2a:	3b01      	subs	r3, #1

0000002c <.LVL20>:
  2c:	f013 03ff 	ands.w	r3, r3, #255	; 0xff
  30:	d1fa      	bne.n	28 <.LVL18>
  32:	4b2f      	ldr	r3, [pc, #188]	; (f0 <.LVL34+0x14>)
  34:	681a      	ldr	r2, [r3, #0]
  36:	4e2f      	ldr	r6, [pc, #188]	; (f4 <.LVL34+0x18>)
  38:	f022 0273 	bic.w	r2, r2, #115	; 0x73
  3c:	601a      	str	r2, [r3, #0]
  3e:	681a      	ldr	r2, [r3, #0]
  40:	f042 020c 	orr.w	r2, r2, #12
  44:	601a      	str	r2, [r3, #0]
  46:	9801      	ldr	r0, [sp, #4]
  48:	f7ff fffe 	bl	0 <BT_SYS_CpuIrqEnable>

0000004c <.LVL21>:
  4c:	4b2a      	ldr	r3, [pc, #168]	; (f8 <.LVL34+0x1c>)
  4e:	6835      	ldr	r5, [r6, #0]
  50:	6837      	ldr	r7, [r6, #0]
  52:	6818      	ldr	r0, [r3, #0]
  54:	6819      	ldr	r1, [r3, #0]
  56:	681a      	ldr	r2, [r3, #0]
  58:	f3c5 05c0 	ubfx	r5, r5, #3, #1
  5c:	f3c7 0780 	ubfx	r7, r7, #2, #1
  60:	f3c0 0080 	ubfx	r0, r0, #2, #1
  64:	433d      	orrs	r5, r7
  66:	f012 6260 	ands.w	r2, r2, #234881024	; 0xe000000
  6a:	f3c1 01c0 	ubfx	r1, r1, #3, #1
  6e:	ea40 0005 	orr.w	r0, r0, r5
  72:	ea41 0100 	orr.w	r1, r1, r0
  76:	bf18      	it	ne
  78:	2201      	movne	r2, #1
  7a:	430a      	orrs	r2, r1
  7c:	d1e6      	bne.n	4c <.LVL21>
  7e:	f5a3 71e2 	sub.w	r1, r3, #452	; 0x1c4
  82:	f5a3 73e4 	sub.w	r3, r3, #456	; 0x1c8
  86:	680a      	ldr	r2, [r1, #0]
  88:	0710      	lsls	r0, r2, #28
  8a:	d1fc      	bne.n	86 <.LVL21+0x3a>
  8c:	681a      	ldr	r2, [r3, #0]
  8e:	06d2      	lsls	r2, r2, #27
  90:	d1f9      	bne.n	86 <.LVL21+0x3a>
  92:	6ae3      	ldr	r3, [r4, #44]	; 0x2c
  94:	f043 0301 	orr.w	r3, r3, #1
  98:	62e3      	str	r3, [r4, #44]	; 0x2c

0000009a <.LVL22>:
  9a:	2310      	movs	r3, #16

0000009c <.LVL23>:
  9c:	bf00      	nop

0000009e <.LVL24>:
  9e:	3b01      	subs	r3, #1

000000a0 <.LVL25>:
  a0:	f013 03ff 	ands.w	r3, r3, #255	; 0xff
  a4:	d1fa      	bne.n	9c <.LVL23>
  a6:	6ae2      	ldr	r2, [r4, #44]	; 0x2c
  a8:	f363 0200 	bfi	r2, r3, #0, #1
  ac:	62e2      	str	r2, [r4, #44]	; 0x2c

000000ae <.LVL26>:
  ae:	2310      	movs	r3, #16

000000b0 <.LVL27>:
  b0:	bf00      	nop

000000b2 <.LVL28>:
  b2:	3b01      	subs	r3, #1

000000b4 <.LVL29>:
  b4:	f013 03ff 	ands.w	r3, r3, #255	; 0xff
  b8:	d1fa      	bne.n	b0 <.LVL27>
  ba:	b003      	add	sp, #12

000000bc <.LCFI2>:
  bc:	bdf0      	pop	{r4, r5, r6, r7, pc}

000000be <.LCFI3>:
  be:	f7ff fffe 	bl	0 <BT_SYS_CpuIrqDisable>

000000c2 <.LVL30>:
  c2:	4b0b      	ldr	r3, [pc, #44]	; (f0 <.LVL34+0x14>)
  c4:	9001      	str	r0, [sp, #4]
  c6:	681a      	ldr	r2, [r3, #0]
  c8:	f022 0273 	bic.w	r2, r2, #115	; 0x73
  cc:	601a      	str	r2, [r3, #0]
  ce:	681a      	ldr	r2, [r3, #0]
  d0:	f042 020c 	orr.w	r2, r2, #12
  d4:	601a      	str	r2, [r3, #0]

000000d6 <.LVL31>:
  d6:	2310      	movs	r3, #16

000000d8 <.LVL32>:
  d8:	bf00      	nop

000000da <.LVL33>:
  da:	3b01      	subs	r3, #1

000000dc <.LVL34>:
  dc:	f013 03ff 	ands.w	r3, r3, #255	; 0xff
  e0:	d1fa      	bne.n	d8 <.LVL32>
  e2:	4b02      	ldr	r3, [pc, #8]	; (ec <.LVL34+0x10>)
  e4:	e7a6      	b.n	34 <.LVL20+0x8>
  e6:	bf00      	nop
  e8:	00000000 	.word	0x00000000
  ec:	41013a28 	.word	0x41013a28
  f0:	41013a20 	.word	0x41013a20
  f4:	00001628 	.word	0x00001628
  f8:	00001620 	.word	0x00001620

Disassembly of section .text.hal_task_immediate:

00000000 <hal_task_immediate>:
   0:	b510      	push	{r4, lr}

00000002 <.LCFI4>:
   2:	4b33      	ldr	r3, [pc, #204]	; (d0 <.LVL44+0x22>)
   4:	f503 52b0 	add.w	r2, r3, #5632	; 0x1600
   8:	8814      	ldrh	r4, [r2, #0]
   a:	f36f 0407 	bfc	r4, #0, #8
   e:	8014      	strh	r4, [r2, #0]
  10:	f241 6404 	movw	r4, #5636	; 0x1604
  14:	5b1a      	ldrh	r2, [r3, r4]
  16:	f042 02ff 	orr.w	r2, r2, #255	; 0xff
  1a:	531a      	strh	r2, [r3, r4]
  1c:	f241 6208 	movw	r2, #5640	; 0x1608
  20:	5a9c      	ldrh	r4, [r3, r2]
  22:	f36f 0407 	bfc	r4, #0, #8
  26:	529c      	strh	r4, [r3, r2]
  28:	f241 640c 	movw	r4, #5644	; 0x160c
  2c:	591a      	ldr	r2, [r3, r4]
  2e:	f042 02ff 	orr.w	r2, r2, #255	; 0xff
  32:	511a      	str	r2, [r3, r4]
  34:	bb18      	cbnz	r0, 7e <.LVL40>
  36:	f503 52b1 	add.w	r2, r3, #5664	; 0x1620
  3a:	6810      	ldr	r0, [r2, #0]

0000003c <.LVL36>:
  3c:	05c4      	lsls	r4, r0, #23
  3e:	d546      	bpl.n	ce <.LVL44+0x20>
  40:	b111      	cbz	r1, 48 <.LVL36+0xc>
  42:	2901      	cmp	r1, #1
  44:	d00b      	beq.n	5e <.LVL38>
  46:	bd10      	pop	{r4, pc}
  48:	f241 0004 	movw	r0, #4100	; 0x1004
  4c:	5a19      	ldrh	r1, [r3, r0]

0000004e <.LVL37>:
  4e:	f041 0101 	orr.w	r1, r1, #1
  52:	5219      	strh	r1, [r3, r0]
  54:	6813      	ldr	r3, [r2, #0]
  56:	f043 0301 	orr.w	r3, r3, #1
  5a:	6013      	str	r3, [r2, #0]
  5c:	bd10      	pop	{r4, pc}

0000005e <.LVL38>:
  5e:	f241 0008 	movw	r0, #4104	; 0x1008
  62:	5a19      	ldrh	r1, [r3, r0]

00000064 <.LVL39>:
  64:	f041 0101 	orr.w	r1, r1, #1
  68:	5219      	strh	r1, [r3, r0]
  6a:	f641 2018 	movw	r0, #6680	; 0x1a18
  6e:	5a19      	ldrh	r1, [r3, r0]
  70:	f441 7180 	orr.w	r1, r1, #256	; 0x100
  74:	5219      	strh	r1, [r3, r0]
  76:	6813      	ldr	r3, [r2, #0]
  78:	f043 0302 	orr.w	r3, r3, #2
  7c:	e7ed      	b.n	5a <.LVL37+0xc>

0000007e <.LVL40>:
  7e:	2801      	cmp	r0, #1
  80:	d125      	bne.n	ce <.LVL44+0x20>
  82:	f241 6228 	movw	r2, #5672	; 0x1628
  86:	5898      	ldr	r0, [r3, r2]

00000088 <.LVL41>:
  88:	05c0      	lsls	r0, r0, #23
  8a:	d520      	bpl.n	ce <.LVL44+0x20>
  8c:	b111      	cbz	r1, 94 <.LVL41+0xc>
  8e:	2901      	cmp	r1, #1
  90:	d00b      	beq.n	aa <.LVL43>
  92:	bd10      	pop	{r4, pc}
  94:	f241 0004 	movw	r0, #4100	; 0x1004
  98:	5a19      	ldrh	r1, [r3, r0]

0000009a <.LVL42>:
  9a:	f041 0101 	orr.w	r1, r1, #1
  9e:	5219      	strh	r1, [r3, r0]
  a0:	5a99      	ldrh	r1, [r3, r2]
  a2:	f041 0101 	orr.w	r1, r1, #1
  a6:	5299      	strh	r1, [r3, r2]
  a8:	bd10      	pop	{r4, pc}

000000aa <.LVL43>:
  aa:	f241 0108 	movw	r1, #4104	; 0x1008

000000ae <.LVL44>:
  ae:	5a5a      	ldrh	r2, [r3, r1]
  b0:	f042 0201 	orr.w	r2, r2, #1
  b4:	525a      	strh	r2, [r3, r1]
  b6:	f641 2118 	movw	r1, #6680	; 0x1a18
  ba:	5a5a      	ldrh	r2, [r3, r1]
  bc:	f442 7280 	orr.w	r2, r2, #256	; 0x100
  c0:	525a      	strh	r2, [r3, r1]
  c2:	f503 53b1 	add.w	r3, r3, #5664	; 0x1620
  c6:	681a      	ldr	r2, [r3, #0]
  c8:	f042 0202 	orr.w	r2, r2, #2
  cc:	601a      	str	r2, [r3, #0]
  ce:	bd10      	pop	{r4, pc}
  d0:	00000000 	.word	0x00000000

ble_hal_test.o:     file format elf32-littlearm


Disassembly of section .text.hal_test_id_packet_en:

00000000 <hal_test_id_packet_en>:
   0:	4b02      	ldr	r3, [pc, #8]	; (c <hal_test_id_packet_en+0xc>)
   2:	881a      	ldrh	r2, [r3, #0]
   4:	f360 12c7 	bfi	r2, r0, #7, #1
   8:	801a      	strh	r2, [r3, #0]
   a:	4770      	bx	lr
   c:	00001000 	.word	0x00001000

Disassembly of section .text.hal_test_whiten_moudle_bypass:

00000000 <hal_test_whiten_moudle_bypass>:
   0:	4b05      	ldr	r3, [pc, #20]	; (18 <.LVL2+0x10>)
   2:	881a      	ldrh	r2, [r3, #0]
   4:	f000 0001 	and.w	r0, r0, #1

00000008 <.LVL2>:
   8:	f360 1204 	bfi	r2, r0, #4, #1
   c:	801a      	strh	r2, [r3, #0]
   e:	881a      	ldrh	r2, [r3, #0]
  10:	f360 02c3 	bfi	r2, r0, #3, #1
  14:	801a      	strh	r2, [r3, #0]
  16:	4770      	bx	lr
  18:	00001000 	.word	0x00001000

ble_isr_adv.o:     file format elf32-littlearm


Disassembly of section .text.ble_isr_AdvSchParIdleHandler:

00000000 <ble_isr_AdvSchParIdleHandler>:
   0:	b507      	push	{r0, r1, r2, lr}

00000002 <.LCFI0>:
   2:	ab02      	add	r3, sp, #8
   4:	2204      	movs	r2, #4
   6:	f843 0d04 	str.w	r0, [r3, #-4]!
   a:	4903      	ldr	r1, [pc, #12]	; (18 <.LCFI1+0x4>)
   c:	2000      	movs	r0, #0

0000000e <.LVL1>:
   e:	f7ff fffe 	bl	0 <BLE_MsgHandler>

00000012 <.LVL2>:
  12:	b003      	add	sp, #12

00000014 <.LCFI1>:
  14:	f85d fb04 	ldr.w	pc, [sp], #4
  18:	00010003 	.word	0x00010003

Disassembly of section .text.ble_isr_AdvSchParScanRspTakenHandler:

00000000 <ble_isr_AdvSchParScanRspTakenHandler>:
   0:	b507      	push	{r0, r1, r2, lr}

00000002 <.LCFI2>:
   2:	ab02      	add	r3, sp, #8
   4:	2204      	movs	r2, #4
   6:	f843 0d04 	str.w	r0, [r3, #-4]!
   a:	4903      	ldr	r1, [pc, #12]	; (18 <.LCFI3+0x4>)
   c:	2000      	movs	r0, #0

0000000e <.LVL4>:
   e:	f7ff fffe 	bl	0 <BLE_MsgHandler>

00000012 <.LVL5>:
  12:	b003      	add	sp, #12

00000014 <.LCFI3>:
  14:	f85d fb04 	ldr.w	pc, [sp], #4
  18:	00010006 	.word	0x00010006

Disassembly of section .text.ble_isr_AdvSchParConnReqReceivedHandler:

00000000 <ble_isr_AdvSchParConnReqReceivedHandler>:
   0:	b507      	push	{r0, r1, r2, lr}

00000002 <.LCFI4>:
   2:	ab02      	add	r3, sp, #8
   4:	2204      	movs	r2, #4
   6:	f843 0d04 	str.w	r0, [r3, #-4]!
   a:	4903      	ldr	r1, [pc, #12]	; (18 <.LCFI5+0x4>)
   c:	2000      	movs	r0, #0

0000000e <.LVL7>:
   e:	f7ff fffe 	bl	0 <BLE_MsgHandler>

00000012 <.LVL8>:
  12:	b003      	add	sp, #12

00000014 <.LCFI5>:
  14:	f85d fb04 	ldr.w	pc, [sp], #4
  18:	00010005 	.word	0x00010005

Disassembly of section .text.ble_isr_AdvSchParErrHandler:

00000000 <ble_isr_AdvSchParErrHandler>:
   0:	b507      	push	{r0, r1, r2, lr}

00000002 <.LCFI6>:
   2:	ab02      	add	r3, sp, #8
   4:	2204      	movs	r2, #4
   6:	f843 0d04 	str.w	r0, [r3, #-4]!
   a:	4903      	ldr	r1, [pc, #12]	; (18 <.LCFI7+0x4>)
   c:	2000      	movs	r0, #0

0000000e <.LVL10>:
   e:	f7ff fffe 	bl	0 <BLE_MsgHandler>

00000012 <.LVL11>:
  12:	b003      	add	sp, #12

00000014 <.LCFI7>:
  14:	f85d fb04 	ldr.w	pc, [sp], #4
  18:	00010004 	.word	0x00010004

Disassembly of section .text.ble_isr_AdvLeCorrelOk8mhzHandler:

00000000 <ble_isr_AdvLeCorrelOk8mhzHandler>:
   0:	b507      	push	{r0, r1, r2, lr}

00000002 <.LCFI8>:
   2:	ab02      	add	r3, sp, #8
   4:	2204      	movs	r2, #4
   6:	f843 0d04 	str.w	r0, [r3, #-4]!
   a:	4903      	ldr	r1, [pc, #12]	; (18 <.LCFI9+0x4>)
   c:	2000      	movs	r0, #0

0000000e <.LVL13>:
   e:	f7ff fffe 	bl	0 <BLE_MsgHandler>

00000012 <.LVL14>:
  12:	b003      	add	sp, #12

00000014 <.LCFI9>:
  14:	f85d fb04 	ldr.w	pc, [sp], #4
  18:	00010002 	.word	0x00010002

Disassembly of section .text.ble_isr_AdvLePlRcvErrHandler:

00000000 <ble_isr_AdvLePlRcvErrHandler>:
   0:	b507      	push	{r0, r1, r2, lr}

00000002 <.LCFI10>:
   2:	6803      	ldr	r3, [r0, #0]
   4:	f8d3 30ac 	ldr.w	r3, [r3, #172]	; 0xac
   8:	785b      	ldrb	r3, [r3, #1]
   a:	2b22      	cmp	r3, #34	; 0x22
   c:	d908      	bls.n	20 <.LBE6>

0000000e <.LBB6>:
   e:	ab02      	add	r3, sp, #8
  10:	2204      	movs	r2, #4
  12:	f843 0d04 	str.w	r0, [r3, #-4]!
  16:	f04f 1101 	mov.w	r1, #65537	; 0x10001
  1a:	2000      	movs	r0, #0

0000001c <.LVL17>:
  1c:	f7ff fffe 	bl	0 <BLE_MsgHandler>

00000020 <.LBE6>:
  20:	b003      	add	sp, #12

00000022 <.LCFI11>:
  22:	f85d fb04 	ldr.w	pc, [sp], #4

Disassembly of section .text.BLE_ISR_AdvInit:

00000000 <BLE_ISR_AdvInit>:
   0:	4b05      	ldr	r3, [pc, #20]	; (18 <BLE_ISR_AdvInit+0x18>)
   2:	4a06      	ldr	r2, [pc, #24]	; (1c <BLE_ISR_AdvInit+0x1c>)
   4:	631a      	str	r2, [r3, #48]	; 0x30
   6:	4a06      	ldr	r2, [pc, #24]	; (20 <BLE_ISR_AdvInit+0x20>)
   8:	635a      	str	r2, [r3, #52]	; 0x34
   a:	4a06      	ldr	r2, [pc, #24]	; (24 <BLE_ISR_AdvInit+0x24>)
   c:	639a      	str	r2, [r3, #56]	; 0x38
   e:	4a06      	ldr	r2, [pc, #24]	; (28 <BLE_ISR_AdvInit+0x28>)
  10:	63da      	str	r2, [r3, #60]	; 0x3c
  12:	2000      	movs	r0, #0
  14:	4770      	bx	lr
  16:	bf00      	nop
	...

Disassembly of section .text.BLE_ISR_AdvAssignLeCorrelOk8mhzEntry:

00000000 <BLE_ISR_AdvAssignLeCorrelOk8mhzEntry>:
   0:	4b01      	ldr	r3, [pc, #4]	; (8 <BLE_ISR_AdvAssignLeCorrelOk8mhzEntry+0x8>)
   2:	4a02      	ldr	r2, [pc, #8]	; (c <BLE_ISR_AdvAssignLeCorrelOk8mhzEntry+0xc>)
   4:	62da      	str	r2, [r3, #44]	; 0x2c
   6:	4770      	bx	lr
	...

Disassembly of section .text.BLE_ISR_AdvAssignLePlRcvErrEntry:

00000000 <BLE_ISR_AdvAssignLePlRcvErrEntry>:
   0:	4b01      	ldr	r3, [pc, #4]	; (8 <BLE_ISR_AdvAssignLePlRcvErrEntry+0x8>)
   2:	4a02      	ldr	r2, [pc, #8]	; (c <BLE_ISR_AdvAssignLePlRcvErrEntry+0xc>)
   4:	631a      	str	r2, [r3, #48]	; 0x30
   6:	4770      	bx	lr
	...

ble_isr_ini.o:     file format elf32-littlearm


Disassembly of section .text.ble_isr_IniScnAdvEvtDetectedHandler:

00000000 <ble_isr_IniScnAdvEvtDetectedHandler>:
   0:	b507      	push	{r0, r1, r2, lr}

00000002 <.LCFI0>:
   2:	ab02      	add	r3, sp, #8
   4:	2204      	movs	r2, #4
   6:	f843 0d04 	str.w	r0, [r3, #-4]!
   a:	4903      	ldr	r1, [pc, #12]	; (18 <.LCFI1+0x4>)
   c:	2000      	movs	r0, #0

0000000e <.LVL1>:
   e:	f7ff fffe 	bl	0 <BLE_MsgHandler>

00000012 <.LVL2>:
  12:	b003      	add	sp, #12

00000014 <.LCFI1>:
  14:	f85d fb04 	ldr.w	pc, [sp], #4
  18:	00010203 	.word	0x00010203

Disassembly of section .text.ble_isr_IniScnErrHandler:

00000000 <ble_isr_IniScnErrHandler>:
   0:	b507      	push	{r0, r1, r2, lr}

00000002 <.LCFI2>:
   2:	4b0d      	ldr	r3, [pc, #52]	; (38 <.LCFI3+0x6>)
   4:	f8d3 211c 	ldr.w	r2, [r3, #284]	; 0x11c
   8:	0211      	lsls	r1, r2, #8
   a:	d403      	bmi.n	14 <.LCFI2+0x12>
   c:	f8d3 211c 	ldr.w	r2, [r3, #284]	; 0x11c
  10:	01d2      	lsls	r2, r2, #7
  12:	d505      	bpl.n	20 <.LCFI2+0x1e>
  14:	f8d3 2100 	ldr.w	r2, [r3, #256]	; 0x100
  18:	f442 5200 	orr.w	r2, r2, #8192	; 0x2000
  1c:	f8c3 2100 	str.w	r2, [r3, #256]	; 0x100
  20:	ab02      	add	r3, sp, #8
  22:	2204      	movs	r2, #4
  24:	f843 0d04 	str.w	r0, [r3, #-4]!
  28:	4904      	ldr	r1, [pc, #16]	; (3c <.LCFI3+0xa>)
  2a:	2000      	movs	r0, #0

0000002c <.LVL4>:
  2c:	f7ff fffe 	bl	0 <BLE_MsgHandler>

00000030 <.LVL5>:
  30:	b003      	add	sp, #12

00000032 <.LCFI3>:
  32:	f85d fb04 	ldr.w	pc, [sp], #4
  36:	bf00      	nop
  38:	00000000 	.word	0x00000000
  3c:	00010202 	.word	0x00010202

Disassembly of section .text.ble_isr_IniScnProDoneHandler:

00000000 <ble_isr_IniScnProDoneHandler>:
   0:	b507      	push	{r0, r1, r2, lr}

00000002 <.LCFI4>:
   2:	ab02      	add	r3, sp, #8
   4:	2204      	movs	r2, #4
   6:	f843 0d04 	str.w	r0, [r3, #-4]!
   a:	4903      	ldr	r1, [pc, #12]	; (18 <.LCFI5+0x4>)
   c:	2000      	movs	r0, #0

0000000e <.LVL7>:
   e:	f7ff fffe 	bl	0 <BLE_MsgHandler>

00000012 <.LVL8>:
  12:	b003      	add	sp, #12

00000014 <.LCFI5>:
  14:	f85d fb04 	ldr.w	pc, [sp], #4
  18:	00010201 	.word	0x00010201

Disassembly of section .text.ble_isr_IniLePlRcvOkHandler:

00000000 <ble_isr_IniLePlRcvOkHandler>:
   0:	b507      	push	{r0, r1, r2, lr}

00000002 <.LCFI6>:
   2:	ab02      	add	r3, sp, #8
   4:	2204      	movs	r2, #4
   6:	f843 0d04 	str.w	r0, [r3, #-4]!
   a:	4903      	ldr	r1, [pc, #12]	; (18 <.LCFI7+0x4>)
   c:	2000      	movs	r0, #0

0000000e <.LVL10>:
   e:	f7ff fffe 	bl	0 <BLE_MsgHandler>

00000012 <.LVL11>:
  12:	b003      	add	sp, #12

00000014 <.LCFI7>:
  14:	f85d fb04 	ldr.w	pc, [sp], #4
  18:	00010204 	.word	0x00010204

Disassembly of section .text.BLE_ISR_IniAssignScnAdvEvtDetectedEntry:

00000000 <BLE_ISR_IniAssignScnAdvEvtDetectedEntry>:
   0:	4b01      	ldr	r3, [pc, #4]	; (8 <BLE_ISR_IniAssignScnAdvEvtDetectedEntry+0x8>)
   2:	4a02      	ldr	r2, [pc, #8]	; (c <BLE_ISR_IniAssignScnAdvEvtDetectedEntry+0xc>)
   4:	621a      	str	r2, [r3, #32]
   6:	4770      	bx	lr
	...

Disassembly of section .text.BLE_ISR_IniAssignScnErrEntry:

00000000 <BLE_ISR_IniAssignScnErrEntry>:
   0:	4b01      	ldr	r3, [pc, #4]	; (8 <BLE_ISR_IniAssignScnErrEntry+0x8>)
   2:	4a02      	ldr	r2, [pc, #8]	; (c <BLE_ISR_IniAssignScnErrEntry+0xc>)
   4:	625a      	str	r2, [r3, #36]	; 0x24
   6:	4770      	bx	lr
	...

Disassembly of section .text.BLE_ISR_IniAssignScnProDoneEntry:

00000000 <BLE_ISR_IniAssignScnProDoneEntry>:
   0:	4b01      	ldr	r3, [pc, #4]	; (8 <BLE_ISR_IniAssignScnProDoneEntry+0x8>)
   2:	4a02      	ldr	r2, [pc, #8]	; (c <BLE_ISR_IniAssignScnProDoneEntry+0xc>)
   4:	629a      	str	r2, [r3, #40]	; 0x28
   6:	4770      	bx	lr
	...

Disassembly of section .text.BLE_ISR_IniAssignLePlRcvOkEntry:

00000000 <BLE_ISR_IniAssignLePlRcvOkEntry>:
   0:	4b01      	ldr	r3, [pc, #4]	; (8 <BLE_ISR_IniAssignLePlRcvOkEntry+0x8>)
   2:	4a02      	ldr	r2, [pc, #8]	; (c <BLE_ISR_IniAssignLePlRcvOkEntry+0xc>)
   4:	635a      	str	r2, [r3, #52]	; 0x34
   6:	4770      	bx	lr
	...

ble_isr_scn.o:     file format elf32-littlearm


Disassembly of section .text.ble_isr_ScnAdvEvtDetectedHandler:

00000000 <ble_isr_ScnAdvEvtDetectedHandler>:
   0:	b507      	push	{r0, r1, r2, lr}

00000002 <.LCFI0>:
   2:	ab02      	add	r3, sp, #8
   4:	2204      	movs	r2, #4
   6:	f843 0d04 	str.w	r0, [r3, #-4]!
   a:	4903      	ldr	r1, [pc, #12]	; (18 <.LCFI1+0x4>)
   c:	2000      	movs	r0, #0

0000000e <.LVL1>:
   e:	f7ff fffe 	bl	0 <BLE_MsgHandler>

00000012 <.LVL2>:
  12:	b003      	add	sp, #12

00000014 <.LCFI1>:
  14:	f85d fb04 	ldr.w	pc, [sp], #4
  18:	00010103 	.word	0x00010103

Disassembly of section .text.ble_isr_ScnErrHandler:

00000000 <ble_isr_ScnErrHandler>:
   0:	b507      	push	{r0, r1, r2, lr}

00000002 <.LCFI2>:
   2:	ab02      	add	r3, sp, #8
   4:	2204      	movs	r2, #4
   6:	f843 0d04 	str.w	r0, [r3, #-4]!
   a:	4903      	ldr	r1, [pc, #12]	; (18 <.LCFI3+0x4>)
   c:	2000      	movs	r0, #0

0000000e <.LVL4>:
   e:	f7ff fffe 	bl	0 <BLE_MsgHandler>

00000012 <.LVL5>:
  12:	b003      	add	sp, #12

00000014 <.LCFI3>:
  14:	f85d fb04 	ldr.w	pc, [sp], #4
  18:	00010102 	.word	0x00010102

Disassembly of section .text.ble_isr_ScnProDoneHandler:

00000000 <ble_isr_ScnProDoneHandler>:
   0:	b507      	push	{r0, r1, r2, lr}

00000002 <.LCFI4>:
   2:	ab02      	add	r3, sp, #8
   4:	2204      	movs	r2, #4
   6:	f843 0d04 	str.w	r0, [r3, #-4]!
   a:	4903      	ldr	r1, [pc, #12]	; (18 <.LCFI5+0x4>)
   c:	2000      	movs	r0, #0

0000000e <.LVL7>:
   e:	f7ff fffe 	bl	0 <BLE_MsgHandler>

00000012 <.LVL8>:
  12:	b003      	add	sp, #12

00000014 <.LCFI5>:
  14:	f85d fb04 	ldr.w	pc, [sp], #4
  18:	00010101 	.word	0x00010101

Disassembly of section .text.ble_isr_ScnLePlRcvOkHandler:

00000000 <ble_isr_ScnLePlRcvOkHandler>:
   0:	b507      	push	{r0, r1, r2, lr}

00000002 <.LCFI6>:
   2:	ab02      	add	r3, sp, #8
   4:	2204      	movs	r2, #4
   6:	f843 0d04 	str.w	r0, [r3, #-4]!
   a:	4903      	ldr	r1, [pc, #12]	; (18 <.LCFI7+0x4>)
   c:	2000      	movs	r0, #0

0000000e <.LVL10>:
   e:	f7ff fffe 	bl	0 <BLE_MsgHandler>

00000012 <.LVL11>:
  12:	b003      	add	sp, #12

00000014 <.LCFI7>:
  14:	f85d fb04 	ldr.w	pc, [sp], #4
  18:	00010104 	.word	0x00010104

Disassembly of section .text.BLE_ISR_ScnAssignScnAdvEvtDetectedEntry:

00000000 <BLE_ISR_ScnAssignScnAdvEvtDetectedEntry>:
   0:	4b01      	ldr	r3, [pc, #4]	; (8 <BLE_ISR_ScnAssignScnAdvEvtDetectedEntry+0x8>)
   2:	4a02      	ldr	r2, [pc, #8]	; (c <BLE_ISR_ScnAssignScnAdvEvtDetectedEntry+0xc>)
   4:	621a      	str	r2, [r3, #32]
   6:	4770      	bx	lr
	...

Disassembly of section .text.BLE_ISR_ScnAssignScnErrEntry:

00000000 <BLE_ISR_ScnAssignScnErrEntry>:
   0:	4b01      	ldr	r3, [pc, #4]	; (8 <BLE_ISR_ScnAssignScnErrEntry+0x8>)
   2:	4a02      	ldr	r2, [pc, #8]	; (c <BLE_ISR_ScnAssignScnErrEntry+0xc>)
   4:	625a      	str	r2, [r3, #36]	; 0x24
   6:	4770      	bx	lr
	...

Disassembly of section .text.BLE_ISR_ScnAssignScnProDoneEntry:

00000000 <BLE_ISR_ScnAssignScnProDoneEntry>:
   0:	4b01      	ldr	r3, [pc, #4]	; (8 <BLE_ISR_ScnAssignScnProDoneEntry+0x8>)
   2:	4a02      	ldr	r2, [pc, #8]	; (c <BLE_ISR_ScnAssignScnProDoneEntry+0xc>)
   4:	629a      	str	r2, [r3, #40]	; 0x28
   6:	4770      	bx	lr
	...

Disassembly of section .text.BLE_ISR_ScnAssignLePlRcvOkEntry:

00000000 <BLE_ISR_ScnAssignLePlRcvOkEntry>:
   0:	4b01      	ldr	r3, [pc, #4]	; (8 <BLE_ISR_ScnAssignLePlRcvOkEntry+0x8>)
   2:	4a02      	ldr	r2, [pc, #8]	; (c <BLE_ISR_ScnAssignLePlRcvOkEntry+0xc>)
   4:	635a      	str	r2, [r3, #52]	; 0x34
   6:	4770      	bx	lr
	...

ble_isr_sync.o:     file format elf32-littlearm


Disassembly of section .text.ble_isr_SyncLeCorrelOkHandler:

00000000 <ble_isr_SyncLeCorrelOkHandler>:
   0:	b510      	push	{r4, lr}

00000002 <.LCFI0>:
   2:	6804      	ldr	r4, [r0, #0]

00000004 <.LVL1>:
   4:	6e23      	ldr	r3, [r4, #96]	; 0x60
   6:	3301      	adds	r3, #1
   8:	d102      	bne.n	10 <.LVL2+0x2>
   a:	f7ff fffe 	bl	0 <bt_hal_read_clknu>

0000000e <.LVL2>:
   e:	6620      	str	r0, [r4, #96]	; 0x60
  10:	bd10      	pop	{r4, pc}

Disassembly of section .text.ble_isr_SyncScnErrHandler:

00000000 <ble_isr_SyncScnErrHandler>:
   0:	b507      	push	{r0, r1, r2, lr}

00000002 <.LCFI1>:
   2:	ab02      	add	r3, sp, #8
   4:	2204      	movs	r2, #4
   6:	f843 0d04 	str.w	r0, [r3, #-4]!
   a:	4903      	ldr	r1, [pc, #12]	; (18 <.LCFI2+0x4>)
   c:	2000      	movs	r0, #0

0000000e <.LVL4>:
   e:	f7ff fffe 	bl	0 <BLE_MsgHandler>

00000012 <.LVL5>:
  12:	b003      	add	sp, #12

00000014 <.LCFI2>:
  14:	f85d fb04 	ldr.w	pc, [sp], #4
  18:	00010301 	.word	0x00010301

Disassembly of section .text.ble_isr_SyncScnProDoneHandler:

00000000 <ble_isr_SyncScnProDoneHandler>:
   0:	b507      	push	{r0, r1, r2, lr}

00000002 <.LCFI3>:
   2:	ab02      	add	r3, sp, #8
   4:	2204      	movs	r2, #4
   6:	f843 0d04 	str.w	r0, [r3, #-4]!
   a:	4903      	ldr	r1, [pc, #12]	; (18 <.LCFI4+0x4>)
   c:	2000      	movs	r0, #0

0000000e <.LVL7>:
   e:	f7ff fffe 	bl	0 <BLE_MsgHandler>

00000012 <.LVL8>:
  12:	b003      	add	sp, #12

00000014 <.LCFI4>:
  14:	f85d fb04 	ldr.w	pc, [sp], #4
  18:	00010300 	.word	0x00010300

Disassembly of section .text.ble_isr_SyncLePlRcvOkHandler:

00000000 <ble_isr_SyncLePlRcvOkHandler>:
   0:	b507      	push	{r0, r1, r2, lr}

00000002 <.LCFI5>:
   2:	ab02      	add	r3, sp, #8
   4:	2204      	movs	r2, #4
   6:	f843 0d04 	str.w	r0, [r3, #-4]!
   a:	4903      	ldr	r1, [pc, #12]	; (18 <.LCFI6+0x4>)
   c:	2000      	movs	r0, #0

0000000e <.LVL10>:
   e:	f7ff fffe 	bl	0 <BLE_MsgHandler>

00000012 <.LVL11>:
  12:	b003      	add	sp, #12

00000014 <.LCFI6>:
  14:	f85d fb04 	ldr.w	pc, [sp], #4
  18:	00010303 	.word	0x00010303

Disassembly of section .text.BLE_LE_ISR_SyncAssignLeCorrelOkEntry:

00000000 <BLE_LE_ISR_SyncAssignLeCorrelOkEntry>:
   0:	4b01      	ldr	r3, [pc, #4]	; (8 <BLE_LE_ISR_SyncAssignLeCorrelOkEntry+0x8>)
   2:	4a02      	ldr	r2, [pc, #8]	; (c <BLE_LE_ISR_SyncAssignLeCorrelOkEntry+0xc>)
   4:	62da      	str	r2, [r3, #44]	; 0x2c
   6:	4770      	bx	lr
	...

Disassembly of section .text.BLE_ISR_SyncAssignScnErrEntry:

00000000 <BLE_ISR_SyncAssignScnErrEntry>:
   0:	4b01      	ldr	r3, [pc, #4]	; (8 <BLE_ISR_SyncAssignScnErrEntry+0x8>)
   2:	4a02      	ldr	r2, [pc, #8]	; (c <BLE_ISR_SyncAssignScnErrEntry+0xc>)
   4:	625a      	str	r2, [r3, #36]	; 0x24
   6:	4770      	bx	lr
	...

Disassembly of section .text.BLE_ISR_SyncAssignScnProDoneEntry:

00000000 <BLE_ISR_SyncAssignScnProDoneEntry>:
   0:	4b01      	ldr	r3, [pc, #4]	; (8 <BLE_ISR_SyncAssignScnProDoneEntry+0x8>)
   2:	4a02      	ldr	r2, [pc, #8]	; (c <BLE_ISR_SyncAssignScnProDoneEntry+0xc>)
   4:	629a      	str	r2, [r3, #40]	; 0x28
   6:	4770      	bx	lr
	...

Disassembly of section .text.BLE_ISR_SyncAssignLePlRcvOkEntry:

00000000 <BLE_ISR_SyncAssignLePlRcvOkEntry>:
   0:	4b01      	ldr	r3, [pc, #4]	; (8 <BLE_ISR_SyncAssignLePlRcvOkEntry+0x8>)
   2:	4a02      	ldr	r2, [pc, #8]	; (c <BLE_ISR_SyncAssignLePlRcvOkEntry+0xc>)
   4:	635a      	str	r2, [r3, #52]	; 0x34
   6:	4770      	bx	lr
	...

ble_lc_adv_main.o:     file format elf32-littlearm


Disassembly of section .text.BLE_LC_AdvMainSetBBIrq.part.0:

00000000 <BLE_LC_AdvMainSetBBIrq.part.0>:
   0:	b508      	push	{r3, lr}

00000002 <.LCFI0>:
   2:	f7ff fffe 	bl	0 <BLE_ISR_AdvAssignLeCorrelOk8mhzEntry>

00000006 <.LVL1>:
   6:	f7ff fffe 	bl	0 <BLE_ISR_AdvAssignLePlRcvErrEntry>

0000000a <.LVL2>:
   a:	f44f 51c4 	mov.w	r1, #6272	; 0x1880
   e:	2000      	movs	r0, #0
  10:	f7ff fffe 	bl	0 <hal_bt_sys_set_interrupt_mask>

00000014 <.LVL3>:
  14:	2100      	movs	r1, #0
  16:	2001      	movs	r0, #1
  18:	f7ff fffe 	bl	0 <hal_bt_sys_set_interrupt_mask>

0000001c <.LVL4>:
  1c:	f24f 0130 	movw	r1, #61488	; 0xf030
  20:	2002      	movs	r0, #2
  22:	e8bd 4008 	ldmia.w	sp!, {r3, lr}

00000026 <.LCFI1>:
  26:	f7ff bffe 	b.w	0 <hal_bt_sys_set_interrupt_mask>

Disassembly of section .text.ble_lc_AdvMainCheckIfGrantedAnchorIsPassed:

00000000 <ble_lc_AdvMainCheckIfGrantedAnchorIsPassed>:
   0:	b510      	push	{r4, lr}

00000002 <.LCFI2>:
   2:	4604      	mov	r4, r0
   4:	f7ff fffe 	bl	0 <bt_hal_read_clknu>

00000008 <.LVL7>:
   8:	4601      	mov	r1, r0
   a:	4620      	mov	r0, r4

0000000c <.LVL8>:
   c:	f7ff fffe 	bl	0 <BLE_CLK_ClkuSub>

00000010 <.LVL9>:
  10:	4b02      	ldr	r3, [pc, #8]	; (1c <.LVL11>)
  12:	4298      	cmp	r0, r3
  14:	bf94      	ite	ls
  16:	2000      	movls	r0, #0

00000018 <.LVL10>:
  18:	2001      	movhi	r0, #1
  1a:	bd10      	pop	{r4, pc}

0000001c <.LVL11>:
  1c:	7ffffe38 	.word	0x7ffffe38

Disassembly of section .text.BLE_LC_AdvMainInit:

00000000 <BLE_LC_AdvMainInit>:
   0:	b510      	push	{r4, lr}

00000002 <.LCFI3>:
   2:	4b05      	ldr	r3, [pc, #20]	; (18 <.LVL13+0x4>)
   4:	4905      	ldr	r1, [pc, #20]	; (1c <.LVL13+0x8>)
   6:	2400      	movs	r4, #0
   8:	4620      	mov	r0, r4
   a:	601c      	str	r4, [r3, #0]
   c:	605c      	str	r4, [r3, #4]
   e:	609c      	str	r4, [r3, #8]
  10:	f7ff fffe 	bl	0 <BLE_LC_MainRegModEntry>

00000014 <.LVL13>:
  14:	4620      	mov	r0, r4
  16:	bd10      	pop	{r4, pc}
	...

Disassembly of section .text.ble_lc_AdvPriRandomIdxChange:

00000000 <ble_lc_AdvPriRandomIdxChange>:
   0:	b573      	push	{r0, r1, r4, r5, r6, lr}

00000002 <.LCFI4>:
   2:	f8d0 3160 	ldr.w	r3, [r0, #352]	; 0x160
   6:	7f05      	ldrb	r5, [r0, #28]

00000008 <.LVL15>:
   8:	68dc      	ldr	r4, [r3, #12]

0000000a <.LVL16>:
   a:	4606      	mov	r6, r0
   c:	2101      	movs	r1, #1
   e:	f10d 0007 	add.w	r0, sp, #7

00000012 <.LVL17>:
  12:	f7ff fffe 	bl	0 <BT_SYS_RandGet>

00000016 <.LVL18>:
  16:	f89d 1007 	ldrb.w	r1, [sp, #7]
  1a:	2306      	movs	r3, #6
  1c:	fbb1 f2f3 	udiv	r2, r1, r3
  20:	fb03 1212 	mls	r2, r3, r2, r1
  24:	f896 1063 	ldrb.w	r1, [r6, #99]	; 0x63
  28:	b2d2      	uxtb	r2, r2
  2a:	290b      	cmp	r1, #11
  2c:	f88d 2007 	strb.w	r2, [sp, #7]
  30:	f04f 0301 	mov.w	r3, #1
  34:	d80c      	bhi.n	50 <.LVL19>
  36:	fa03 f101 	lsl.w	r1, r3, r1
  3a:	f011 0f05 	tst.w	r1, #5
  3e:	d11d      	bne.n	7c <.LCFI6>
  40:	f640 70c8 	movw	r0, #4040	; 0xfc8
  44:	4201      	tst	r1, r0
  46:	d103      	bne.n	50 <.LVL19>
  48:	f011 0f12 	tst.w	r1, #18
  4c:	bf18      	it	ne
  4e:	2302      	movne	r3, #2

00000050 <.LVL19>:
  50:	490b      	ldr	r1, [pc, #44]	; (80 <.LCFI6+0x4>)
  52:	eb02 0242 	add.w	r2, r2, r2, lsl #1
  56:	440a      	add	r2, r1
  58:	011b      	lsls	r3, r3, #4

0000005a <.LVL20>:
  5a:	2100      	movs	r1, #0

0000005c <.LVL21>:
  5c:	fa25 f001 	lsr.w	r0, r5, r1
  60:	07c0      	lsls	r0, r0, #31
  62:	d506      	bpl.n	72 <.LVL23>

00000064 <.LVL22>:
  64:	5c50      	ldrb	r0, [r2, r1]
  66:	68a6      	ldr	r6, [r4, #8]
  68:	3025      	adds	r0, #37	; 0x25
  6a:	f360 06c8 	bfi	r6, r0, #3, #6
  6e:	60a6      	str	r6, [r4, #8]
  70:	441c      	add	r4, r3

00000072 <.LVL23>:
  72:	3101      	adds	r1, #1

00000074 <.LVL24>:
  74:	2903      	cmp	r1, #3
  76:	d1f1      	bne.n	5c <.LVL21>
  78:	b002      	add	sp, #8

0000007a <.LCFI5>:
  7a:	bd70      	pop	{r4, r5, r6, pc}

0000007c <.LCFI6>:
  7c:	2303      	movs	r3, #3
  7e:	e7e7      	b.n	50 <.LVL19>
  80:	00000000 	.word	0x00000000

Disassembly of section .text.BLE_LC_AdvMainRegSetSyncInfoFunc:

00000000 <BLE_LC_AdvMainRegSetSyncInfoFunc>:
   0:	4b01      	ldr	r3, [pc, #4]	; (8 <BLE_LC_AdvMainRegSetSyncInfoFunc+0x8>)
   2:	6018      	str	r0, [r3, #0]
   4:	4770      	bx	lr
   6:	bf00      	nop
   8:	00000000 	.word	0x00000000

Disassembly of section .text.BLE_LC_AdvMainRegSetPeriAdvHwFunc:

00000000 <BLE_LC_AdvMainRegSetPeriAdvHwFunc>:
   0:	4b01      	ldr	r3, [pc, #4]	; (8 <BLE_LC_AdvMainRegSetPeriAdvHwFunc+0x8>)
   2:	6058      	str	r0, [r3, #4]
   4:	4770      	bx	lr
   6:	bf00      	nop
   8:	00000000 	.word	0x00000000

Disassembly of section .text.BLE_LC_AdvMainRegSetCalFirstAnchorFunc:

00000000 <BLE_LC_AdvMainRegSetCalFirstAnchorFunc>:
   0:	4b01      	ldr	r3, [pc, #4]	; (8 <BLE_LC_AdvMainRegSetCalFirstAnchorFunc+0x8>)
   2:	6098      	str	r0, [r3, #8]
   4:	4770      	bx	lr
   6:	bf00      	nop
   8:	00000000 	.word	0x00000000

Disassembly of section .text.BLE_LC_AdvMainHandleAbort:

00000000 <BLE_LC_AdvMainHandleAbort>:
   0:	b510      	push	{r4, lr}

00000002 <.LCFI7>:
   2:	6802      	ldr	r2, [r0, #0]

00000004 <.LVL30>:
   4:	f892 30ca 	ldrb.w	r3, [r2, #202]	; 0xca
   8:	2b01      	cmp	r3, #1
   a:	d127      	bne.n	5c <.LBE28>

0000000c <.LBB28>:
   c:	4b17      	ldr	r3, [pc, #92]	; (6c <.LVL37+0x4>)
   e:	f641 2458 	movw	r4, #6744	; 0x1a58
  12:	5918      	ldr	r0, [r3, r4]

00000014 <.LVL32>:
  14:	f440 6000 	orr.w	r0, r0, #2048	; 0x800
  18:	5118      	str	r0, [r3, r4]
  1a:	7809      	ldrb	r1, [r1, #0]

0000001c <.LVL33>:
  1c:	2901      	cmp	r1, #1
  1e:	d11f      	bne.n	60 <.LBB29>
  20:	f882 1150 	strb.w	r1, [r2, #336]	; 0x150
  24:	f641 215c 	movw	r1, #6748	; 0x1a5c
  28:	585b      	ldr	r3, [r3, r1]
  2a:	0c1b      	lsrs	r3, r3, #16
  2c:	f103 5300 	add.w	r3, r3, #536870912	; 0x20000000
  30:	f503 3380 	add.w	r3, r3, #65536	; 0x10000

00000034 <.LVL34>:
  34:	6819      	ldr	r1, [r3, #0]
  36:	f001 0107 	and.w	r1, r1, #7
  3a:	2902      	cmp	r1, #2
  3c:	dc14      	bgt.n	68 <.LVL37>
  3e:	6899      	ldr	r1, [r3, #8]
  40:	f3c1 01c5 	ubfx	r1, r1, #3, #6
  44:	2924      	cmp	r1, #36	; 0x24
  46:	dc07      	bgt.n	58 <.LVL35+0xc>
  48:	f8d2 317c 	ldr.w	r3, [r2, #380]	; 0x17c

0000004c <.LVL35>:
  4c:	681b      	ldr	r3, [r3, #0]
  4e:	f3c3 1341 	ubfx	r3, r3, #5, #2
  52:	2b02      	cmp	r3, #2
  54:	d102      	bne.n	5c <.LBE28>
  56:	2300      	movs	r3, #0
  58:	f8c2 317c 	str.w	r3, [r2, #380]	; 0x17c

0000005c <.LBE28>:
  5c:	2000      	movs	r0, #0
  5e:	bd10      	pop	{r4, pc}

00000060 <.LBB29>:
  60:	2900      	cmp	r1, #0
  62:	d1df      	bne.n	24 <.LVL33+0x8>
  64:	2102      	movs	r1, #2
  66:	e7db      	b.n	20 <.LVL33+0x4>

00000068 <.LVL37>:
  68:	3b10      	subs	r3, #16
  6a:	e7e3      	b.n	34 <.LVL34>
  6c:	00000000 	.word	0x00000000

Disassembly of section .text.BLE_LC_AdvMainSetBBIrq:

00000000 <BLE_LC_AdvMainSetBBIrq>:
   0:	b510      	push	{r4, lr}

00000002 <.LCFI8>:
   2:	4604      	mov	r4, r0
   4:	b118      	cbz	r0, e <.LCFI10>
   6:	e8bd 4010 	ldmia.w	sp!, {r4, lr}

0000000a <.LCFI9>:
   a:	f7ff bffe 	b.w	0 <BLE_LC_AdvMainSetBBIrq>

0000000e <.LCFI10>:
   e:	f64f 71ff 	movw	r1, #65535	; 0xffff
  12:	f7ff fffe 	bl	0 <hal_bt_sys_clear_interrupts>

00000016 <.LVL41>:
  16:	f64f 71ff 	movw	r1, #65535	; 0xffff
  1a:	2001      	movs	r0, #1
  1c:	f7ff fffe 	bl	0 <hal_bt_sys_clear_interrupts>

00000020 <.LVL42>:
  20:	f64f 71ff 	movw	r1, #65535	; 0xffff
  24:	2002      	movs	r0, #2
  26:	f7ff fffe 	bl	0 <hal_bt_sys_clear_interrupts>

0000002a <.LVL43>:
  2a:	4620      	mov	r0, r4
  2c:	2180      	movs	r1, #128	; 0x80
  2e:	f7ff fffe 	bl	0 <hal_bt_sys_set_interrupt_mask>

00000032 <.LVL44>:
  32:	4621      	mov	r1, r4
  34:	2001      	movs	r0, #1
  36:	f7ff fffe 	bl	0 <hal_bt_sys_set_interrupt_mask>

0000003a <.LVL45>:
  3a:	2130      	movs	r1, #48	; 0x30
  3c:	2002      	movs	r0, #2
  3e:	e8bd 4010 	ldmia.w	sp!, {r4, lr}

00000042 <.LCFI11>:
  42:	f7ff bffe 	b.w	0 <hal_bt_sys_set_interrupt_mask>

Disassembly of section .text.ble_lc_AdvMainHandleHighDutyAdvTimeout:

00000000 <ble_lc_AdvMainHandleHighDutyAdvTimeout>:
   0:	6802      	ldr	r2, [r0, #0]

00000002 <.LVL48>:
   2:	f892 30ca 	ldrb.w	r3, [r2, #202]	; 0xca
   6:	2b01      	cmp	r3, #1
   8:	d109      	bne.n	1e <.LVL50+0xe>
   a:	4806      	ldr	r0, [pc, #24]	; (24 <.LVL50+0x14>)

0000000c <.LVL49>:
   c:	f641 2158 	movw	r1, #6744	; 0x1a58

00000010 <.LVL50>:
  10:	5843      	ldr	r3, [r0, r1]
  12:	f443 6300 	orr.w	r3, r3, #2048	; 0x800
  16:	5043      	str	r3, [r0, r1]
  18:	2305      	movs	r3, #5
  1a:	f882 3150 	strb.w	r3, [r2, #336]	; 0x150
  1e:	2000      	movs	r0, #0
  20:	4770      	bx	lr
  22:	bf00      	nop
  24:	00000000 	.word	0x00000000

Disassembly of section .text.ble_lc_AdvMainHandleAbnormalLongPkt:

00000000 <ble_lc_AdvMainHandleAbnormalLongPkt>:
   0:	b508      	push	{r3, lr}

00000002 <.LCFI12>:
   2:	6800      	ldr	r0, [r0, #0]

00000004 <.LVL52>:
   4:	f890 30ca 	ldrb.w	r3, [r0, #202]	; 0xca
   8:	2b01      	cmp	r3, #1
   a:	d111      	bne.n	30 <.LVL55>
   c:	4909      	ldr	r1, [pc, #36]	; (34 <.LVL55+0x4>)

0000000e <.LVL53>:
   e:	f641 2258 	movw	r2, #6744	; 0x1a58
  12:	588b      	ldr	r3, [r1, r2]
  14:	f443 6300 	orr.w	r3, r3, #2048	; 0x800
  18:	508b      	str	r3, [r1, r2]
  1a:	2306      	movs	r3, #6
  1c:	f880 3150 	strb.w	r3, [r0, #336]	; 0x150
  20:	f890 3063 	ldrb.w	r3, [r0, #99]	; 0x63
  24:	2b01      	cmp	r3, #1
  26:	d103      	bne.n	30 <.LVL55>
  28:	f500 70c0 	add.w	r0, r0, #384	; 0x180

0000002c <.LVL54>:
  2c:	f7ff fffe 	bl	0 <BT_SYS_TimerStop>

00000030 <.LVL55>:
  30:	2000      	movs	r0, #0
  32:	bd08      	pop	{r3, pc}
  34:	00000000 	.word	0x00000000

Disassembly of section .text.ble_lc_AdvMainHandleSchParErrIrq:

00000000 <ble_lc_AdvMainHandleSchParErrIrq>:
   0:	6802      	ldr	r2, [r0, #0]

00000002 <.LVL57>:
   2:	f892 30ca 	ldrb.w	r3, [r2, #202]	; 0xca
   6:	2b01      	cmp	r3, #1
   8:	d115      	bne.n	36 <.LVL60+0x18>
   a:	4b0c      	ldr	r3, [pc, #48]	; (3c <.LVL60+0x1e>)
   c:	f641 2158 	movw	r1, #6744	; 0x1a58

00000010 <.LVL58>:
  10:	5858      	ldr	r0, [r3, r1]

00000012 <.LVL59>:
  12:	f440 6000 	orr.w	r0, r0, #2048	; 0x800
  16:	5058      	str	r0, [r3, r1]
  18:	f892 00cb 	ldrb.w	r0, [r2, #203]	; 0xcb
  1c:	4402      	add	r2, r0

0000001e <.LVL60>:
  1e:	2003      	movs	r0, #3
  20:	f882 0150 	strb.w	r0, [r2, #336]	; 0x150
  24:	585a      	ldr	r2, [r3, r1]
  26:	0652      	lsls	r2, r2, #25
  28:	bf41      	itttt	mi
  2a:	f503 53d4 	addmi.w	r3, r3, #6784	; 0x1a80
  2e:	881a      	ldrhmi	r2, [r3, #0]
  30:	f042 0208 	orrmi.w	r2, r2, #8
  34:	801a      	strhmi	r2, [r3, #0]
  36:	2000      	movs	r0, #0
  38:	4770      	bx	lr
  3a:	bf00      	nop
  3c:	00000000 	.word	0x00000000

Disassembly of section .text.ble_lc_AdvMainCheckConnReqPara:

00000000 <ble_lc_AdvMainCheckConnReqPara>:
   0:	8ac3      	ldrh	r3, [r0, #22]
   2:	3b06      	subs	r3, #6
   4:	b29b      	uxth	r3, r3
   6:	f640 427a 	movw	r2, #3194	; 0xc7a
   a:	4293      	cmp	r3, r2
   c:	d80d      	bhi.n	2a <.LVL63>
   e:	8b43      	ldrh	r3, [r0, #26]
  10:	3b0a      	subs	r3, #10
  12:	b29b      	uxth	r3, r3
  14:	f640 4276 	movw	r2, #3190	; 0xc76
  18:	4293      	cmp	r3, r2
  1a:	d806      	bhi.n	2a <.LVL63>
  1c:	4b04      	ldr	r3, [pc, #16]	; (30 <.LVL64+0x2>)
  1e:	6898      	ldr	r0, [r3, #8]

00000020 <.LVL62>:
  20:	fab0 f080 	clz	r0, r0
  24:	0940      	lsrs	r0, r0, #5
  26:	4240      	negs	r0, r0
  28:	4770      	bx	lr

0000002a <.LVL63>:
  2a:	f04f 30ff 	mov.w	r0, #4294967295

0000002e <.LVL64>:
  2e:	4770      	bx	lr
  30:	00000000 	.word	0x00000000

Disassembly of section .text.ble_lc_AdvMainHandleSchParScanRspTakenIrq:

00000000 <ble_lc_AdvMainHandleSchParScanRspTakenIrq>:
   0:	b530      	push	{r4, r5, lr}

00000002 <.LCFI13>:
   2:	6803      	ldr	r3, [r0, #0]

00000004 <.LVL66>:
   4:	7b1a      	ldrb	r2, [r3, #12]
   6:	b087      	sub	sp, #28

00000008 <.LCFI14>:
   8:	4605      	mov	r5, r0
   a:	2a00      	cmp	r2, #0
   c:	d040      	beq.n	90 <.LBE32>

0000000e <.LBB30>:
   e:	4c2a      	ldr	r4, [pc, #168]	; (b8 <.LVL75+0x1a>)

00000010 <.LBE30>:
  10:	f8d3 00ac 	ldr.w	r0, [r3, #172]	; 0xac

00000014 <.LBB31>:
  14:	f8d4 2f6c 	ldr.w	r2, [r4, #3948]	; 0xf6c

00000018 <.LBE31>:
  18:	f8d3 10a8 	ldr.w	r1, [r3, #168]	; 0xa8

0000001c <.LBB32>:
  1c:	0512      	lsls	r2, r2, #20
  1e:	d412      	bmi.n	46 <.LBB32+0x2a>
  20:	f8d4 2f6c 	ldr.w	r2, [r4, #3948]	; 0xf6c
  24:	05d2      	lsls	r2, r2, #23
  26:	d536      	bpl.n	96 <.LBB33>
  28:	f8d4 2f68 	ldr.w	r2, [r4, #3944]	; 0xf68
  2c:	f3c2 7240 	ubfx	r2, r2, #29, #1
  30:	f012 0fff 	tst.w	r2, #255	; 0xff
  34:	d02f      	beq.n	96 <.LBB33>
  36:	f883 20cf 	strb.w	r2, [r3, #207]	; 0xcf
  3a:	f8d4 2f68 	ldr.w	r2, [r4, #3944]	; 0xf68
  3e:	f3c2 6202 	ubfx	r2, r2, #24, #3
  42:	f883 20d1 	strb.w	r2, [r3, #209]	; 0xd1
  46:	7c5a      	ldrb	r2, [r3, #17]
  48:	f893 30cf 	ldrb.w	r3, [r3, #207]	; 0xcf

0000004c <.LVL69>:
  4c:	f88d 2004 	strb.w	r2, [sp, #4]
  50:	b32b      	cbz	r3, 9e <.LVL75>
  52:	f8d4 0f68 	ldr.w	r0, [r4, #3944]	; 0xf68

00000056 <.LVL70>:
  56:	f3c0 6002 	ubfx	r0, r0, #24, #3
  5a:	f7ff fffe 	bl	0 <hal_bt_privacy_read_peer_id_addr_type>

0000005e <.LVL71>:
  5e:	f040 0002 	orr.w	r0, r0, #2
  62:	f88d 0005 	strb.w	r0, [sp, #5]
  66:	f8d4 0f68 	ldr.w	r0, [r4, #3944]	; 0xf68
  6a:	f10d 0106 	add.w	r1, sp, #6
  6e:	f3c0 6002 	ubfx	r0, r0, #24, #3
  72:	f7ff fffe 	bl	0 <hal_bt_privacy_read_peer_id_addr>

00000076 <.LVL72>:
  76:	ab01      	add	r3, sp, #4
  78:	e893 0003 	ldmia.w	r3, {r0, r1}
  7c:	ab06      	add	r3, sp, #24
  7e:	e903 0003 	stmdb	r3, {r0, r1}
  82:	220c      	movs	r2, #12
  84:	ab03      	add	r3, sp, #12
  86:	490d      	ldr	r1, [pc, #52]	; (bc <.LVL75+0x1e>)
  88:	9503      	str	r5, [sp, #12]
  8a:	2001      	movs	r0, #1
  8c:	f7ff fffe 	bl	0 <BLE_MsgHandler>

00000090 <.LBE32>:
  90:	2000      	movs	r0, #0
  92:	b007      	add	sp, #28

00000094 <.LCFI15>:
  94:	bd30      	pop	{r4, r5, pc}

00000096 <.LBB33>:
  96:	2200      	movs	r2, #0
  98:	f883 20cf 	strb.w	r2, [r3, #207]	; 0xcf
  9c:	e7d3      	b.n	46 <.LBB32+0x2a>

0000009e <.LVL75>:
  9e:	7803      	ldrb	r3, [r0, #0]
  a0:	f3c3 1380 	ubfx	r3, r3, #6, #1
  a4:	f88d 3005 	strb.w	r3, [sp, #5]
  a8:	680b      	ldr	r3, [r1, #0]
  aa:	f8cd 3006 	str.w	r3, [sp, #6]
  ae:	888b      	ldrh	r3, [r1, #4]
  b0:	f8ad 300a 	strh.w	r3, [sp, #10]
  b4:	e7df      	b.n	76 <.LVL72>
  b6:	bf00      	nop
  b8:	00000000 	.word	0x00000000
  bc:	01010003 	.word	0x01010003

Disassembly of section .text.ble_lc_AdvMainModifyExeutionTimeOfAuxChainPkt:

00000000 <ble_lc_AdvMainModifyExeutionTimeOfAuxChainPkt>:
   0:	b5f8      	push	{r3, r4, r5, r6, r7, lr}

00000002 <.LCFI17>:
   2:	6804      	ldr	r4, [r0, #0]

00000004 <.LVL77>:
   4:	460e      	mov	r6, r1
   6:	2500      	movs	r5, #0

00000008 <.LVL78>:
   8:	b904      	cbnz	r4, c <.LVL78+0x4>
   a:	bdf8      	pop	{r3, r4, r5, r6, r7, pc}
   c:	7a23      	ldrb	r3, [r4, #8]
   e:	2b04      	cmp	r3, #4
  10:	d00b      	beq.n	2a <.LVL84+0x4>
  12:	b145      	cbz	r5, 26 <.LVL84>
  14:	6a20      	ldr	r0, [r4, #32]
  16:	f7ff fffe 	bl	0 <BLE_CLK_TransUsToClku>

0000001a <.LVL80>:
  1a:	4601      	mov	r1, r0
  1c:	4630      	mov	r0, r6

0000001e <.LVL81>:
  1e:	68e7      	ldr	r7, [r4, #12]

00000020 <.LVL82>:
  20:	f7ff fffe 	bl	0 <BLE_CLK_ClkuAdd>

00000024 <.LVL83>:
  24:	60f8      	str	r0, [r7, #12]

00000026 <.LVL84>:
  26:	6824      	ldr	r4, [r4, #0]
  28:	e7ee      	b.n	8 <.LVL78>
  2a:	2501      	movs	r5, #1

0000002c <.LVL86>:
  2c:	e7fb      	b.n	26 <.LVL84>

Disassembly of section .text.ble_lc_AdvMainHandleLECorrelOk8mhzIrq:

00000000 <ble_lc_AdvMainHandleLECorrelOk8mhzIrq>:
   0:	b508      	push	{r3, lr}

00000002 <.LCFI18>:
   2:	6800      	ldr	r0, [r0, #0]

00000004 <.LVL88>:
   4:	f890 3063 	ldrb.w	r3, [r0, #99]	; 0x63
   8:	3b0a      	subs	r3, #10
   a:	2b01      	cmp	r3, #1
   c:	d80f      	bhi.n	2e <.LVL92>
   e:	4b09      	ldr	r3, [pc, #36]	; (34 <.LVL92+0x6>)
  10:	f890 203b 	ldrb.w	r2, [r0, #59]	; 0x3b
  14:	681b      	ldr	r3, [r3, #0]
  16:	f3c3 1341 	ubfx	r3, r3, #5, #2
  1a:	429a      	cmp	r2, r3
  1c:	d007      	beq.n	2e <.LVL92>
  1e:	f8d0 3154 	ldr.w	r3, [r0, #340]	; 0x154
  22:	f500 70b0 	add.w	r0, r0, #352	; 0x160

00000026 <.LVL90>:
  26:	f8d3 10ac 	ldr.w	r1, [r3, #172]	; 0xac

0000002a <.LVL91>:
  2a:	f7ff fffe 	bl	0 <ble_lc_AdvMainHandleLECorrelOk8mhzIrq>

0000002e <.LVL92>:
  2e:	2000      	movs	r0, #0
  30:	bd08      	pop	{r3, pc}
  32:	bf00      	nop
  34:	000010c0 	.word	0x000010c0

Disassembly of section .text.ble_lc_AdvMainUpdateDescExecutionTime:

00000000 <ble_lc_AdvMainUpdateDescExecutionTime>:
   0:	b5f8      	push	{r3, r4, r5, r6, r7, lr}

00000002 <.LCFI19>:
   2:	6804      	ldr	r4, [r0, #0]

00000004 <.LVL94>:
   4:	460d      	mov	r5, r1
   6:	2700      	movs	r7, #0

00000008 <.LVL95>:
   8:	b904      	cbnz	r4, c <.LVL95+0x4>
   a:	bdf8      	pop	{r3, r4, r5, r6, r7, pc}
   c:	7a23      	ldrb	r3, [r4, #8]
   e:	2b02      	cmp	r3, #2
  10:	d814      	bhi.n	3c <.LVL101>
  12:	b132      	cbz	r2, 22 <.LVL97>
  14:	68e3      	ldr	r3, [r4, #12]
  16:	689b      	ldr	r3, [r3, #8]
  18:	f3c3 03c5 	ubfx	r3, r3, #3, #6
  1c:	429a      	cmp	r2, r3
  1e:	d10d      	bne.n	3c <.LVL101>
  20:	69e7      	ldr	r7, [r4, #28]

00000022 <.LVL97>:
  22:	69e0      	ldr	r0, [r4, #28]
  24:	1bc0      	subs	r0, r0, r7
  26:	f7ff fffe 	bl	0 <BLE_CLK_TransUsToClku>

0000002a <.LVL98>:
  2a:	7a23      	ldrb	r3, [r4, #8]
  2c:	68e6      	ldr	r6, [r4, #12]
  2e:	2b01      	cmp	r3, #1
  30:	4601      	mov	r1, r0

00000032 <.LVL99>:
  32:	d005      	beq.n	40 <.LBB34>
  34:	d304      	bcc.n	40 <.LBB34>
  36:	2b02      	cmp	r3, #2
  38:	d002      	beq.n	40 <.LBB34>

0000003a <.LVL100>:
  3a:	2200      	movs	r2, #0

0000003c <.LVL101>:
  3c:	6824      	ldr	r4, [r4, #0]
  3e:	e7e3      	b.n	8 <.LVL95>

00000040 <.LBB34>:
  40:	4628      	mov	r0, r5

00000042 <.LVL104>:
  42:	f7ff fffe 	bl	0 <BLE_CLK_ClkuAdd>

00000046 <.LVL105>:
  46:	60f0      	str	r0, [r6, #12]
  48:	e7f7      	b.n	3a <.LVL100>

Disassembly of section .text.ble_lc_AdvMainSetRxSpEp:

00000000 <ble_lc_AdvMainSetRxSpEp>:
   0:	b530      	push	{r4, r5, lr}

00000002 <.LCFI20>:
   2:	f8d0 20ac 	ldr.w	r2, [r0, #172]	; 0xac

00000006 <.LVL107>:
   6:	f8d0 30a8 	ldr.w	r3, [r0, #168]	; 0xa8

0000000a <.LVL108>:
   a:	b1da      	cbz	r2, 44 <.LVL112+0x12>
   c:	b1d3      	cbz	r3, 44 <.LVL112+0x12>
   e:	490e      	ldr	r1, [pc, #56]	; (48 <.LVL112+0x16>)
  10:	f241 0448 	movw	r4, #4168	; 0x1048
  14:	b292      	uxth	r2, r2

00000016 <.LVL109>:
  16:	5908      	ldr	r0, [r1, r4]

00000018 <.LVL110>:
  18:	f362 401f 	bfi	r0, r2, #16, #16
  1c:	5108      	str	r0, [r1, r4]

0000001e <.LVL111>:
  1e:	f241 0050 	movw	r0, #4176	; 0x1050
  22:	3242      	adds	r2, #66	; 0x42
  24:	580d      	ldr	r5, [r1, r0]
  26:	b292      	uxth	r2, r2
  28:	f362 451f 	bfi	r5, r2, #16, #16
  2c:	500d      	str	r5, [r1, r0]
  2e:	590a      	ldr	r2, [r1, r4]
  30:	b29b      	uxth	r3, r3

00000032 <.LVL112>:
  32:	f363 020f 	bfi	r2, r3, #0, #16
  36:	510a      	str	r2, [r1, r4]
  38:	33ff      	adds	r3, #255	; 0xff
  3a:	580a      	ldr	r2, [r1, r0]
  3c:	b29b      	uxth	r3, r3
  3e:	f363 020f 	bfi	r2, r3, #0, #16
  42:	500a      	str	r2, [r1, r0]
  44:	bd30      	pop	{r4, r5, pc}
  46:	bf00      	nop
  48:	00000000 	.word	0x00000000

Disassembly of section .text.ble_lc_AdvMainSendEvtClose:

00000000 <ble_lc_AdvMainSendEvtClose>:
   0:	b507      	push	{r0, r1, r2, lr}

00000002 <.LCFI21>:
   2:	2300      	movs	r3, #0
   4:	f8ad 3004 	strh.w	r3, [sp, #4]
   8:	f88d 3006 	strb.w	r3, [sp, #6]

0000000c <.LVL114>:
   c:	b951      	cbnz	r1, 24 <.LCFI23>
   e:	2802      	cmp	r0, #2
  10:	d10a      	bne.n	28 <.LVL120>

00000012 <.LVL115>:
  12:	2301      	movs	r3, #1
  14:	f88d 3006 	strb.w	r3, [sp, #6]
  18:	a801      	add	r0, sp, #4

0000001a <.LVL116>:
  1a:	f7ff fffe 	bl	0 <RC_ApiEventFinished>

0000001e <.LVL117>:
  1e:	b003      	add	sp, #12

00000020 <.LCFI22>:
  20:	f85d fb04 	ldr.w	pc, [sp], #4

00000024 <.LCFI23>:
  24:	4618      	mov	r0, r3

00000026 <.LVL119>:
  26:	e7f8      	b.n	1a <.LVL116>

00000028 <.LVL120>:
  28:	4608      	mov	r0, r1

0000002a <.LVL121>:
  2a:	e7f6      	b.n	1a <.LVL116>

Disassembly of section .text.BLE_LC_AdvMainProcEvtClose:

00000000 <BLE_LC_AdvMainProcEvtClose>:
   0:	b573      	push	{r0, r1, r4, r5, r6, lr}

00000002 <.LCFI24>:
   2:	f641 2358 	movw	r3, #6744	; 0x1a58
   6:	4c1a      	ldr	r4, [pc, #104]	; (70 <.LVL133>)
   8:	6886      	ldr	r6, [r0, #8]

0000000a <.LVL123>:
   a:	58e2      	ldr	r2, [r4, r3]
   c:	f36f 0200 	bfc	r2, #0, #1
  10:	50e2      	str	r2, [r4, r3]
  12:	f241 0354 	movw	r3, #4180	; 0x1054
  16:	4605      	mov	r5, r0
  18:	58e2      	ldr	r2, [r4, r3]
  1a:	f36f 324d 	bfc	r2, #13, #1
  1e:	50e2      	str	r2, [r4, r3]
  20:	2000      	movs	r0, #0

00000022 <.LVL124>:
  22:	f7ff fffe 	bl	0 <BLE_LC_AdvMainProcEvtClose>

00000026 <.LBB51>:
  26:	f8d4 3f64 	ldr.w	r3, [r4, #3940]	; 0xf64
  2a:	f36f 2349 	bfc	r3, #9, #1
  2e:	f8c4 3f64 	str.w	r3, [r4, #3940]	; 0xf64

00000032 <.LBE55>:
  32:	2000      	movs	r0, #0
  34:	f7ff fffe 	bl	0 <hal_fal_device_enable>

00000038 <.LBE51>:
  38:	f895 10cb 	ldrb.w	r1, [r5, #203]	; 0xcb

0000003c <.LVL128>:
  3c:	480d      	ldr	r0, [pc, #52]	; (74 <.LVL133+0x4>)
  3e:	9600      	str	r6, [sp, #0]
  40:	2300      	movs	r3, #0
  42:	f885 30ca 	strb.w	r3, [r5, #202]	; 0xca
  46:	186b      	adds	r3, r5, r1
  48:	2208      	movs	r2, #8
  4a:	f893 4150 	ldrb.w	r4, [r3, #336]	; 0x150

0000004e <.LVL129>:
  4e:	9401      	str	r4, [sp, #4]
  50:	2902      	cmp	r1, #2
  52:	bf14      	ite	ne
  54:	4601      	movne	r1, r0
  56:	f040 0101 	orreq.w	r1, r0, #1

0000005a <.LVL130>:
  5a:	466b      	mov	r3, sp
  5c:	2001      	movs	r0, #1
  5e:	f7ff fffe 	bl	0 <BLE_MsgHandler>

00000062 <.LVL131>:
  62:	f895 10cb 	ldrb.w	r1, [r5, #203]	; 0xcb
  66:	4620      	mov	r0, r4
  68:	f7ff fffe 	bl	0 <BLE_LC_AdvMainProcEvtClose>

0000006c <.LVL132>:
  6c:	b002      	add	sp, #8

0000006e <.LCFI25>:
  6e:	bd70      	pop	{r4, r5, r6, pc}

00000070 <.LVL133>:
  70:	00000000 	.word	0x00000000
  74:	01010000 	.word	0x01010000

Disassembly of section .text.ble_lc_AdvMainHandleSchParIdleIrq:

00000000 <ble_lc_AdvMainHandleSchParIdleIrq>:
   0:	b508      	push	{r3, lr}

00000002 <.LCFI26>:
   2:	6800      	ldr	r0, [r0, #0]

00000004 <.LVL135>:
   4:	f7ff fffe 	bl	0 <ble_lc_AdvMainHandleSchParIdleIrq>

00000008 <.LVL136>:
   8:	2000      	movs	r0, #0
   a:	bd08      	pop	{r3, pc}

Disassembly of section .text.ble_lc_AdvMainSetWL:

00000000 <ble_lc_AdvMainSetWL>:
   0:	b508      	push	{r3, lr}

00000002 <.LCFI27>:
   2:	460a      	mov	r2, r1
   4:	b950      	cbnz	r0, 1c <.LCFI29>

00000006 <.LBB57>:
   6:	4b2d      	ldr	r3, [pc, #180]	; (bc <.LVL163+0x4>)
   8:	f8d3 2f64 	ldr.w	r2, [r3, #3940]	; 0xf64
   c:	f360 2249 	bfi	r2, r0, #9, #1
  10:	f8c3 2f64 	str.w	r2, [r3, #3940]	; 0xf64

00000014 <.LBE57>:
  14:	e8bd 4008 	ldmia.w	sp!, {r3, lr}

00000018 <.LCFI28>:
  18:	f7ff bffe 	b.w	0 <hal_fal_device_enable>

0000001c <.LCFI29>:
  1c:	f892 1063 	ldrb.w	r1, [r2, #99]	; 0x63

00000020 <.LVL141>:
  20:	290b      	cmp	r1, #11
  22:	bf9d      	ittte	ls
  24:	f640 0392 	movwls	r3, #2194	; 0x892
  28:	40cb      	lsrls	r3, r1
  2a:	43db      	mvnls	r3, r3
  2c:	2301      	movhi	r3, #1
  2e:	07db      	lsls	r3, r3, #31
  30:	d40f      	bmi.n	52 <.LBE59>
  32:	f102 001f 	add.w	r0, r2, #31

00000036 <.LVL142>:
  36:	7f91      	ldrb	r1, [r2, #30]

00000038 <.LVL143>:
  38:	f7ff fffe 	bl	0 <hal_fal_dir_adv_device_set>

0000003c <.LVL144>:
  3c:	2028      	movs	r0, #40	; 0x28
  3e:	f7ff fffe 	bl	0 <hal_fal_pl_header_check_type_set>

00000042 <.LBB59>:
  42:	4a1e      	ldr	r2, [pc, #120]	; (bc <.LVL163+0x4>)
  44:	f8d2 3f64 	ldr.w	r3, [r2, #3940]	; 0xf64
  48:	f443 7300 	orr.w	r3, r3, #512	; 0x200
  4c:	f8c2 3f64 	str.w	r3, [r2, #3940]	; 0xf64
  50:	bd08      	pop	{r3, pc}

00000052 <.LBE59>:
  52:	f892 3025 	ldrb.w	r3, [r2, #37]	; 0x25
  56:	2b03      	cmp	r3, #3
  58:	d82e      	bhi.n	b8 <.LVL163>
  5a:	e8df f003 	tbb	[pc, r3]

0000005e <.LVL147>:
  5e:	0d02      	.short	0x0d02
  60:	241a      	.short	0x241a

00000062 <.LBB61>:
  62:	4b16      	ldr	r3, [pc, #88]	; (bc <.LVL163+0x4>)
  64:	f8d3 2f9c 	ldr.w	r2, [r3, #3996]	; 0xf9c
  68:	f240 11ff 	movw	r1, #511	; 0x1ff

0000006c <.LVL148>:
  6c:	f361 4218 	bfi	r2, r1, #16, #9
  70:	f8c3 2f9c 	str.w	r2, [r3, #3996]	; 0xf9c

00000074 <.LBE61>:
  74:	2000      	movs	r0, #0

00000076 <.LVL150>:
  76:	e7cd      	b.n	14 <.LBE57>

00000078 <.LBB63>:
  78:	4b10      	ldr	r3, [pc, #64]	; (bc <.LVL163+0x4>)
  7a:	f8d3 2f9c 	ldr.w	r2, [r3, #3996]	; 0xf9c
  7e:	2120      	movs	r1, #32

00000080 <.LVL152>:
  80:	f361 4218 	bfi	r2, r1, #16, #9
  84:	f8c3 2f9c 	str.w	r2, [r3, #3996]	; 0xf9c

00000088 <.LBE63>:
  88:	2008      	movs	r0, #8

0000008a <.LVL154>:
  8a:	f7ff fffe 	bl	0 <hal_fal_pl_header_check_type_set>

0000008e <.LVL155>:
  8e:	2001      	movs	r0, #1
  90:	e7c0      	b.n	14 <.LBE57>

00000092 <.LBB65>:
  92:	4b0a      	ldr	r3, [pc, #40]	; (bc <.LVL163+0x4>)
  94:	f8d3 2f9c 	ldr.w	r2, [r3, #3996]	; 0xf9c
  98:	2108      	movs	r1, #8

0000009a <.LVL157>:
  9a:	f361 4218 	bfi	r2, r1, #16, #9
  9e:	f8c3 2f9c 	str.w	r2, [r3, #3996]	; 0xf9c

000000a2 <.LBE65>:
  a2:	2020      	movs	r0, #32

000000a4 <.LVL159>:
  a4:	e7f1      	b.n	8a <.LVL154>

000000a6 <.LBB67>:
  a6:	4b05      	ldr	r3, [pc, #20]	; (bc <.LVL163+0x4>)
  a8:	f8d3 2f9c 	ldr.w	r2, [r3, #3996]	; 0xf9c
  ac:	f36f 4218 	bfc	r2, #16, #9
  b0:	f8c3 2f9c 	str.w	r2, [r3, #3996]	; 0xf9c

000000b4 <.LBE67>:
  b4:	2028      	movs	r0, #40	; 0x28

000000b6 <.LVL162>:
  b6:	e7e8      	b.n	8a <.LVL154>

000000b8 <.LVL163>:
  b8:	bd08      	pop	{r3, pc}
  ba:	bf00      	nop
  bc:	00000000 	.word	0x00000000

Disassembly of section .text.ble_lc_AdvMainSetFilter:

00000000 <ble_lc_AdvMainSetFilter>:
   0:	b538      	push	{r3, r4, r5, lr}

00000002 <.LCFI30>:
   2:	460c      	mov	r4, r1
   4:	4605      	mov	r5, r0
   6:	b150      	cbz	r0, 1e <.LVL167>
   8:	f891 3034 	ldrb.w	r3, [r1, #52]	; 0x34
   c:	f003 03c0 	and.w	r3, r3, #192	; 0xc0
  10:	2b40      	cmp	r3, #64	; 0x40
  12:	f101 022f 	add.w	r2, r1, #47	; 0x2f

00000016 <.LVL165>:
  16:	d108      	bne.n	2a <.LCFI32>
  18:	4610      	mov	r0, r2

0000001a <.LVL166>:
  1a:	f7ff fffe 	bl	0 <hal_bt_privacy_write_local_rpa>

0000001e <.LVL167>:
  1e:	4621      	mov	r1, r4
  20:	4628      	mov	r0, r5
  22:	e8bd 4038 	ldmia.w	sp!, {r3, r4, r5, lr}

00000026 <.LCFI31>:
  26:	f7ff bffe 	b.w	0 <ble_lc_AdvMainSetFilter>

0000002a <.LCFI32>:
  2a:	4b09      	ldr	r3, [pc, #36]	; (50 <.LBB71+0x10>)
  2c:	6810      	ldr	r0, [r2, #0]

0000002e <.LVL170>:
  2e:	6018      	str	r0, [r3, #0]
  30:	8892      	ldrh	r2, [r2, #4]

00000032 <.LVL171>:
  32:	809a      	strh	r2, [r3, #4]

00000034 <.LBB69>:
  34:	f833 2c40 	ldrh.w	r2, [r3, #-64]
  38:	f042 0240 	orr.w	r2, r2, #64	; 0x40
  3c:	f823 2c40 	strh.w	r2, [r3, #-64]

00000040 <.LBB71>:
  40:	f853 2c44 	ldr.w	r2, [r3, #-68]
  44:	f442 6280 	orr.w	r2, r2, #1024	; 0x400
  48:	f843 2c44 	str.w	r2, [r3, #-68]
  4c:	e7e7      	b.n	1e <.LVL167>
  4e:	bf00      	nop
  50:	00000fac 	.word	0x00000fac

Disassembly of section .text.ble_lc_AdvMainSetTimer:

00000000 <ble_lc_AdvMainSetTimer>:
   0:	f890 3063 	ldrb.w	r3, [r0, #99]	; 0x63
   4:	2b01      	cmp	r3, #1
   6:	d104      	bne.n	12 <.LVL176>
   8:	4902      	ldr	r1, [pc, #8]	; (14 <.LVL176+0x2>)
   a:	f500 70c0 	add.w	r0, r0, #384	; 0x180

0000000e <.LVL175>:
   e:	f7ff bffe 	b.w	0 <BT_SYS_TimerStart>

00000012 <.LVL176>:
  12:	4770      	bx	lr
  14:	00138800 	.word	0x00138800

Disassembly of section .text.ble_lc_AdvMainSetTifsTimer:

00000000 <ble_lc_AdvMainSetTifsTimer>:
   0:	4b0c      	ldr	r3, [pc, #48]	; (34 <.LVL178+0x2c>)
   2:	f641 226c 	movw	r2, #6764	; 0x1a6c
   6:	2013      	movs	r0, #19

00000008 <.LVL178>:
   8:	5899      	ldr	r1, [r3, r2]
   a:	f360 611f 	bfi	r1, r0, #24, #8
   e:	5099      	str	r1, [r3, r2]
  10:	5899      	ldr	r1, [r3, r2]
  12:	2019      	movs	r0, #25
  14:	f360 4117 	bfi	r1, r0, #16, #8
  18:	5099      	str	r1, [r3, r2]
  1a:	f241 0268 	movw	r2, #4200	; 0x1068
  1e:	2007      	movs	r0, #7
  20:	5899      	ldr	r1, [r3, r2]
  22:	f360 711f 	bfi	r1, r0, #28, #4
  26:	5099      	str	r1, [r3, r2]
  28:	5899      	ldr	r1, [r3, r2]
  2a:	2003      	movs	r0, #3
  2c:	f360 611b 	bfi	r1, r0, #24, #4
  30:	5099      	str	r1, [r3, r2]
  32:	4770      	bx	lr
  34:	00000000 	.word	0x00000000

Disassembly of section .text.ble_lc_AdvMainSetRxTimeoutValue:

00000000 <ble_lc_AdvMainSetRxTimeoutValue>:
   0:	f890 1063 	ldrb.w	r1, [r0, #99]	; 0x63
   4:	4b14      	ldr	r3, [pc, #80]	; (58 <.LVL187+0x6>)
   6:	290b      	cmp	r1, #11
   8:	d820      	bhi.n	4c <.LBE78>
   a:	2201      	movs	r2, #1
   c:	408a      	lsls	r2, r1
   e:	f412 6f4c 	tst.w	r2, #3264	; 0xcc0
  12:	d01b      	beq.n	4c <.LBE78>

00000014 <.LBB75>:
  14:	f890 1029 	ldrb.w	r1, [r0, #41]	; 0x29
  18:	2902      	cmp	r1, #2
  1a:	f241 426c 	movw	r2, #5228	; 0x146c
  1e:	d00a      	beq.n	36 <.LVL182>
  20:	2903      	cmp	r1, #3
  22:	d00e      	beq.n	42 <.LBB78>
  24:	2901      	cmp	r1, #1
  26:	5a99      	ldrh	r1, [r3, r2]
  28:	f04f 0049 	mov.w	r0, #73	; 0x49

0000002c <.LVL181>:
  2c:	f360 010e 	bfi	r1, r0, #0, #15
  30:	5299      	strh	r1, [r3, r2]
  32:	d10a      	bne.n	4a <.LVL185+0x2>
  34:	4770      	bx	lr

00000036 <.LVL182>:
  36:	5a99      	ldrh	r1, [r3, r2]
  38:	202d      	movs	r0, #45	; 0x2d

0000003a <.LBE75>:
  3a:	f360 010e 	bfi	r1, r0, #0, #15
  3e:	5299      	strh	r1, [r3, r2]
  40:	4770      	bx	lr

00000042 <.LBB78>:
  42:	5a99      	ldrh	r1, [r3, r2]
  44:	f44f 70d3 	mov.w	r0, #422	; 0x1a6

00000048 <.LVL185>:
  48:	e7f7      	b.n	3a <.LBE75>
  4a:	4770      	bx	lr

0000004c <.LBE78>:
  4c:	f241 426c 	movw	r2, #5228	; 0x146c
  50:	2049      	movs	r0, #73	; 0x49

00000052 <.LVL187>:
  52:	5a99      	ldrh	r1, [r3, r2]
  54:	e7f1      	b.n	3a <.LBE75>
  56:	bf00      	nop
  58:	00000000 	.word	0x00000000

Disassembly of section .text.ble_lc_AdvMainSetTxPwr:

00000000 <ble_lc_AdvMainSetTxPwr>:
   0:	7b03      	ldrb	r3, [r0, #12]
   2:	b923      	cbnz	r3, e <.LVL191>

00000004 <.LBB81>:
   4:	4b03      	ldr	r3, [pc, #12]	; (14 <.LVL192+0x2>)
   6:	f993 0000 	ldrsb.w	r0, [r3]

0000000a <.LBE81>:
   a:	f7ff bffe 	b.w	0 <BLE_LC_CmnTxPowerSwitch>

0000000e <.LVL191>:
   e:	f990 002c 	ldrsb.w	r0, [r0, #44]	; 0x2c

00000012 <.LVL192>:
  12:	e7fa      	b.n	a <.LBE81>
  14:	00000000 	.word	0x00000000

Disassembly of section .text.BLE_LC_AdvMainSetHw:

00000000 <BLE_LC_AdvMainSetHw>:
   0:	e92d 41f0 	stmdb	sp!, {r4, r5, r6, r7, r8, lr}

00000004 <.LCFI33>:
   4:	f101 082c 	add.w	r8, r1, #44	; 0x2c
   8:	f8d0 5178 	ldr.w	r5, [r0, #376]	; 0x178
   c:	f850 7038 	ldr.w	r7, [r0, r8, lsl #3]

00000010 <.LVL194>:
  10:	4604      	mov	r4, r0
  12:	460e      	mov	r6, r1
  14:	b11d      	cbz	r5, 1e <.LVL195>
  16:	f895 504f 	ldrb.w	r5, [r5, #79]	; 0x4f
  1a:	f3c5 05c0 	ubfx	r5, r5, #3, #1

0000001e <.LVL195>:
  1e:	4620      	mov	r0, r4

00000020 <.LVL196>:
  20:	f7ff fffe 	bl	0 <BLE_LC_AdvMainSetHw>

00000024 <.LVL197>:
  24:	4620      	mov	r0, r4
  26:	f7ff fffe 	bl	0 <BLE_LC_AdvMainSetHw>

0000002a <.LVL198>:
  2a:	4620      	mov	r0, r4
  2c:	f7ff fffe 	bl	0 <BLE_LC_AdvMainSetHw>

00000030 <.LVL199>:
  30:	4620      	mov	r0, r4
  32:	f7ff fffe 	bl	0 <BLE_LC_AdvMainSetHw>

00000036 <.LVL200>:
  36:	2e02      	cmp	r6, #2
  38:	d126      	bne.n	88 <.LVL206>
  3a:	4b40      	ldr	r3, [pc, #256]	; (13c <.LVL212+0x1a>)
  3c:	4620      	mov	r0, r4
  3e:	685b      	ldr	r3, [r3, #4]
  40:	4798      	blx	r3

00000042 <.LVL201>:
  42:	4b3f      	ldr	r3, [pc, #252]	; (140 <.LVL212+0x1e>)
  44:	f894 103b 	ldrb.w	r1, [r4, #59]	; 0x3b
  48:	881a      	ldrh	r2, [r3, #0]
  4a:	f361 1204 	bfi	r2, r1, #4, #1
  4e:	801a      	strh	r2, [r3, #0]
  50:	bb66      	cbnz	r6, ac <.LVL208>
  52:	b30d      	cbz	r5, 98 <.LVL206+0x10>
  54:	f8d4 317c 	ldr.w	r3, [r4, #380]	; 0x17c
  58:	689a      	ldr	r2, [r3, #8]
  5a:	f8d4 3178 	ldr.w	r3, [r4, #376]	; 0x178
  5e:	f3c2 02c5 	ubfx	r2, r2, #3, #6
  62:	f8d3 10ac 	ldr.w	r1, [r3, #172]	; 0xac
  66:	f504 70b0 	add.w	r0, r4, #352	; 0x160
  6a:	f7ff fffe 	bl	0 <BLE_LC_AdvMainSetHw>

0000006e <.LVL202>:
  6e:	f8d4 015c 	ldr.w	r0, [r4, #348]	; 0x15c
  72:	f7ff fffe 	bl	0 <RC_QueryAnchor>

00000076 <.LVL203>:
  76:	bb30      	cbnz	r0, c6 <.LVL209+0x4>
  78:	4b30      	ldr	r3, [pc, #192]	; (13c <.LVL212+0x1a>)
  7a:	681b      	ldr	r3, [r3, #0]
  7c:	b31b      	cbz	r3, c6 <.LVL209+0x4>
  7e:	4620      	mov	r0, r4
  80:	4798      	blx	r3

00000082 <.LVL204>:
  82:	b300      	cbz	r0, c6 <.LVL209+0x4>

00000084 <.LVL205>:
  84:	e8bd 81f0 	ldmia.w	sp!, {r4, r5, r6, r7, r8, pc}

00000088 <.LVL206>:
  88:	4a2e      	ldr	r2, [pc, #184]	; (144 <.LVL212+0x22>)
  8a:	f241 0354 	movw	r3, #4180	; 0x1054
  8e:	58d1      	ldr	r1, [r2, r3]
  90:	f36f 314d 	bfc	r1, #13, #1
  94:	50d1      	str	r1, [r2, r3]
  96:	e7d4      	b.n	42 <.LVL201>
  98:	68fb      	ldr	r3, [r7, #12]
  9a:	f8c4 317c 	str.w	r3, [r4, #380]	; 0x17c
  9e:	681a      	ldr	r2, [r3, #0]

000000a0 <.LVL207>:
  a0:	f365 1246 	bfi	r2, r5, #5, #2
  a4:	601a      	str	r2, [r3, #0]
  a6:	4620      	mov	r0, r4
  a8:	f7ff fffe 	bl	0 <BLE_LC_AdvMainSetHw>

000000ac <.LVL208>:
  ac:	eb04 0386 	add.w	r3, r4, r6, lsl #2
  b0:	2200      	movs	r2, #0
  b2:	f8d3 3154 	ldr.w	r3, [r3, #340]	; 0x154
  b6:	eb04 00c8 	add.w	r0, r4, r8, lsl #3
  ba:	f8d3 10ac 	ldr.w	r1, [r3, #172]	; 0xac
  be:	f7ff fffe 	bl	0 <BLE_LC_AdvMainSetHw>

000000c2 <.LVL209>:
  c2:	2e00      	cmp	r6, #0
  c4:	d0d3      	beq.n	6e <.LVL202>
  c6:	f894 3063 	ldrb.w	r3, [r4, #99]	; 0x63
  ca:	2b01      	cmp	r3, #1
  cc:	f641 225c 	movw	r2, #6748	; 0x1a5c
  d0:	4b1c      	ldr	r3, [pc, #112]	; (144 <.LVL212+0x22>)
  d2:	d126      	bne.n	122 <.LVL212>
  d4:	5899      	ldr	r1, [r3, r2]
  d6:	2006      	movs	r0, #6
  d8:	f360 010f 	bfi	r1, r0, #0, #16
  dc:	5099      	str	r1, [r3, r2]
  de:	f641 2158 	movw	r1, #6744	; 0x1a58
  e2:	585a      	ldr	r2, [r3, r1]
  e4:	f042 0202 	orr.w	r2, r2, #2
  e8:	505a      	str	r2, [r3, r1]
  ea:	bb2e      	cbnz	r6, 138 <.LVL212+0x16>
  ec:	b325      	cbz	r5, 138 <.LVL212+0x16>
  ee:	f8b4 017c 	ldrh.w	r0, [r4, #380]	; 0x17c
  f2:	f641 2258 	movw	r2, #6744	; 0x1a58
  f6:	eb04 1446 	add.w	r4, r4, r6, lsl #5

000000fa <.LVL211>:
  fa:	5899      	ldr	r1, [r3, r2]
  fc:	f360 411f 	bfi	r1, r0, #16, #16
 100:	5099      	str	r1, [r3, r2]
 102:	f641 2270 	movw	r2, #6768	; 0x1a70
 106:	f8b4 00fc 	ldrh.w	r0, [r4, #252]	; 0xfc
 10a:	5899      	ldr	r1, [r3, r2]
 10c:	f360 411f 	bfi	r1, r0, #16, #16
 110:	5099      	str	r1, [r3, r2]
 112:	f641 2158 	movw	r1, #6744	; 0x1a58
 116:	2000      	movs	r0, #0
 118:	585a      	ldr	r2, [r3, r1]
 11a:	f042 0201 	orr.w	r2, r2, #1
 11e:	505a      	str	r2, [r3, r1]
 120:	e7b0      	b.n	84 <.LVL205>

00000122 <.LVL212>:
 122:	5899      	ldr	r1, [r3, r2]
 124:	f36f 010f 	bfc	r1, #0, #16
 128:	5099      	str	r1, [r3, r2]
 12a:	f641 2258 	movw	r2, #6744	; 0x1a58
 12e:	5899      	ldr	r1, [r3, r2]
 130:	f36f 0141 	bfc	r1, #1, #1
 134:	5099      	str	r1, [r3, r2]
 136:	e7d8      	b.n	ea <.LVL209+0x28>
 138:	89b8      	ldrh	r0, [r7, #12]
 13a:	e7da      	b.n	f2 <.LVL209+0x30>
 13c:	00000000 	.word	0x00000000
 140:	000010c0 	.word	0x000010c0
 144:	00000000 	.word	0x00000000

Disassembly of section .text.BLE_LC_AdvMainHandleGrant:

00000000 <BLE_LC_AdvMainHandleGrant>:
   0:	b570      	push	{r4, r5, r6, lr}

00000002 <.LCFI34>:
   2:	f891 304f 	ldrb.w	r3, [r1, #79]	; 0x4f
   6:	6804      	ldr	r4, [r0, #0]

00000008 <.LVL214>:
   8:	f013 0308 	ands.w	r3, r3, #8
   c:	d030      	beq.n	70 <.LVL226>
   e:	f8d4 317c 	ldr.w	r3, [r4, #380]	; 0x17c
  12:	b9f3      	cbnz	r3, 52 <.LVL223>
  14:	4620      	mov	r0, r4

00000016 <.LVL215>:
  16:	f7ff fffe 	bl	0 <BLE_LC_AdvMainHandleGrant>

0000001a <.LVL216>:
  1a:	2500      	movs	r5, #0
  1c:	2601      	movs	r6, #1
  1e:	4620      	mov	r0, r4
  20:	f884 50cb 	strb.w	r5, [r4, #203]	; 0xcb
  24:	f884 5150 	strb.w	r5, [r4, #336]	; 0x150
  28:	f884 60ca 	strb.w	r6, [r4, #202]	; 0xca
  2c:	f7ff fffe 	bl	0 <BLE_LC_AdvMainHandleGrant>

00000030 <.LBB83>:
  30:	f7ff fffe 	bl	0 <BLE_LC_AdvMainHandleGrant>

00000034 <.LBE83>:
  34:	4621      	mov	r1, r4
  36:	4630      	mov	r0, r6
  38:	f7ff fffe 	bl	0 <BLE_LC_AdvMainHandleGrant>

0000003c <.LVL219>:
  3c:	4629      	mov	r1, r5
  3e:	4620      	mov	r0, r4
  40:	f7ff fffe 	bl	0 <BLE_LC_AdvMainHandleGrant>

00000044 <.LVL220>:
  44:	4605      	mov	r5, r0
  46:	b110      	cbz	r0, 4e <.LVL222>
  48:	4620      	mov	r0, r4

0000004a <.LVL221>:
  4a:	f7ff fffe 	bl	0 <BLE_LC_AdvMainHandleGrant>

0000004e <.LVL222>:
  4e:	4628      	mov	r0, r5
  50:	bd70      	pop	{r4, r5, r6, pc}

00000052 <.LVL223>:
  52:	f8c4 1178 	str.w	r1, [r4, #376]	; 0x178
  56:	f8d1 30b0 	ldr.w	r3, [r1, #176]	; 0xb0
  5a:	f8c4 30fc 	str.w	r3, [r4, #252]	; 0xfc
  5e:	f8d1 30ac 	ldr.w	r3, [r1, #172]	; 0xac
  62:	f8c4 3100 	str.w	r3, [r4, #256]	; 0x100
  66:	f8d1 00ac 	ldr.w	r0, [r1, #172]	; 0xac

0000006a <.LVL224>:
  6a:	f7ff fffe 	bl	0 <BLE_LC_AdvMainHandleGrant>

0000006e <.LVL225>:
  6e:	e7d4      	b.n	1a <.LVL216>

00000070 <.LVL226>:
  70:	f8c4 3178 	str.w	r3, [r4, #376]	; 0x178
  74:	f8d4 3154 	ldr.w	r3, [r4, #340]	; 0x154
  78:	f8d3 20b0 	ldr.w	r2, [r3, #176]	; 0xb0
  7c:	f8c4 20fc 	str.w	r2, [r4, #252]	; 0xfc
  80:	f8d3 30ac 	ldr.w	r3, [r3, #172]	; 0xac
  84:	f8c4 3100 	str.w	r3, [r4, #256]	; 0x100
  88:	e7c7      	b.n	1a <.LVL216>

Disassembly of section .text.ble_lc_AdvMainCalFirstAnchor:

00000000 <ble_lc_AdvMainCalFirstAnchor>:
   0:	b538      	push	{r3, r4, r5, lr}

00000002 <.LCFI35>:
   2:	f890 3063 	ldrb.w	r3, [r0, #99]	; 0x63
   6:	3b06      	subs	r3, #6
   8:	2b01      	cmp	r3, #1
   a:	4604      	mov	r4, r0
   c:	d822      	bhi.n	54 <.LVL234>
   e:	f890 3029 	ldrb.w	r3, [r0, #41]	; 0x29
  12:	2b02      	cmp	r3, #2
  14:	d011      	beq.n	3a <.LVL232>
  16:	2b03      	cmp	r3, #3
  18:	d011      	beq.n	3e <.LVL233>
  1a:	2b01      	cmp	r3, #1
  1c:	d11e      	bne.n	5c <.LVL234+0x8>
  1e:	f44f 72ab 	mov.w	r2, #342	; 0x156

00000022 <.LVL228>:
  22:	f640 11c4 	movw	r1, #2500	; 0x9c4

00000026 <.LVL229>:
  26:	4b0f      	ldr	r3, [pc, #60]	; (64 <.LVL234+0x10>)
  28:	689d      	ldr	r5, [r3, #8]
  2a:	b12d      	cbz	r5, 38 <.LVL231+0x4>
  2c:	2309      	movs	r3, #9
  2e:	f8d4 00a8 	ldr.w	r0, [r4, #168]	; 0xa8

00000032 <.LVL230>:
  32:	47a8      	blx	r5

00000034 <.LVL231>:
  34:	f8c4 00e0 	str.w	r0, [r4, #224]	; 0xe0
  38:	bd38      	pop	{r3, r4, r5, pc}

0000003a <.LVL232>:
  3a:	22fa      	movs	r2, #250	; 0xfa
  3c:	e7f1      	b.n	22 <.LVL228>

0000003e <.LVL233>:
  3e:	f890 303b 	ldrb.w	r3, [r0, #59]	; 0x3b
  42:	2b01      	cmp	r3, #1
  44:	f240 62e6 	movw	r2, #1766	; 0x6e6
  48:	f640 61a6 	movw	r1, #3750	; 0xea6
  4c:	bf08      	it	eq
  4e:	f44f 7251 	moveq.w	r2, #836	; 0x344
  52:	e7e8      	b.n	26 <.LVL229>

00000054 <.LVL234>:
  54:	2200      	movs	r2, #0
  56:	f240 41e2 	movw	r1, #1250	; 0x4e2
  5a:	e7e4      	b.n	26 <.LVL229>
  5c:	2200      	movs	r2, #0
  5e:	4611      	mov	r1, r2
  60:	e7e1      	b.n	26 <.LVL229>
  62:	bf00      	nop
  64:	00000000 	.word	0x00000000

Disassembly of section .text.ble_lc_AdvMainHandleSchParConnReqRxIrq:

00000000 <ble_lc_AdvMainHandleSchParConnReqRxIrq>:
   0:	b538      	push	{r3, r4, r5, lr}

00000002 <.LCFI36>:
   2:	6804      	ldr	r4, [r0, #0]

00000004 <.LVL236>:
   4:	f8d4 50a8 	ldr.w	r5, [r4, #168]	; 0xa8

00000008 <.LVL237>:
   8:	4628      	mov	r0, r5

0000000a <.LVL238>:
   a:	f7ff fffe 	bl	0 <ble_lc_AdvMainHandleSchParConnReqRxIrq>

0000000e <.LVL239>:
   e:	2800      	cmp	r0, #0
  10:	d141      	bne.n	96 <.LVL244>
  12:	f894 30ca 	ldrb.w	r3, [r4, #202]	; 0xca
  16:	f8d4 10ac 	ldr.w	r1, [r4, #172]	; 0xac

0000001a <.LVL240>:
  1a:	2b01      	cmp	r3, #1
  1c:	bf01      	itttt	eq
  1e:	f894 30cb 	ldrbeq.w	r3, [r4, #203]	; 0xcb
  22:	191b      	addeq	r3, r3, r4
  24:	2204      	moveq	r2, #4
  26:	f883 2150 	strbeq.w	r2, [r3, #336]	; 0x150
  2a:	4b25      	ldr	r3, [pc, #148]	; (c0 <.LVL246+0x12>)
  2c:	f8d3 2f6c 	ldr.w	r2, [r3, #3948]	; 0xf6c
  30:	0510      	lsls	r0, r2, #20
  32:	d412      	bmi.n	5a <.LVL240+0x40>
  34:	f8d3 2f6c 	ldr.w	r2, [r3, #3948]	; 0xf6c
  38:	05d2      	lsls	r2, r2, #23
  3a:	d52e      	bpl.n	9a <.LVL245>
  3c:	f8d3 2f68 	ldr.w	r2, [r3, #3944]	; 0xf68
  40:	f3c2 7240 	ubfx	r2, r2, #29, #1
  44:	f012 0fff 	tst.w	r2, #255	; 0xff
  48:	d027      	beq.n	9a <.LVL245>
  4a:	f884 20d0 	strb.w	r2, [r4, #208]	; 0xd0
  4e:	f8d3 3f68 	ldr.w	r3, [r3, #3944]	; 0xf68
  52:	f3c3 6302 	ubfx	r3, r3, #24, #3
  56:	f884 30d1 	strb.w	r3, [r4, #209]	; 0xd1
  5a:	f894 30d0 	ldrb.w	r3, [r4, #208]	; 0xd0
  5e:	b303      	cbz	r3, a2 <.LVL245+0x8>

00000060 <.LBB85>:
  60:	f894 00d1 	ldrb.w	r0, [r4, #209]	; 0xd1
  64:	f7ff fffe 	bl	0 <hal_bt_privacy_read_peer_id_addr_type>

00000068 <.LVL241>:
  68:	f040 0002 	orr.w	r0, r0, #2

0000006c <.LVL242>:
  6c:	f884 00d2 	strb.w	r0, [r4, #210]	; 0xd2

00000070 <.LBE85>:
  70:	f894 30d0 	ldrb.w	r3, [r4, #208]	; 0xd0
  74:	f104 02d9 	add.w	r2, r4, #217	; 0xd9
  78:	f104 01d3 	add.w	r1, r4, #211	; 0xd3
  7c:	b1bb      	cbz	r3, ae <.LVL246>
  7e:	682b      	ldr	r3, [r5, #0]
  80:	f8c4 30d9 	str.w	r3, [r4, #217]	; 0xd9
  84:	88ab      	ldrh	r3, [r5, #4]
  86:	8093      	strh	r3, [r2, #4]
  88:	f894 00d1 	ldrb.w	r0, [r4, #209]	; 0xd1
  8c:	f7ff fffe 	bl	0 <hal_bt_privacy_read_peer_id_addr>

00000090 <.LVL243>:
  90:	4620      	mov	r0, r4
  92:	f7ff fffe 	bl	0 <ble_lc_AdvMainHandleSchParConnReqRxIrq>

00000096 <.LVL244>:
  96:	2000      	movs	r0, #0
  98:	bd38      	pop	{r3, r4, r5, pc}

0000009a <.LVL245>:
  9a:	2300      	movs	r3, #0
  9c:	f884 30d0 	strb.w	r3, [r4, #208]	; 0xd0
  a0:	e7db      	b.n	5a <.LVL240+0x40>
