
./ble_controller_app.X.production.elf:     file format elf32-littlearm


Disassembly of section .config_00045F88:

00045f88 <__config_00045F88>:
   45f88:	ff ff 00 00                                         ....

Disassembly of section .config_00045F8C:

00045f8c <__config_00045F8C>:
   45f8c:	00 40 0e 84                                         .@..

Disassembly of section .config_00045F90:

00045f90 <__config_00045F90>:
   45f90:	38 fc 74 5f                                         8.t_

Disassembly of section .config_00045F94:

00045f94 <__config_00045F94>:
   45f94:	3b 44 10 14                                         ;D..

Disassembly of section .config_00045F98:

00045f98 <__config_00045F98>:
   45f98:	0b 00 00 71                                         ...q

Disassembly of section .vectors:

00000000 <exception_table>:
   0:	f8 ff 01 20 d1 4d 01 01 f3 b3 00 01 03 b6 00 01     ... .M..........
  10:	f3 c8 00 01 93 cb 00 01 67 e6 00 01 00 00 00 00     ........g.......
	...
  2c:	31 bd 01 01 e7 bd 00 01 00 00 00 00 31 44 01 01     1...........1D..
  3c:	51 ac 01 01 cf b0 00 01 cf b0 00 01 cf b0 00 01     Q...............
  4c:	cf b0 00 01 cf b0 00 01 cf b0 00 01 f1 c6 01 01     ................
  5c:	cf b0 00 01 cf b0 00 01 cf b0 00 01 cf b0 00 01     ................
  6c:	cf b0 00 01 7d 9a 01 01 09 d9 01 01 cf b0 00 01     ....}...........
  7c:	cf b0 00 01 cf b0 00 01 cf b0 00 01 cf b0 00 01     ................
  8c:	cf b0 00 01 cf b0 00 01 cf b0 00 01 cf b0 00 01     ................
  9c:	cf b0 00 01 cf b0 00 01 cf b0 00 01 cf b0 00 01     ................
  ac:	cf b0 00 01 cf b0 00 01 cf b0 00 01 cf b0 00 01     ................
  bc:	5d 17 01 01 59 db 00 01 cf b0 00 01 cf b0 00 01     ]...Y...........
  cc:	cf b0 00 01 cf b0 00 01 cf b0 00 01 25 2a 01 01     ............%*..
  dc:	cf b0 00 01                                         ....

Disassembly of section .text:

01000000 <_init>:
 1000000:	b5f8      	push	{r3, r4, r5, r6, r7, lr}
 1000002:	bf00      	nop
 1000004:	bcf8      	pop	{r3, r4, r5, r6, r7}
 1000006:	bc08      	pop	{r3}
 1000008:	469e      	mov	lr, r3
 100000a:	4770      	bx	lr

0100000c <__frame_dummy_init_array_entry>:
 100000c:	8555 0101                                   U...

01000010 <_fini>:
 1000010:	b5f8      	push	{r3, r4, r5, r6, r7, lr}
 1000012:	bf00      	nop
 1000014:	bcf8      	pop	{r3, r4, r5, r6, r7}
 1000016:	bc08      	pop	{r3}
 1000018:	469e      	mov	lr, r3
 100001a:	4770      	bx	lr

0100001c <__do_global_dtors_aux_fini_array_entry>:
 100001c:	8531 0101                                   1...

Disassembly of section .text%85:

01000020 <IB_GetBdAddr>:
 1000020:	b480      	push	{r7}
 1000022:	b083      	sub	sp, #12
 1000024:	af00      	add	r7, sp, #0
 1000026:	6078      	str	r0, [r7, #4]
 1000028:	4b0a      	ldr	r3, [pc, #40]	; (1000054 <IB_GetBdAddr+0x34>)
 100002a:	781b      	ldrb	r3, [r3, #0]
 100002c:	2b00      	cmp	r3, #0
 100002e:	d009      	beq.n	1000044 <IB_GetBdAddr+0x24>
 1000030:	687b      	ldr	r3, [r7, #4]
 1000032:	4a09      	ldr	r2, [pc, #36]	; (1000058 <IB_GetBdAddr+0x38>)
 1000034:	6810      	ldr	r0, [r2, #0]
 1000036:	6018      	str	r0, [r3, #0]
 1000038:	8891      	ldrh	r1, [r2, #4]
 100003a:	7992      	ldrb	r2, [r2, #6]
 100003c:	8099      	strh	r1, [r3, #4]
 100003e:	719a      	strb	r2, [r3, #6]
 1000040:	2300      	movs	r3, #0
 1000042:	e000      	b.n	1000046 <IB_GetBdAddr+0x26>
 1000044:	2301      	movs	r3, #1
 1000046:	4618      	mov	r0, r3
 1000048:	370c      	adds	r7, #12
 100004a:	46bd      	mov	sp, r7
 100004c:	f85d 7b04 	ldr.w	r7, [sp], #4
 1000050:	4770      	bx	lr
 1000052:	bf00      	nop
 1000054:	2000b4e5 	.word	0x2000b4e5
 1000058:	2000b4e8 	.word	0x2000b4e8

0100005c <IB_GetMACAddr>:
 100005c:	b480      	push	{r7}
 100005e:	b083      	sub	sp, #12
 1000060:	af00      	add	r7, sp, #0
 1000062:	6078      	str	r0, [r7, #4]
 1000064:	4b09      	ldr	r3, [pc, #36]	; (100008c <IB_GetMACAddr+0x30>)
 1000066:	781b      	ldrb	r3, [r3, #0]
 1000068:	2b00      	cmp	r3, #0
 100006a:	d008      	beq.n	100007e <IB_GetMACAddr+0x22>
 100006c:	687b      	ldr	r3, [r7, #4]
 100006e:	4908      	ldr	r1, [pc, #32]	; (1000090 <IB_GetMACAddr+0x34>)
 1000070:	461a      	mov	r2, r3
 1000072:	460b      	mov	r3, r1
 1000074:	cb03      	ldmia	r3!, {r0, r1}
 1000076:	6010      	str	r0, [r2, #0]
 1000078:	6051      	str	r1, [r2, #4]
 100007a:	2300      	movs	r3, #0
 100007c:	e000      	b.n	1000080 <IB_GetMACAddr+0x24>
 100007e:	2301      	movs	r3, #1
 1000080:	4618      	mov	r0, r3
 1000082:	370c      	adds	r7, #12
 1000084:	46bd      	mov	sp, r7
 1000086:	f85d 7b04 	ldr.w	r7, [sp], #4
 100008a:	4770      	bx	lr
 100008c:	2000b4ef 	.word	0x2000b4ef
 1000090:	2000b4f0 	.word	0x2000b4f0

01000094 <IB_GetRoomTemperatureSAR>:
 1000094:	b480      	push	{r7}
 1000096:	af00      	add	r7, sp, #0
 1000098:	4b01      	ldr	r3, [pc, #4]	; (10000a0 <IB_GetRoomTemperatureSAR+0xc>)
 100009a:	f01e bec5 	b.w	101ee28 <__pa_fn_0_8b_10_6>
 100009e:	bf00      	nop
 10000a0:	2000b702 	.word	0x2000b702

010000a4 <IB_GetRssiOffset>:
 10000a4:	b480      	push	{r7}
 10000a6:	af00      	add	r7, sp, #0
 10000a8:	4b02      	ldr	r3, [pc, #8]	; (10000b4 <L0^A+0x8>)
 10000aa:	781b      	ldrb	r3, [r3, #0]

010000ac <L0^A>:
 10000ac:	4618      	mov	r0, r3
 10000ae:	f01f b86f 	b.w	101f190 <__pa_fn_0_aa_10_0>
 10000b2:	bf00      	nop
 10000b4:	2000b704 	.word	0x2000b704

010000b8 <IB_GetBatVoltage20VSAR>:
 10000b8:	b480      	push	{r7}
 10000ba:	af00      	add	r7, sp, #0
 10000bc:	4b01      	ldr	r3, [pc, #4]	; (10000c4 <L0^A>)
 10000be:	f01e beb3 	b.w	101ee28 <__pa_fn_0_8b_10_6>
 10000c2:	bf00      	nop

010000c4 <L0^A>:
 10000c4:	2000b4f8 	.word	0x2000b4f8

010000c8 <IB_GetBatVoltage12VSAR>:
 10000c8:	b480      	push	{r7}
 10000ca:	af00      	add	r7, sp, #0
 10000cc:	4b01      	ldr	r3, [pc, #4]	; (10000d4 <IB_GetBatVoltage12VSAR+0xc>)
 10000ce:	f01e beab 	b.w	101ee28 <__pa_fn_0_8b_10_6>
 10000d2:	bf00      	nop
 10000d4:	2000b4fa 	.word	0x2000b4fa

010000d8 <_CalculateCRC16CCITT>:
 10000d8:	b480      	push	{r7}
 10000da:	b085      	sub	sp, #20

010000dc <L0^A>:
 10000dc:	af00      	add	r7, sp, #0
 10000de:	6078      	str	r0, [r7, #4]
 10000e0:	460b      	mov	r3, r1
 10000e2:	807b      	strh	r3, [r7, #2]
 10000e4:	f64f 73ff 	movw	r3, #65535	; 0xffff
 10000e8:	817b      	strh	r3, [r7, #10]
 10000ea:	887b      	ldrh	r3, [r7, #2]
 10000ec:	2b00      	cmp	r3, #0
 10000ee:	d103      	bne.n	10000f8 <L0^A+0x4>
 10000f0:	897b      	ldrh	r3, [r7, #10]
 10000f2:	43db      	mvns	r3, r3

010000f4 <L0^A>:
 10000f4:	b29b      	uxth	r3, r3
 10000f6:	e02c      	b.n	1000152 <L0^A+0x5e>
 10000f8:	2300      	movs	r3, #0
 10000fa:	73fb      	strb	r3, [r7, #15]
 10000fc:	687b      	ldr	r3, [r7, #4]
 10000fe:	1c5a      	adds	r2, r3, #1
 1000100:	607a      	str	r2, [r7, #4]
 1000102:	781b      	ldrb	r3, [r3, #0]
 1000104:	81bb      	strh	r3, [r7, #12]
 1000106:	e017      	b.n	1000138 <L0^A+0x44>
 1000108:	897a      	ldrh	r2, [r7, #10]
 100010a:	89bb      	ldrh	r3, [r7, #12]
 100010c:	4053      	eors	r3, r2
 100010e:	b29b      	uxth	r3, r3
 1000110:	f003 0301 	and.w	r3, r3, #1
 1000114:	2b00      	cmp	r3, #0
 1000116:	d006      	beq.n	1000126 <L0^A+0x32>
 1000118:	897b      	ldrh	r3, [r7, #10]
 100011a:	085b      	lsrs	r3, r3, #1
 100011c:	b29a      	uxth	r2, r3
 100011e:	4b10      	ldr	r3, [pc, #64]	; (1000160 <L0^A+0x6c>)
 1000120:	4053      	eors	r3, r2
 1000122:	817b      	strh	r3, [r7, #10]
 1000124:	e002      	b.n	100012c <L0^A+0x38>
 1000126:	897b      	ldrh	r3, [r7, #10]
 1000128:	085b      	lsrs	r3, r3, #1
 100012a:	817b      	strh	r3, [r7, #10]
 100012c:	7bfb      	ldrb	r3, [r7, #15]
 100012e:	3301      	adds	r3, #1
 1000130:	73fb      	strb	r3, [r7, #15]
 1000132:	89bb      	ldrh	r3, [r7, #12]
 1000134:	085b      	lsrs	r3, r3, #1
 1000136:	81bb      	strh	r3, [r7, #12]
 1000138:	7bfb      	ldrb	r3, [r7, #15]
 100013a:	2b07      	cmp	r3, #7
 100013c:	d9e4      	bls.n	1000108 <L0^A+0x14>
 100013e:	887b      	ldrh	r3, [r7, #2]
 1000140:	3b01      	subs	r3, #1
 1000142:	807b      	strh	r3, [r7, #2]
 1000144:	887b      	ldrh	r3, [r7, #2]
 1000146:	2b00      	cmp	r3, #0
 1000148:	d1d6      	bne.n	10000f8 <L0^A+0x4>
 100014a:	897b      	ldrh	r3, [r7, #10]
 100014c:	43db      	mvns	r3, r3
 100014e:	817b      	strh	r3, [r7, #10]
 1000150:	897b      	ldrh	r3, [r7, #10]
 1000152:	4618      	mov	r0, r3
 1000154:	3714      	adds	r7, #20
 1000156:	46bd      	mov	sp, r7
 1000158:	f85d 7b04 	ldr.w	r7, [sp], #4
 100015c:	4770      	bx	lr
 100015e:	bf00      	nop
 1000160:	ffff8408 	.word	0xffff8408

01000164 <IB_FW_CRC_Proc>:
 1000164:	b580      	push	{r7, lr}
 1000166:	b086      	sub	sp, #24
 1000168:	af00      	add	r7, sp, #0
 100016a:	60f8      	str	r0, [r7, #12]
 100016c:	460b      	mov	r3, r1
 100016e:	607a      	str	r2, [r7, #4]
 1000170:	817b      	strh	r3, [r7, #10]
 1000172:	687b      	ldr	r3, [r7, #4]
 1000174:	617b      	str	r3, [r7, #20]
 1000176:	697b      	ldr	r3, [r7, #20]
 1000178:	781b      	ldrb	r3, [r3, #0]
 100017a:	2bed      	cmp	r3, #237	; 0xed
 100017c:	d121      	bne.n	10001c2 <L0^A+0x42>
 100017e:	697b      	ldr	r3, [r7, #20]

01000180 <L0^A>:
 1000180:	785b      	ldrb	r3, [r3, #1]
 1000182:	2b03      	cmp	r3, #3
 1000184:	d11d      	bne.n	10001c2 <L0^A+0x42>
 1000186:	697b      	ldr	r3, [r7, #20]
 1000188:	789b      	ldrb	r3, [r3, #2]
 100018a:	2b00      	cmp	r3, #0
 100018c:	d101      	bne.n	1000192 <L0^A+0x12>
 100018e:	2300      	movs	r3, #0
 1000190:	e018      	b.n	10001c4 <L0^A+0x44>
 1000192:	697b      	ldr	r3, [r7, #20]
 1000194:	789b      	ldrb	r3, [r3, #2]
 1000196:	2b01      	cmp	r3, #1
 1000198:	d113      	bne.n	10001c2 <L0^A+0x42>
 100019a:	897b      	ldrh	r3, [r7, #10]
 100019c:	4619      	mov	r1, r3
 100019e:	68f8      	ldr	r0, [r7, #12]
 10001a0:	f7ff ff9a 	bl	10000d8 <_CalculateCRC16CCITT>
 10001a4:	4603      	mov	r3, r0
 10001a6:	827b      	strh	r3, [r7, #18]
 10001a8:	8a7a      	ldrh	r2, [r7, #18]
 10001aa:	697b      	ldr	r3, [r7, #20]
 10001ac:	791b      	ldrb	r3, [r3, #4]
 10001ae:	021b      	lsls	r3, r3, #8
 10001b0:	6979      	ldr	r1, [r7, #20]
 10001b2:	78c9      	ldrb	r1, [r1, #3]
 10001b4:	440b      	add	r3, r1
 10001b6:	429a      	cmp	r2, r3
 10001b8:	d101      	bne.n	10001be <L0^A+0x3e>
 10001ba:	2300      	movs	r3, #0
 10001bc:	e002      	b.n	10001c4 <L0^A+0x44>
 10001be:	2301      	movs	r3, #1
 10001c0:	e000      	b.n	10001c4 <L0^A+0x44>
 10001c2:	2301      	movs	r3, #1
 10001c4:	f01e bfcc 	b.w	101f160 <__pa_fn_0_31_11_0>

010001c8 <IB_RF_REG_proc>:
 10001c8:	b580      	push	{r7, lr}
 10001ca:	b086      	sub	sp, #24
 10001cc:	af00      	add	r7, sp, #0
 10001ce:	6078      	str	r0, [r7, #4]
 10001d0:	687b      	ldr	r3, [r7, #4]
 10001d2:	613b      	str	r3, [r7, #16]
 10001d4:	693b      	ldr	r3, [r7, #16]
 10001d6:	785a      	ldrb	r2, [r3, #1]
 10001d8:	4b18      	ldr	r3, [pc, #96]	; (100023c <L0^A+0x54>)
 10001da:	f01e f89f 	bl	101e31c <__pa_fn_0_ab_01_0>
 10001de:	2b00      	cmp	r3, #0
 10001e0:	d001      	beq.n	10001e6 <IB_RF_REG_proc+0x1e>
 10001e2:	2301      	movs	r3, #1
 10001e4:	e028      	b.n	1000238 <L0^A+0x50>
 10001e6:	693b      	ldr	r3, [r7, #16]

010001e8 <L0^A>:
 10001e8:	785b      	ldrb	r3, [r3, #1]
 10001ea:	4a14      	ldr	r2, [pc, #80]	; (100023c <L0^A+0x54>)
 10001ec:	fba2 2303 	umull	r2, r3, r2, r3
 10001f0:	085b      	lsrs	r3, r3, #1
 10001f2:	73fb      	strb	r3, [r7, #15]
 10001f4:	687b      	ldr	r3, [r7, #4]
 10001f6:	3302      	adds	r3, #2
 10001f8:	607b      	str	r3, [r7, #4]
 10001fa:	2300      	movs	r3, #0
 10001fc:	75fb      	strb	r3, [r7, #23]
 10001fe:	e016      	b.n	100022e <L0^A+0x46>
 1000200:	687b      	ldr	r3, [r7, #4]
 1000202:	60bb      	str	r3, [r7, #8]
 1000204:	68bb      	ldr	r3, [r7, #8]
 1000206:	7818      	ldrb	r0, [r3, #0]
 1000208:	68bb      	ldr	r3, [r7, #8]
 100020a:	789b      	ldrb	r3, [r3, #2]
 100020c:	b29b      	uxth	r3, r3
 100020e:	021b      	lsls	r3, r3, #8
 1000210:	b29a      	uxth	r2, r3
 1000212:	68bb      	ldr	r3, [r7, #8]
 1000214:	785b      	ldrb	r3, [r3, #1]
 1000216:	b29b      	uxth	r3, r3
 1000218:	4413      	add	r3, r2
 100021a:	b29b      	uxth	r3, r3
 100021c:	4619      	mov	r1, r3
 100021e:	f009 f9ab 	bl	1009578 <RF_Write_Reg>
 1000222:	687b      	ldr	r3, [r7, #4]
 1000224:	3303      	adds	r3, #3
 1000226:	607b      	str	r3, [r7, #4]
 1000228:	7dfb      	ldrb	r3, [r7, #23]
 100022a:	3301      	adds	r3, #1
 100022c:	75fb      	strb	r3, [r7, #23]
 100022e:	7dfa      	ldrb	r2, [r7, #23]
 1000230:	7bfb      	ldrb	r3, [r7, #15]
 1000232:	429a      	cmp	r2, r3
 1000234:	d3e4      	bcc.n	1000200 <L0^A+0x18>
 1000236:	2300      	movs	r3, #0
 1000238:	f01e bf92 	b.w	101f160 <__pa_fn_0_31_11_0>
 100023c:	aaaaaaab 	.word	0xaaaaaaab

01000240 <IB_PMU_REG_proc>:
 1000240:	b580      	push	{r7, lr}
 1000242:	b088      	sub	sp, #32
 1000244:	af00      	add	r7, sp, #0
 1000246:	6078      	str	r0, [r7, #4]
 1000248:	687b      	ldr	r3, [r7, #4]
 100024a:	61bb      	str	r3, [r7, #24]
 100024c:	69bb      	ldr	r3, [r7, #24]
 100024e:	785a      	ldrb	r2, [r3, #1]
 1000250:	4b19      	ldr	r3, [pc, #100]	; (10002b8 <.LBB2+0x4>)
 1000252:	f01e f863 	bl	101e31c <__pa_fn_0_ab_01_0>
 1000256:	2b00      	cmp	r3, #0
 1000258:	d001      	beq.n	100025e <IB_PMU_REG_proc+0x1e>
 100025a:	2301      	movs	r3, #1
 100025c:	e027      	b.n	10002ae <L0^A+0x3e>
 100025e:	69bb      	ldr	r3, [r7, #24]
 1000260:	785b      	ldrb	r3, [r3, #1]
 1000262:	4a15      	ldr	r2, [pc, #84]	; (10002b8 <.LBB2+0x4>)
 1000264:	fba2 2303 	umull	r2, r3, r2, r3
 1000268:	085b      	lsrs	r3, r3, #1
 100026a:	75fb      	strb	r3, [r7, #23]
 100026c:	687b      	ldr	r3, [r7, #4]
 100026e:	3302      	adds	r3, #2

01000270 <L0^A>:
 1000270:	607b      	str	r3, [r7, #4]
 1000272:	2300      	movs	r3, #0
 1000274:	77fb      	strb	r3, [r7, #31]
 1000276:	e015      	b.n	10002a4 <L0^A+0x34>
 1000278:	687b      	ldr	r3, [r7, #4]
 100027a:	613b      	str	r3, [r7, #16]
 100027c:	693b      	ldr	r3, [r7, #16]
 100027e:	789b      	ldrb	r3, [r3, #2]
 1000280:	021b      	lsls	r3, r3, #8
 1000282:	461a      	mov	r2, r3
 1000284:	693b      	ldr	r3, [r7, #16]
 1000286:	785b      	ldrb	r3, [r3, #1]
 1000288:	4413      	add	r3, r2
 100028a:	60fb      	str	r3, [r7, #12]
 100028c:	693b      	ldr	r3, [r7, #16]
 100028e:	781b      	ldrb	r3, [r3, #0]
 1000290:	68f9      	ldr	r1, [r7, #12]
 1000292:	4618      	mov	r0, r3
 1000294:	f009 fa00 	bl	1009698 <PMU_Write_Reg>
 1000298:	687b      	ldr	r3, [r7, #4]
 100029a:	3303      	adds	r3, #3
 100029c:	607b      	str	r3, [r7, #4]
 100029e:	7ffb      	ldrb	r3, [r7, #31]
 10002a0:	3301      	adds	r3, #1
 10002a2:	77fb      	strb	r3, [r7, #31]
 10002a4:	7ffa      	ldrb	r2, [r7, #31]
 10002a6:	7dfb      	ldrb	r3, [r7, #23]
 10002a8:	429a      	cmp	r2, r3
 10002aa:	d3e5      	bcc.n	1000278 <L0^A+0x8>
 10002ac:	2300      	movs	r3, #0
 10002ae:	4618      	mov	r0, r3
 10002b0:	3720      	adds	r7, #32
 10002b2:	46bd      	mov	sp, r7

010002b4 <.LBB2>:
 10002b4:	bd80      	pop	{r7, pc}
 10002b6:	bf00      	nop
 10002b8:	aaaaaaab 	.word	0xaaaaaaab

010002bc <IB_BDADDR_proc>:
 10002bc:	b480      	push	{r7}
 10002be:	b085      	sub	sp, #20
 10002c0:	af00      	add	r7, sp, #0
 10002c2:	6078      	str	r0, [r7, #4]
 10002c4:	687b      	ldr	r3, [r7, #4]
 10002c6:	60fb      	str	r3, [r7, #12]
 10002c8:	68fb      	ldr	r3, [r7, #12]
 10002ca:	785b      	ldrb	r3, [r3, #1]
 10002cc:	2b07      	cmp	r3, #7
 10002ce:	d10d      	bne.n	10002ec <.LBE2+0x12>
 10002d0:	68fb      	ldr	r3, [r7, #12]
 10002d2:	1c9a      	adds	r2, r3, #2
 10002d4:	4b09      	ldr	r3, [pc, #36]	; (10002fc <L0^A+0x4>)
 10002d6:	6810      	ldr	r0, [r2, #0]
 10002d8:	6018      	str	r0, [r3, #0]

010002da <.LBE2>:
 10002da:	8891      	ldrh	r1, [r2, #4]
 10002dc:	7992      	ldrb	r2, [r2, #6]
 10002de:	8099      	strh	r1, [r3, #4]
 10002e0:	719a      	strb	r2, [r3, #6]
 10002e2:	4b07      	ldr	r3, [pc, #28]	; (1000300 <L0^A+0x8>)
 10002e4:	2201      	movs	r2, #1
 10002e6:	701a      	strb	r2, [r3, #0]
 10002e8:	2300      	movs	r3, #0
 10002ea:	e000      	b.n	10002ee <.LBE2+0x14>
 10002ec:	2301      	movs	r3, #1
 10002ee:	4618      	mov	r0, r3
 10002f0:	3714      	adds	r7, #20
 10002f2:	46bd      	mov	sp, r7
 10002f4:	f85d 7b04 	ldr.w	r7, [sp], #4

010002f8 <L0^A>:
 10002f8:	4770      	bx	lr
 10002fa:	bf00      	nop
 10002fc:	2000b4e8 	.word	0x2000b4e8
 1000300:	2000b4e5 	.word	0x2000b4e5

01000304 <IB_BT_BB_REG_proc>:
 1000304:	b480      	push	{r7}
 1000306:	b089      	sub	sp, #36	; 0x24
 1000308:	af00      	add	r7, sp, #0
 100030a:	6078      	str	r0, [r7, #4]
 100030c:	687b      	ldr	r3, [r7, #4]
 100030e:	61bb      	str	r3, [r7, #24]
 1000310:	69bb      	ldr	r3, [r7, #24]
 1000312:	785a      	ldrb	r2, [r3, #1]
 1000314:	4b27      	ldr	r3, [pc, #156]	; (10003b4 <L0^A+0x74>)
 1000316:	fba3 1302 	umull	r1, r3, r3, r2
 100031a:	0899      	lsrs	r1, r3, #2
 100031c:	460b      	mov	r3, r1
 100031e:	005b      	lsls	r3, r3, #1
 1000320:	440b      	add	r3, r1
 1000322:	005b      	lsls	r3, r3, #1
 1000324:	1ad3      	subs	r3, r2, r3
 1000326:	b2db      	uxtb	r3, r3
 1000328:	2b00      	cmp	r3, #0
 100032a:	d001      	beq.n	1000330 <IB_BT_BB_REG_proc+0x2c>
 100032c:	2301      	movs	r3, #1
 100032e:	e03a      	b.n	10003a6 <L0^A+0x66>
 1000330:	69bb      	ldr	r3, [r7, #24]
 1000332:	785b      	ldrb	r3, [r3, #1]
 1000334:	4a1f      	ldr	r2, [pc, #124]	; (10003b4 <L0^A+0x74>)
 1000336:	fba2 2303 	umull	r2, r3, r2, r3
 100033a:	089b      	lsrs	r3, r3, #2
 100033c:	75fb      	strb	r3, [r7, #23]
 100033e:	687b      	ldr	r3, [r7, #4]

01000340 <L0^A>:
 1000340:	3302      	adds	r3, #2
 1000342:	607b      	str	r3, [r7, #4]
 1000344:	2300      	movs	r3, #0
 1000346:	77fb      	strb	r3, [r7, #31]
 1000348:	e028      	b.n	100039c <L0^A+0x5c>
 100034a:	687b      	ldr	r3, [r7, #4]
 100034c:	613b      	str	r3, [r7, #16]
 100034e:	693b      	ldr	r3, [r7, #16]
 1000350:	785b      	ldrb	r3, [r3, #1]
 1000352:	021b      	lsls	r3, r3, #8
 1000354:	693a      	ldr	r2, [r7, #16]
 1000356:	7812      	ldrb	r2, [r2, #0]
 1000358:	4413      	add	r3, r2
 100035a:	f103 4382 	add.w	r3, r3, #1090519040	; 0x41000000
 100035e:	f503 3390 	add.w	r3, r3, #73728	; 0x12000
 1000362:	60fb      	str	r3, [r7, #12]
 1000364:	68fb      	ldr	r3, [r7, #12]
 1000366:	693a      	ldr	r2, [r7, #16]
 1000368:	7892      	ldrb	r2, [r2, #2]
 100036a:	701a      	strb	r2, [r3, #0]
 100036c:	68fb      	ldr	r3, [r7, #12]
 100036e:	3301      	adds	r3, #1
 1000370:	461a      	mov	r2, r3
 1000372:	693b      	ldr	r3, [r7, #16]
 1000374:	78db      	ldrb	r3, [r3, #3]
 1000376:	7013      	strb	r3, [r2, #0]
 1000378:	68fb      	ldr	r3, [r7, #12]
 100037a:	3302      	adds	r3, #2
 100037c:	461a      	mov	r2, r3
 100037e:	693b      	ldr	r3, [r7, #16]
 1000380:	791b      	ldrb	r3, [r3, #4]
 1000382:	7013      	strb	r3, [r2, #0]
 1000384:	68fb      	ldr	r3, [r7, #12]
 1000386:	3303      	adds	r3, #3
 1000388:	461a      	mov	r2, r3
 100038a:	693b      	ldr	r3, [r7, #16]
 100038c:	795b      	ldrb	r3, [r3, #5]
 100038e:	7013      	strb	r3, [r2, #0]
 1000390:	687b      	ldr	r3, [r7, #4]
 1000392:	3306      	adds	r3, #6
 1000394:	607b      	str	r3, [r7, #4]
 1000396:	7ffb      	ldrb	r3, [r7, #31]
 1000398:	3301      	adds	r3, #1
 100039a:	77fb      	strb	r3, [r7, #31]
 100039c:	7ffa      	ldrb	r2, [r7, #31]
 100039e:	7dfb      	ldrb	r3, [r7, #23]
 10003a0:	429a      	cmp	r2, r3
 10003a2:	d3d2      	bcc.n	100034a <L0^A+0xa>
 10003a4:	2300      	movs	r3, #0
 10003a6:	4618      	mov	r0, r3
 10003a8:	3724      	adds	r7, #36	; 0x24
 10003aa:	46bd      	mov	sp, r7
 10003ac:	f85d 7b04 	ldr.w	r7, [sp], #4
 10003b0:	4770      	bx	lr
 10003b2:	bf00      	nop
 10003b4:	aaaaaaab 	.word	0xaaaaaaab

010003b8 <IB_ZB_BB_REG_proc>:
 10003b8:	b480      	push	{r7}
 10003ba:	b089      	sub	sp, #36	; 0x24
 10003bc:	af00      	add	r7, sp, #0
 10003be:	6078      	str	r0, [r7, #4]
 10003c0:	687b      	ldr	r3, [r7, #4]
 10003c2:	61bb      	str	r3, [r7, #24]
 10003c4:	69bb      	ldr	r3, [r7, #24]
 10003c6:	785a      	ldrb	r2, [r3, #1]
 10003c8:	4b2e      	ldr	r3, [pc, #184]	; (1000484 <L0^A+0x90>)
 10003ca:	fba3 1302 	umull	r1, r3, r3, r2
 10003ce:	0899      	lsrs	r1, r3, #2
 10003d0:	460b      	mov	r3, r1
 10003d2:	005b      	lsls	r3, r3, #1
 10003d4:	440b      	add	r3, r1
 10003d6:	005b      	lsls	r3, r3, #1
 10003d8:	1ad3      	subs	r3, r2, r3
 10003da:	b2db      	uxtb	r3, r3
 10003dc:	2b00      	cmp	r3, #0
 10003de:	d001      	beq.n	10003e4 <IB_ZB_BB_REG_proc+0x2c>
 10003e0:	2301      	movs	r3, #1
 10003e2:	e049      	b.n	1000478 <L0^A+0x84>
 10003e4:	69bb      	ldr	r3, [r7, #24]
 10003e6:	785b      	ldrb	r3, [r3, #1]
 10003e8:	4a26      	ldr	r2, [pc, #152]	; (1000484 <L0^A+0x90>)
 10003ea:	fba2 2303 	umull	r2, r3, r2, r3
 10003ee:	089b      	lsrs	r3, r3, #2
 10003f0:	75fb      	strb	r3, [r7, #23]
 10003f2:	687b      	ldr	r3, [r7, #4]

010003f4 <L0^A>:
 10003f4:	3302      	adds	r3, #2
 10003f6:	607b      	str	r3, [r7, #4]
 10003f8:	2300      	movs	r3, #0
 10003fa:	77fb      	strb	r3, [r7, #31]
 10003fc:	e037      	b.n	100046e <L0^A+0x7a>
 10003fe:	687b      	ldr	r3, [r7, #4]
 1000400:	613b      	str	r3, [r7, #16]
 1000402:	693b      	ldr	r3, [r7, #16]
 1000404:	785b      	ldrb	r3, [r3, #1]
 1000406:	b29b      	uxth	r3, r3
 1000408:	021b      	lsls	r3, r3, #8
 100040a:	b29a      	uxth	r2, r3
 100040c:	693b      	ldr	r3, [r7, #16]
 100040e:	781b      	ldrb	r3, [r3, #0]
 1000410:	b29b      	uxth	r3, r3
 1000412:	4413      	add	r3, r2
 1000414:	81fb      	strh	r3, [r7, #14]
 1000416:	89fb      	ldrh	r3, [r7, #14]
 1000418:	f103 4382 	add.w	r3, r3, #1090519040	; 0x41000000
 100041c:	f503 3380 	add.w	r3, r3, #65536	; 0x10000
 1000420:	60bb      	str	r3, [r7, #8]
 1000422:	68bb      	ldr	r3, [r7, #8]
 1000424:	693a      	ldr	r2, [r7, #16]
 1000426:	7892      	ldrb	r2, [r2, #2]
 1000428:	701a      	strb	r2, [r3, #0]
 100042a:	68bb      	ldr	r3, [r7, #8]
 100042c:	3301      	adds	r3, #1
 100042e:	461a      	mov	r2, r3
 1000430:	693b      	ldr	r3, [r7, #16]
 1000432:	78db      	ldrb	r3, [r3, #3]
 1000434:	7013      	strb	r3, [r2, #0]
 1000436:	68bb      	ldr	r3, [r7, #8]
 1000438:	3302      	adds	r3, #2
 100043a:	461a      	mov	r2, r3
 100043c:	693b      	ldr	r3, [r7, #16]
 100043e:	791b      	ldrb	r3, [r3, #4]
 1000440:	7013      	strb	r3, [r2, #0]
 1000442:	68bb      	ldr	r3, [r7, #8]
 1000444:	3303      	adds	r3, #3
 1000446:	461a      	mov	r2, r3
 1000448:	693b      	ldr	r3, [r7, #16]
 100044a:	795b      	ldrb	r3, [r3, #5]
 100044c:	7013      	strb	r3, [r2, #0]
 100044e:	89fb      	ldrh	r3, [r7, #14]
 1000450:	2ba4      	cmp	r3, #164	; 0xa4
 1000452:	d106      	bne.n	1000462 <L0^A+0x6e>
 1000454:	693b      	ldr	r3, [r7, #16]
 1000456:	789b      	ldrb	r3, [r3, #2]
 1000458:	f003 031f 	and.w	r3, r3, #31
 100045c:	b2da      	uxtb	r2, r3
 100045e:	4b0a      	ldr	r3, [pc, #40]	; (1000488 <L0^A+0x94>)
 1000460:	701a      	strb	r2, [r3, #0]
 1000462:	687b      	ldr	r3, [r7, #4]
 1000464:	3306      	adds	r3, #6
 1000466:	607b      	str	r3, [r7, #4]
 1000468:	7ffb      	ldrb	r3, [r7, #31]
 100046a:	3301      	adds	r3, #1
 100046c:	77fb      	strb	r3, [r7, #31]
 100046e:	7ffa      	ldrb	r2, [r7, #31]
 1000470:	7dfb      	ldrb	r3, [r7, #23]
 1000472:	429a      	cmp	r2, r3
 1000474:	d3c3      	bcc.n	10003fe <L0^A+0xa>
 1000476:	2300      	movs	r3, #0
 1000478:	4618      	mov	r0, r3
 100047a:	3724      	adds	r7, #36	; 0x24
 100047c:	46bd      	mov	sp, r7
 100047e:	f85d 7b04 	ldr.w	r7, [sp], #4
 1000482:	4770      	bx	lr
 1000484:	aaaaaaab 	.word	0xaaaaaaab
 1000488:	2000b704 	.word	0x2000b704

0100048c <IB_ID_BAT_K_SAR_proc>:
 100048c:	b480      	push	{r7}
 100048e:	b085      	sub	sp, #20
 1000490:	af00      	add	r7, sp, #0
 1000492:	6078      	str	r0, [r7, #4]
 1000494:	687b      	ldr	r3, [r7, #4]
 1000496:	60fb      	str	r3, [r7, #12]
 1000498:	68fb      	ldr	r3, [r7, #12]
 100049a:	785b      	ldrb	r3, [r3, #1]
 100049c:	2b04      	cmp	r3, #4
 100049e:	d119      	bne.n	10004d4 <L0^A+0xc>
 10004a0:	68fb      	ldr	r3, [r7, #12]
 10004a2:	78db      	ldrb	r3, [r3, #3]
 10004a4:	b29b      	uxth	r3, r3
 10004a6:	021b      	lsls	r3, r3, #8
 10004a8:	b29a      	uxth	r2, r3
 10004aa:	68fb      	ldr	r3, [r7, #12]
 10004ac:	789b      	ldrb	r3, [r3, #2]
 10004ae:	b29b      	uxth	r3, r3
 10004b0:	4413      	add	r3, r2
 10004b2:	b29a      	uxth	r2, r3
 10004b4:	4b09      	ldr	r3, [pc, #36]	; (10004dc <L0^A+0x14>)
 10004b6:	801a      	strh	r2, [r3, #0]
 10004b8:	68fb      	ldr	r3, [r7, #12]
 10004ba:	795b      	ldrb	r3, [r3, #5]
 10004bc:	b29b      	uxth	r3, r3
 10004be:	021b      	lsls	r3, r3, #8
 10004c0:	b29a      	uxth	r2, r3
 10004c2:	68fb      	ldr	r3, [r7, #12]
 10004c4:	791b      	ldrb	r3, [r3, #4]
 10004c6:	b29b      	uxth	r3, r3

010004c8 <L0^A>:
 10004c8:	4413      	add	r3, r2
 10004ca:	b29a      	uxth	r2, r3
 10004cc:	4b04      	ldr	r3, [pc, #16]	; (10004e0 <L0^A+0x18>)
 10004ce:	801a      	strh	r2, [r3, #0]
 10004d0:	2300      	movs	r3, #0
 10004d2:	e000      	b.n	10004d6 <L0^A+0xe>
 10004d4:	2301      	movs	r3, #1
 10004d6:	f01e bca1 	b.w	101ee1c <__pa_fn_0_30_10_0>
 10004da:	bf00      	nop
 10004dc:	2000b4f8 	.word	0x2000b4f8
 10004e0:	2000b4fa 	.word	0x2000b4fa

010004e4 <IB_TEMPERATURE_DET_SAR_proc>:
 10004e4:	b480      	push	{r7}
 10004e6:	b085      	sub	sp, #20
 10004e8:	af00      	add	r7, sp, #0
 10004ea:	6078      	str	r0, [r7, #4]
 10004ec:	687b      	ldr	r3, [r7, #4]
 10004ee:	60fb      	str	r3, [r7, #12]
 10004f0:	68fb      	ldr	r3, [r7, #12]
 10004f2:	785b      	ldrb	r3, [r3, #1]
 10004f4:	2b02      	cmp	r3, #2
 10004f6:	d10d      	bne.n	1000514 <IB_TEMPERATURE_DET_SAR_proc+0x30>
 10004f8:	68fb      	ldr	r3, [r7, #12]
 10004fa:	78db      	ldrb	r3, [r3, #3]
 10004fc:	b29b      	uxth	r3, r3
 10004fe:	021b      	lsls	r3, r3, #8
 1000500:	b29a      	uxth	r2, r3
 1000502:	68fb      	ldr	r3, [r7, #12]
 1000504:	789b      	ldrb	r3, [r3, #2]
 1000506:	b29b      	uxth	r3, r3
 1000508:	4413      	add	r3, r2
 100050a:	b29a      	uxth	r2, r3
 100050c:	4b03      	ldr	r3, [pc, #12]	; (100051c <IB_TEMPERATURE_DET_SAR_proc+0x38>)
 100050e:	801a      	strh	r2, [r3, #0]
 1000510:	2300      	movs	r3, #0
 1000512:	e000      	b.n	1000516 <IB_TEMPERATURE_DET_SAR_proc+0x32>
 1000514:	2301      	movs	r3, #1
 1000516:	f01e bc81 	b.w	101ee1c <__pa_fn_0_30_10_0>
 100051a:	bf00      	nop
 100051c:	2000b702 	.word	0x2000b702

01000520 <IB_MAC_ADDR_proc>:
 1000520:	b480      	push	{r7}
 1000522:	b085      	sub	sp, #20
 1000524:	af00      	add	r7, sp, #0
 1000526:	6078      	str	r0, [r7, #4]

01000528 <L0^A>:
 1000528:	687b      	ldr	r3, [r7, #4]
 100052a:	60fb      	str	r3, [r7, #12]
 100052c:	68fb      	ldr	r3, [r7, #12]
 100052e:	785b      	ldrb	r3, [r3, #1]
 1000530:	2b08      	cmp	r3, #8
 1000532:	d10a      	bne.n	100054a <L0^A+0x22>
 1000534:	68fb      	ldr	r3, [r7, #12]
 1000536:	1c9a      	adds	r2, r3, #2
 1000538:	4b07      	ldr	r3, [pc, #28]	; (1000558 <L0^A+0x30>)
 100053a:	6810      	ldr	r0, [r2, #0]
 100053c:	6851      	ldr	r1, [r2, #4]
 100053e:	c303      	stmia	r3!, {r0, r1}
 1000540:	4b06      	ldr	r3, [pc, #24]	; (100055c <L0^A+0x34>)
 1000542:	2201      	movs	r2, #1
 1000544:	701a      	strb	r2, [r3, #0]
 1000546:	2300      	movs	r3, #0
 1000548:	e000      	b.n	100054c <L0^A+0x24>
 100054a:	2301      	movs	r3, #1
 100054c:	4618      	mov	r0, r3
 100054e:	3714      	adds	r7, #20
 1000550:	46bd      	mov	sp, r7
 1000552:	f85d 7b04 	ldr.w	r7, [sp], #4
 1000556:	4770      	bx	lr
 1000558:	2000b4f0 	.word	0x2000b4f0
 100055c:	2000b4ef 	.word	0x2000b4ef

01000560 <IB_CUSTOMER_INFO_proc>:
 1000560:	b480      	push	{r7}
 1000562:	b083      	sub	sp, #12
 1000564:	af00      	add	r7, sp, #0
 1000566:	6078      	str	r0, [r7, #4]
 1000568:	2300      	movs	r3, #0
 100056a:	4618      	mov	r0, r3

0100056c <L0^A>:
 100056c:	370c      	adds	r7, #12
 100056e:	f01e be0f 	b.w	101f190 <__pa_fn_0_aa_10_0>

01000572 <IB_USE_FLASH_proc>:
 1000572:	b480      	push	{r7}
 1000574:	b085      	sub	sp, #20
 1000576:	af00      	add	r7, sp, #0
 1000578:	6078      	str	r0, [r7, #4]
 100057a:	687b      	ldr	r3, [r7, #4]
 100057c:	60fb      	str	r3, [r7, #12]
 100057e:	687b      	ldr	r3, [r7, #4]
 1000580:	3302      	adds	r3, #2
 1000582:	60bb      	str	r3, [r7, #8]
 1000584:	68fb      	ldr	r3, [r7, #12]
 1000586:	785b      	ldrb	r3, [r3, #1]
 1000588:	2b04      	cmp	r3, #4
 100058a:	d112      	bne.n	10005b2 <L0^A+0x6>
 100058c:	68bb      	ldr	r3, [r7, #8]
 100058e:	78db      	ldrb	r3, [r3, #3]
 1000590:	061a      	lsls	r2, r3, #24
 1000592:	68bb      	ldr	r3, [r7, #8]
 1000594:	789b      	ldrb	r3, [r3, #2]
 1000596:	041b      	lsls	r3, r3, #16
 1000598:	431a      	orrs	r2, r3
 100059a:	68bb      	ldr	r3, [r7, #8]
 100059c:	785b      	ldrb	r3, [r3, #1]
 100059e:	021b      	lsls	r3, r3, #8
 10005a0:	4313      	orrs	r3, r2
 10005a2:	68ba      	ldr	r2, [r7, #8]
 10005a4:	7812      	ldrb	r2, [r2, #0]
 10005a6:	4313      	orrs	r3, r2
 10005a8:	4a03      	ldr	r2, [pc, #12]	; (10005b8 <L0^A+0xc>)
 10005aa:	6013      	str	r3, [r2, #0]

010005ac <L0^A>:
 10005ac:	4b03      	ldr	r3, [pc, #12]	; (10005bc <L0^A+0x10>)
 10005ae:	2201      	movs	r2, #1
 10005b0:	701a      	strb	r2, [r3, #0]
 10005b2:	2300      	movs	r3, #0
 10005b4:	f01e bc32 	b.w	101ee1c <__pa_fn_0_30_10_0>
 10005b8:	2000b4e0 	.word	0x2000b4e0
 10005bc:	2000b4e4 	.word	0x2000b4e4

010005c0 <IB_SearchNextValidBlock>:
 10005c0:	b580      	push	{r7, lr}

010005c2 <L0^A>:
 10005c2:	b086      	sub	sp, #24
 10005c4:	af00      	add	r7, sp, #0
 10005c6:	6078      	str	r0, [r7, #4]
 10005c8:	6039      	str	r1, [r7, #0]
 10005ca:	e07f      	b.n	10006cc <.LBB4+0x16>
 10005cc:	687b      	ldr	r3, [r7, #4]
 10005ce:	781b      	ldrb	r3, [r3, #0]
 10005d0:	b2db      	uxtb	r3, r3
 10005d2:	2bff      	cmp	r3, #255	; 0xff
 10005d4:	d123      	bne.n	100061e <L0^A+0x6>
 10005d6:	687b      	ldr	r3, [r7, #4]
 10005d8:	f003 0303 	and.w	r3, r3, #3
 10005dc:	2b00      	cmp	r3, #0
 10005de:	d103      	bne.n	10005e8 <L0^A+0x26>
 10005e0:	687b      	ldr	r3, [r7, #4]
 10005e2:	f043 437f 	orr.w	r3, r3, #4278190080	; 0xff000000
 10005e6:	e07a      	b.n	10006de <.LBB4+0x28>
 10005e8:	687b      	ldr	r3, [r7, #4]
 10005ea:	f023 0303 	bic.w	r3, r3, #3
 10005ee:	3304      	adds	r3, #4
 10005f0:	607b      	str	r3, [r7, #4]
 10005f2:	687a      	ldr	r2, [r7, #4]
 10005f4:	683b      	ldr	r3, [r7, #0]
 10005f6:	429a      	cmp	r2, r3
 10005f8:	d302      	bcc.n	1000600 <L0^A+0x3e>
 10005fa:	f04f 33ff 	mov.w	r3, #4294967295
 10005fe:	e06e      	b.n	10006de <.LBB4+0x28>
 1000600:	687b      	ldr	r3, [r7, #4]
 1000602:	681b      	ldr	r3, [r3, #0]
 1000604:	f1b3 3fff 	cmp.w	r3, #4294967295
 1000608:	d109      	bne.n	100061e <L0^A+0x6>
 100060a:	687b      	ldr	r3, [r7, #4]
 100060c:	3310      	adds	r3, #16
 100060e:	681b      	ldr	r3, [r3, #0]
 1000610:	f1b3 3fff 	cmp.w	r3, #4294967295
 1000614:	d103      	bne.n	100061e <L0^A+0x6>
 1000616:	687b      	ldr	r3, [r7, #4]

01000618 <L0^A>:
 1000618:	f043 437f 	orr.w	r3, r3, #4278190080	; 0xff000000
 100061c:	e05f      	b.n	10006de <.LBB4+0x28>
 100061e:	687b      	ldr	r3, [r7, #4]
 1000620:	613b      	str	r3, [r7, #16]
 1000622:	693b      	ldr	r3, [r7, #16]
 1000624:	781b      	ldrb	r3, [r3, #0]
 1000626:	2b01      	cmp	r3, #1
 1000628:	d119      	bne.n	100065e <L0^A+0x46>
 100062a:	693b      	ldr	r3, [r7, #16]
 100062c:	785b      	ldrb	r3, [r3, #1]
 100062e:	2b01      	cmp	r3, #1
 1000630:	d115      	bne.n	100065e <L0^A+0x46>
 1000632:	693b      	ldr	r3, [r7, #16]
 1000634:	789b      	ldrb	r3, [r3, #2]
 1000636:	461a      	mov	r2, r3
 1000638:	687b      	ldr	r3, [r7, #4]
 100063a:	4413      	add	r3, r2
 100063c:	3305      	adds	r3, #5
 100063e:	60fb      	str	r3, [r7, #12]
 1000640:	687b      	ldr	r3, [r7, #4]
 1000642:	3303      	adds	r3, #3
 1000644:	4618      	mov	r0, r3
 1000646:	693b      	ldr	r3, [r7, #16]
 1000648:	789b      	ldrb	r3, [r3, #2]
 100064a:	b29b      	uxth	r3, r3
 100064c:	68fa      	ldr	r2, [r7, #12]
 100064e:	4619      	mov	r1, r3
 1000650:	f7ff fd88 	bl	1000164 <IB_FW_CRC_Proc>
 1000654:	4603      	mov	r3, r0
 1000656:	2b00      	cmp	r3, #0
 1000658:	d101      	bne.n	100065e <L0^A+0x46>
 100065a:	687b      	ldr	r3, [r7, #4]
 100065c:	e03f      	b.n	10006de <.LBB4+0x28>
 100065e:	2300      	movs	r3, #0
 1000660:	75fb      	strb	r3, [r7, #23]
 1000662:	e030      	b.n	10006c6 <.LBB4+0x10>
 1000664:	683b      	ldr	r3, [r7, #0]
 1000666:	f1a3 0208 	sub.w	r2, r3, #8
 100066a:	687b      	ldr	r3, [r7, #4]
 100066c:	429a      	cmp	r2, r3
 100066e:	d800      	bhi.n	1000672 <L0^A+0x5a>
 1000670:	e02c      	b.n	10006cc <.LBB4+0x16>
 1000672:	687b      	ldr	r3, [r7, #4]
 1000674:	681b      	ldr	r3, [r3, #0]
 1000676:	f1b3 3fff 	cmp.w	r3, #4294967295
 100067a:	d100      	bne.n	100067e <L0^A+0x66>
 100067c:	e026      	b.n	10006cc <.LBB4+0x16>
 100067e:	687b      	ldr	r3, [r7, #4]
 1000680:	781b      	ldrb	r3, [r3, #0]
 1000682:	b2db      	uxtb	r3, r3
 1000684:	2bef      	cmp	r3, #239	; 0xef
 1000686:	d11b      	bne.n	10006c0 <.LBB4+0xa>
 1000688:	687b      	ldr	r3, [r7, #4]

0100068a <.LBB3>:
 100068a:	3301      	adds	r3, #1
 100068c:	781b      	ldrb	r3, [r3, #0]
 100068e:	b2db      	uxtb	r3, r3
 1000690:	2b00      	cmp	r3, #0
 1000692:	d111      	bne.n	10006b8 <.LBB4+0x2>
 1000694:	687b      	ldr	r3, [r7, #4]
 1000696:	3302      	adds	r3, #2
 1000698:	781b      	ldrb	r3, [r3, #0]
 100069a:	b2db      	uxtb	r3, r3
 100069c:	2bed      	cmp	r3, #237	; 0xed
 100069e:	d10b      	bne.n	10006b8 <.LBB4+0x2>
 10006a0:	687b      	ldr	r3, [r7, #4]
 10006a2:	3303      	adds	r3, #3
 10006a4:	781b      	ldrb	r3, [r3, #0]
 10006a6:	b2db      	uxtb	r3, r3
 10006a8:	2b03      	cmp	r3, #3
 10006aa:	d105      	bne.n	10006b8 <.LBB4+0x2>
 10006ac:	2301      	movs	r3, #1
 10006ae:	75fb      	strb	r3, [r7, #23]
 10006b0:	687b      	ldr	r3, [r7, #4]
 10006b2:	3307      	adds	r3, #7
 10006b4:	607b      	str	r3, [r7, #4]

010006b6 <.LBB4>:
 10006b6:	e006      	b.n	10006c6 <.LBB4+0x10>
 10006b8:	687b      	ldr	r3, [r7, #4]
 10006ba:	3304      	adds	r3, #4
 10006bc:	607b      	str	r3, [r7, #4]
 10006be:	e002      	b.n	10006c6 <.LBB4+0x10>
 10006c0:	687b      	ldr	r3, [r7, #4]
 10006c2:	3301      	adds	r3, #1
 10006c4:	607b      	str	r3, [r7, #4]
 10006c6:	7dfb      	ldrb	r3, [r7, #23]
 10006c8:	2b00      	cmp	r3, #0
 10006ca:	d0cb      	beq.n	1000664 <L0^A+0x4c>
 10006cc:	683b      	ldr	r3, [r7, #0]
 10006ce:	f1a3 0208 	sub.w	r2, r3, #8
 10006d2:	687b      	ldr	r3, [r7, #4]
 10006d4:	429a      	cmp	r2, r3
 10006d6:	f63f af79 	bhi.w	10005cc <L0^A+0xa>
 10006da:	f04f 33ff 	mov.w	r3, #4294967295
 10006de:	f01e bd3f 	b.w	101f160 <__pa_fn_0_31_11_0>

010006e2 <IB_LoadData>:
 10006e2:	b580      	push	{r7, lr}
 10006e4:	b086      	sub	sp, #24
 10006e6:	af00      	add	r7, sp, #0
 10006e8:	6078      	str	r0, [r7, #4]
 10006ea:	6039      	str	r1, [r7, #0]
 10006ec:	2300      	movs	r3, #0
 10006ee:	75fb      	strb	r3, [r7, #23]
 10006f0:	687b      	ldr	r3, [r7, #4]
 10006f2:	613b      	str	r3, [r7, #16]
 10006f4:	693b      	ldr	r3, [r7, #16]
 10006f6:	789b      	ldrb	r3, [r3, #2]
 10006f8:	b29b      	uxth	r3, r3
 10006fa:	3303      	adds	r3, #3
 10006fc:	b29b      	uxth	r3, r3
 10006fe:	82bb      	strh	r3, [r7, #20]
 1000700:	e106      	b.n	1000910 <L0^A+0x1d2>
 1000702:	687b      	ldr	r3, [r7, #4]
 1000704:	60fb      	str	r3, [r7, #12]
 1000706:	68fb      	ldr	r3, [r7, #12]
 1000708:	60bb      	str	r3, [r7, #8]
 100070a:	2300      	movs	r3, #0
 100070c:	75fb      	strb	r3, [r7, #23]
 100070e:	68bb      	ldr	r3, [r7, #8]
 1000710:	781b      	ldrb	r3, [r3, #0]
 1000712:	3b06      	subs	r3, #6
 1000714:	2b4f      	cmp	r3, #79	; 0x4f
 1000716:	f200 80df 	bhi.w	10008d8 <L0^A+0x19a>
 100071a:	a201      	add	r2, pc, #4	; (adr r2, 1000720 <IB_LoadData+0x3e>)
 100071c:	f852 f023 	ldr.w	pc, [r2, r3, lsl #2]
 1000720:	01000861 	.word	0x01000861

01000724 <.LBE4>:
 1000724:	0100086d 	.word	0x0100086d
 1000728:	01000879 	.word	0x01000879
 100072c:	01000885 	.word	0x01000885
 1000730:	01000891 	.word	0x01000891
 1000734:	0100089d 	.word	0x0100089d
 1000738:	010008d9 	.word	0x010008d9
 100073c:	08d9      	.short	0x08d9

0100073e <L0^A>:
 100073e:	0100      	.short	0x0100
 1000740:	010008d9 	.word	0x010008d9
 1000744:	010008d9 	.word	0x010008d9
 1000748:	010008a9 	.word	0x010008a9
 100074c:	010008d9 	.word	0x010008d9
 1000750:	010008d9 	.word	0x010008d9
 1000754:	010008d9 	.word	0x010008d9
 1000758:	010008d9 	.word	0x010008d9
 100075c:	010008b5 	.word	0x010008b5
 1000760:	010008c1 	.word	0x010008c1
 1000764:	010008d9 	.word	0x010008d9
 1000768:	010008d9 	.word	0x010008d9
 100076c:	010008d9 	.word	0x010008d9
 1000770:	010008d9 	.word	0x010008d9
 1000774:	010008d9 	.word	0x010008d9
 1000778:	010008d9 	.word	0x010008d9
 100077c:	010008d9 	.word	0x010008d9
 1000780:	010008d9 	.word	0x010008d9
 1000784:	010008d9 	.word	0x010008d9
 1000788:	010008d9 	.word	0x010008d9
 100078c:	010008d9 	.word	0x010008d9
 1000790:	010008d9 	.word	0x010008d9
 1000794:	010008d9 	.word	0x010008d9
 1000798:	010008d9 	.word	0x010008d9
 100079c:	010008d9 	.word	0x010008d9
 10007a0:	010008d9 	.word	0x010008d9
 10007a4:	010008d9 	.word	0x010008d9
 10007a8:	010008d9 	.word	0x010008d9
 10007ac:	010008d9 	.word	0x010008d9
 10007b0:	010008d9 	.word	0x010008d9
 10007b4:	010008d9 	.word	0x010008d9
 10007b8:	010008d9 	.word	0x010008d9
 10007bc:	010008d9 	.word	0x010008d9
 10007c0:	010008d9 	.word	0x010008d9
 10007c4:	010008d9 	.word	0x010008d9
 10007c8:	010008d9 	.word	0x010008d9
 10007cc:	010008d9 	.word	0x010008d9
 10007d0:	010008d9 	.word	0x010008d9
 10007d4:	010008d9 	.word	0x010008d9
 10007d8:	010008d9 	.word	0x010008d9
 10007dc:	010008d9 	.word	0x010008d9
 10007e0:	010008d9 	.word	0x010008d9
 10007e4:	010008d9 	.word	0x010008d9
 10007e8:	010008d9 	.word	0x010008d9
 10007ec:	010008d9 	.word	0x010008d9
 10007f0:	010008d9 	.word	0x010008d9
 10007f4:	010008d9 	.word	0x010008d9
 10007f8:	010008d9 	.word	0x010008d9
 10007fc:	010008d9 	.word	0x010008d9
 1000800:	010008d9 	.word	0x010008d9
 1000804:	010008d9 	.word	0x010008d9
 1000808:	010008d9 	.word	0x010008d9
 100080c:	010008d9 	.word	0x010008d9
 1000810:	010008d9 	.word	0x010008d9
 1000814:	010008d9 	.word	0x010008d9
 1000818:	010008d9 	.word	0x010008d9
 100081c:	010008d9 	.word	0x010008d9
 1000820:	010008d9 	.word	0x010008d9
 1000824:	010008d9 	.word	0x010008d9
 1000828:	010008d9 	.word	0x010008d9
 100082c:	010008d9 	.word	0x010008d9
 1000830:	010008d9 	.word	0x010008d9
 1000834:	010008d9 	.word	0x010008d9
 1000838:	010008d9 	.word	0x010008d9
 100083c:	010008d9 	.word	0x010008d9
 1000840:	010008d9 	.word	0x010008d9
 1000844:	010008d9 	.word	0x010008d9
 1000848:	010008d9 	.word	0x010008d9
 100084c:	010008d9 	.word	0x010008d9
 1000850:	010008d9 	.word	0x010008d9
 1000854:	010008d9 	.word	0x010008d9
 1000858:	010008d9 	.word	0x010008d9
 100085c:	010008cd 	.word	0x010008cd
 1000860:	68f8      	ldr	r0, [r7, #12]
 1000862:	f7ff fd2b 	bl	10002bc <IB_BDADDR_proc>
 1000866:	4603      	mov	r3, r0
 1000868:	75fb      	strb	r3, [r7, #23]
 100086a:	e036      	b.n	10008da <L0^A+0x19c>
 100086c:	68f8      	ldr	r0, [r7, #12]
 100086e:	f7ff fcab 	bl	10001c8 <IB_RF_REG_proc>
 1000872:	4603      	mov	r3, r0
 1000874:	75fb      	strb	r3, [r7, #23]
 1000876:	e030      	b.n	10008da <L0^A+0x19c>
 1000878:	68f8      	ldr	r0, [r7, #12]
 100087a:	f7ff fce1 	bl	1000240 <IB_PMU_REG_proc>
 100087e:	4603      	mov	r3, r0
 1000880:	75fb      	strb	r3, [r7, #23]
 1000882:	e02a      	b.n	10008da <L0^A+0x19c>
 1000884:	68f8      	ldr	r0, [r7, #12]
 1000886:	f7ff fd3d 	bl	1000304 <IB_BT_BB_REG_proc>
 100088a:	4603      	mov	r3, r0
 100088c:	75fb      	strb	r3, [r7, #23]
 100088e:	e024      	b.n	10008da <L0^A+0x19c>
 1000890:	68f8      	ldr	r0, [r7, #12]
 1000892:	f7ff fd91 	bl	10003b8 <IB_ZB_BB_REG_proc>
 1000896:	4603      	mov	r3, r0
 1000898:	75fb      	strb	r3, [r7, #23]
 100089a:	e01e      	b.n	10008da <L0^A+0x19c>
 100089c:	68f8      	ldr	r0, [r7, #12]
 100089e:	f7ff fdf5 	bl	100048c <IB_ID_BAT_K_SAR_proc>
 10008a2:	4603      	mov	r3, r0
 10008a4:	75fb      	strb	r3, [r7, #23]
 10008a6:	e018      	b.n	10008da <L0^A+0x19c>
 10008a8:	68f8      	ldr	r0, [r7, #12]
 10008aa:	f7ff fe1b 	bl	10004e4 <IB_TEMPERATURE_DET_SAR_proc>
 10008ae:	4603      	mov	r3, r0
 10008b0:	75fb      	strb	r3, [r7, #23]
 10008b2:	e012      	b.n	10008da <L0^A+0x19c>
 10008b4:	68f8      	ldr	r0, [r7, #12]
 10008b6:	f7ff fe33 	bl	1000520 <IB_MAC_ADDR_proc>
 10008ba:	4603      	mov	r3, r0
 10008bc:	75fb      	strb	r3, [r7, #23]
 10008be:	e00c      	b.n	10008da <L0^A+0x19c>
 10008c0:	68f8      	ldr	r0, [r7, #12]
 10008c2:	f7ff fe4d 	bl	1000560 <IB_CUSTOMER_INFO_proc>
 10008c6:	4603      	mov	r3, r0
 10008c8:	75fb      	strb	r3, [r7, #23]
 10008ca:	e006      	b.n	10008da <L0^A+0x19c>
 10008cc:	68f8      	ldr	r0, [r7, #12]
 10008ce:	f7ff fe50 	bl	1000572 <IB_USE_FLASH_proc>
 10008d2:	4603      	mov	r3, r0
 10008d4:	75fb      	strb	r3, [r7, #23]
 10008d6:	e000      	b.n	10008da <L0^A+0x19c>
 10008d8:	bf00      	nop
 10008da:	7dfb      	ldrb	r3, [r7, #23]
 10008dc:	2b01      	cmp	r3, #1
 10008de:	d01c      	beq.n	100091a <L0^A+0x1dc>
 10008e0:	f9b7 3014 	ldrsh.w	r3, [r7, #20]
 10008e4:	2b00      	cmp	r3, #0
 10008e6:	dd18      	ble.n	100091a <L0^A+0x1dc>
 10008e8:	687a      	ldr	r2, [r7, #4]
 10008ea:	683b      	ldr	r3, [r7, #0]
 10008ec:	429a      	cmp	r2, r3
 10008ee:	d214      	bcs.n	100091a <L0^A+0x1dc>
 10008f0:	8aba      	ldrh	r2, [r7, #20]
 10008f2:	68bb      	ldr	r3, [r7, #8]
 10008f4:	785b      	ldrb	r3, [r3, #1]
 10008f6:	b29b      	uxth	r3, r3
 10008f8:	1ad3      	subs	r3, r2, r3
 10008fa:	b29b      	uxth	r3, r3
 10008fc:	3b02      	subs	r3, #2
 10008fe:	b29b      	uxth	r3, r3
 1000900:	82bb      	strh	r3, [r7, #20]
 1000902:	68bb      	ldr	r3, [r7, #8]
 1000904:	785b      	ldrb	r3, [r3, #1]
 1000906:	461a      	mov	r2, r3
 1000908:	687b      	ldr	r3, [r7, #4]
 100090a:	4413      	add	r3, r2
 100090c:	3302      	adds	r3, #2
 100090e:	607b      	str	r3, [r7, #4]
 1000910:	f9b7 3014 	ldrsh.w	r3, [r7, #20]
 1000914:	2b00      	cmp	r3, #0
 1000916:	f73f aef4 	bgt.w	1000702 <IB_LoadData+0x20>
 100091a:	7dfb      	ldrb	r3, [r7, #23]
 100091c:	4618      	mov	r0, r3
 100091e:	3718      	adds	r7, #24
 1000920:	46bd      	mov	sp, r7
 1000922:	bd80      	pop	{r7, pc}

01000924 <IB_Load>:
 1000924:	b580      	push	{r7, lr}
 1000926:	b086      	sub	sp, #24
 1000928:	af00      	add	r7, sp, #0
 100092a:	4603      	mov	r3, r0
 100092c:	71fb      	strb	r3, [r7, #7]
 100092e:	2300      	movs	r3, #0
 1000930:	75fb      	strb	r3, [r7, #23]
 1000932:	79fb      	ldrb	r3, [r7, #7]
 1000934:	2b00      	cmp	r3, #0
 1000936:	d106      	bne.n	1000946 <IB_Load+0x22>
 1000938:	f44f 43c0 	mov.w	r3, #24576	; 0x6000
 100093c:	613b      	str	r3, [r7, #16]
 100093e:	f44f 43e0 	mov.w	r3, #28672	; 0x7000
 1000942:	60fb      	str	r3, [r7, #12]
 1000944:	e02b      	b.n	100099e <L0^A+0x1e>
 1000946:	4b1b      	ldr	r3, [pc, #108]	; (10009b4 <L0^A+0x34>)
 1000948:	781b      	ldrb	r3, [r3, #0]
 100094a:	2b00      	cmp	r3, #0
 100094c:	d101      	bne.n	1000952 <IB_Load+0x2e>
 100094e:	2385      	movs	r3, #133	; 0x85
 1000950:	e02e      	b.n	10009b0 <L0^A+0x30>
 1000952:	4b19      	ldr	r3, [pc, #100]	; (10009b8 <L0^A+0x38>)
 1000954:	681b      	ldr	r3, [r3, #0]
 1000956:	613b      	str	r3, [r7, #16]
 1000958:	4b17      	ldr	r3, [pc, #92]	; (10009b8 <L0^A+0x38>)
 100095a:	681b      	ldr	r3, [r3, #0]
 100095c:	f503 5380 	add.w	r3, r3, #4096	; 0x1000
 1000960:	60fb      	str	r3, [r7, #12]
 1000962:	e01c      	b.n	100099e <L0^A+0x1e>
 1000964:	68f9      	ldr	r1, [r7, #12]
 1000966:	6938      	ldr	r0, [r7, #16]
 1000968:	f7ff fe2a 	bl	10005c0 <IB_SearchNextValidBlock>
 100096c:	6138      	str	r0, [r7, #16]
 100096e:	693b      	ldr	r3, [r7, #16]
 1000970:	60bb      	str	r3, [r7, #8]
 1000972:	693b      	ldr	r3, [r7, #16]
 1000974:	f003 437f 	and.w	r3, r3, #4278190080	; 0xff000000
 1000978:	2b00      	cmp	r3, #0
 100097a:	d115      	bne.n	10009a8 <L0^A+0x28>
 100097c:	693b      	ldr	r3, [r7, #16]
 100097e:	Address 0x0100097e is out of bounds.


01000980 <L0^A>:
 1000980:	3fff      	subs	r7, #255	; 0xff
 1000982:	d013      	beq.n	10009ac <L0^A+0x2c>
 1000984:	68f9      	ldr	r1, [r7, #12]
 1000986:	6938      	ldr	r0, [r7, #16]
 1000988:	f7ff feab 	bl	10006e2 <IB_LoadData>
 100098c:	4603      	mov	r3, r0
 100098e:	75fb      	strb	r3, [r7, #23]
 1000990:	68bb      	ldr	r3, [r7, #8]
 1000992:	789b      	ldrb	r3, [r3, #2]
 1000994:	461a      	mov	r2, r3
 1000996:	693b      	ldr	r3, [r7, #16]
 1000998:	4413      	add	r3, r2
 100099a:	330a      	adds	r3, #10
 100099c:	613b      	str	r3, [r7, #16]
 100099e:	693a      	ldr	r2, [r7, #16]
 10009a0:	68fb      	ldr	r3, [r7, #12]
 10009a2:	429a      	cmp	r2, r3
 10009a4:	d3de      	bcc.n	1000964 <IB_Load+0x40>
 10009a6:	e002      	b.n	10009ae <L0^A+0x2e>
 10009a8:	bf00      	nop
 10009aa:	e000      	b.n	10009ae <L0^A+0x2e>
 10009ac:	bf00      	nop
 10009ae:	7dfb      	ldrb	r3, [r7, #23]
 10009b0:	f01e bbd6 	b.w	101f160 <__pa_fn_0_31_11_0>
 10009b4:	2000b4e4 	.word	0x2000b4e4
 10009b8:	2000b4e0 	.word	0x2000b4e0

010009bc <InformationBlockLoad>:
 10009bc:	b580      	push	{r7, lr}
 10009be:	b082      	sub	sp, #8
 10009c0:	af00      	add	r7, sp, #0
 10009c2:	2000      	movs	r0, #0
 10009c4:	f7ff ffae 	bl	1000924 <IB_Load>
 10009c8:	4603      	mov	r3, r0
 10009ca:	71fb      	strb	r3, [r7, #7]
 10009cc:	4b06      	ldr	r3, [pc, #24]	; (10009e8 <InformationBlockLoad+0x2c>)
 10009ce:	781b      	ldrb	r3, [r3, #0]
 10009d0:	2b00      	cmp	r3, #0
 10009d2:	d004      	beq.n	10009de <InformationBlockLoad+0x22>
 10009d4:	2001      	movs	r0, #1
 10009d6:	f7ff ffa5 	bl	1000924 <IB_Load>
 10009da:	4603      	mov	r3, r0
 10009dc:	71fb      	strb	r3, [r7, #7]
 10009de:	79fb      	ldrb	r3, [r7, #7]
 10009e0:	4618      	mov	r0, r3
 10009e2:	3708      	adds	r7, #8
 10009e4:	46bd      	mov	sp, r7
 10009e6:	bd80      	pop	{r7, pc}
 10009e8:	2000b4e4 	.word	0x2000b4e4

Disassembly of section .text.__ieee754_pow%86:

010009f0 <__ieee754_pow>:
 10009f0:	e92d 4ff0 	stmdb	sp!, {r4, r5, r6, r7, r8, r9, sl, fp, lr}

010009f4 <.LCFI0>:
 10009f4:	b091      	sub	sp, #68	; 0x44

010009f6 <.LCFI1>:
 10009f6:	ed8d 1b00 	vstr	d1, [sp]

010009fa <.LBB2>:
 10009fa:	e89d 0204 	ldmia.w	sp, {r2, r9}

010009fe <.LBE2>:
 10009fe:	ec57 6b10 	vmov	r6, r7, d0
 1000a02:	f029 4800 	bic.w	r8, r9, #2147483648	; 0x80000000
 1000a06:	ea58 0302 	orrs.w	r3, r8, r2

01000a0a <.LBB3>:
 1000a0a:	ee10 aa10 	vmov	sl, s0
 1000a0e:	463d      	mov	r5, r7

01000a10 <.LBE3>:
 1000a10:	f000 847f 	beq.w	1001312 <.LVL248+0x2e>
 1000a14:	4b78      	ldr	r3, [pc, #480]	; (1000bf8 <.LVL41+0x54>)
 1000a16:	f027 4400 	bic.w	r4, r7, #2147483648	; 0x80000000
 1000a1a:	429c      	cmp	r4, r3
 1000a1c:	dc09      	bgt.n	1000a32 <L0^A+0x16>
 1000a1e:	d103      	bne.n	1000a28 <L0^A+0xc>
 1000a20:	b93e      	cbnz	r6, 1000a32 <L0^A+0x16>
 1000a22:	45a0      	cmp	r8, r4
 1000a24:	dc0d      	bgt.n	1000a42 <L0^A+0x26>
 1000a26:	e001      	b.n	1000a2c <L0^A+0x10>
 1000a28:	4598      	cmp	r8, r3
 1000a2a:	dc02      	bgt.n	1000a32 <L0^A+0x16>
 1000a2c:	4598      	cmp	r8, r3
 1000a2e:	d10e      	bne.n	1000a4e <.LCFI4>
 1000a30:	b16a      	cbz	r2, 1000a4e <.LCFI4>
 1000a32:	f104 4440 	add.w	r4, r4, #3221225472	; 0xc0000000
 1000a36:	f504 1480 	add.w	r4, r4, #1048576	; 0x100000
 1000a3a:	ea54 030a 	orrs.w	r3, r4, sl
 1000a3e:	f000 8468 	beq.w	1001312 <.LVL248+0x2e>
 1000a42:	486e      	ldr	r0, [pc, #440]	; (1000bfc <.LVL41+0x58>)
 1000a44:	b011      	add	sp, #68	; 0x44

01000a46 <.LCFI2>:
 1000a46:	e8bd 4ff0 	ldmia.w	sp!, {r4, r5, r6, r7, r8, r9, sl, fp, lr}

01000a4a <.LCFI3>:
 1000a4a:	f01d be8d 	b.w	101e768 <nan>

01000a4e <.LCFI4>:
 1000a4e:	2d00      	cmp	r5, #0
 1000a50:	da53      	bge.n	1000afa <.LVL21+0x6>
 1000a52:	4b6b      	ldr	r3, [pc, #428]	; (1000c00 <.LVL41+0x5c>)
 1000a54:	4598      	cmp	r8, r3
 1000a56:	dc4d      	bgt.n	1000af4 <.LVL21>
 1000a58:	f1a3 7354 	sub.w	r3, r3, #55574528	; 0x3500000
 1000a5c:	4598      	cmp	r8, r3
 1000a5e:	dd4c      	ble.n	1000afa <.LVL21+0x6>
 1000a60:	ea4f 5328 	mov.w	r3, r8, asr #20
 1000a64:	f2a3 33ff 	subw	r3, r3, #1023	; 0x3ff

01000a68 <.LVL6>:
 1000a68:	2b14      	cmp	r3, #20
 1000a6a:	dd26      	ble.n	1000aba <.LCFI6>
 1000a6c:	f1c3 0334 	rsb	r3, r3, #52	; 0x34

01000a70 <.LVL7>:
 1000a70:	fa22 f103 	lsr.w	r1, r2, r3

01000a74 <.LVL8>:
 1000a74:	fa01 f303 	lsl.w	r3, r1, r3
 1000a78:	429a      	cmp	r2, r3
 1000a7a:	d13e      	bne.n	1000afa <.LVL21+0x6>
 1000a7c:	f001 0101 	and.w	r1, r1, #1

01000a80 <.LVL9>:
 1000a80:	f1c1 0b02 	rsb	fp, r1, #2

01000a84 <.LVL10>:
 1000a84:	2a00      	cmp	r2, #0
 1000a86:	d15b      	bne.n	1000b40 <.LVL30>
 1000a88:	4b5b      	ldr	r3, [pc, #364]	; (1000bf8 <.LVL41+0x54>)
 1000a8a:	4598      	cmp	r8, r3
 1000a8c:	d124      	bne.n	1000ad8 <.LVL17>
 1000a8e:	f104 4340 	add.w	r3, r4, #3221225472	; 0xc0000000
 1000a92:	f503 1380 	add.w	r3, r3, #1048576	; 0x100000
 1000a96:	ea53 030a 	orrs.w	r3, r3, sl
 1000a9a:	f000 843a 	beq.w	1001312 <.LVL248+0x2e>
 1000a9e:	4b59      	ldr	r3, [pc, #356]	; (1000c04 <.LVL41+0x60>)
 1000aa0:	429c      	cmp	r4, r3
 1000aa2:	dd2d      	ble.n	1000b00 <.LVL22>
 1000aa4:	f1b9 0f00 	cmp.w	r9, #0
 1000aa8:	f280 8437 	bge.w	100131a <.LVL248+0x36>

01000aac <.LVL11>:
 1000aac:	2000      	movs	r0, #0
 1000aae:	2100      	movs	r1, #0

01000ab0 <.LVL12>:
 1000ab0:	ec41 0b10 	vmov	d0, r0, r1
 1000ab4:	b011      	add	sp, #68	; 0x44

01000ab6 <.LCFI5>:
 1000ab6:	e8bd 8ff0 	ldmia.w	sp!, {r4, r5, r6, r7, r8, r9, sl, fp, pc}

01000aba <.LCFI6>:
 1000aba:	2a00      	cmp	r2, #0
 1000abc:	d13e      	bne.n	1000b3c <.LCFI9>
 1000abe:	f1c3 0314 	rsb	r3, r3, #20

01000ac2 <.LVL14>:
 1000ac2:	fa48 f103 	asr.w	r1, r8, r3

01000ac6 <.LVL15>:
 1000ac6:	fa01 f303 	lsl.w	r3, r1, r3
 1000aca:	4598      	cmp	r8, r3
 1000acc:	f040 842d 	bne.w	100132a <.LVL254+0x6>
 1000ad0:	f001 0101 	and.w	r1, r1, #1

01000ad4 <.LVL16>:
 1000ad4:	f1c1 0b02 	rsb	fp, r1, #2

01000ad8 <.LVL17>:
 1000ad8:	4b4b      	ldr	r3, [pc, #300]	; (1000c08 <.LVL41+0x64>)
 1000ada:	4598      	cmp	r8, r3
 1000adc:	d118      	bne.n	1000b10 <.LVL22+0x10>
 1000ade:	f1b9 0f00 	cmp.w	r9, #0
 1000ae2:	f280 841e 	bge.w	1001322 <.LVL248+0x3e>
 1000ae6:	4948      	ldr	r1, [pc, #288]	; (1000c08 <.LVL41+0x64>)
 1000ae8:	4632      	mov	r2, r6

01000aea <.LVL18>:
 1000aea:	463b      	mov	r3, r7
 1000aec:	2000      	movs	r0, #0

01000aee <.LVL19>:
 1000aee:	f003 fb37 	bl	1004160 <__aeabi_ddiv>

01000af2 <.LVL20>:
 1000af2:	e7dd      	b.n	1000ab0 <.LVL12>

01000af4 <.LVL21>:
 1000af4:	f04f 0b02 	mov.w	fp, #2
 1000af8:	e7c4      	b.n	1000a84 <.LVL10>
 1000afa:	f04f 0b00 	mov.w	fp, #0
 1000afe:	e7c1      	b.n	1000a84 <.LVL10>

01000b00 <.LVL22>:
 1000b00:	f1b9 0f00 	cmp.w	r9, #0
 1000b04:	dad2      	bge.n	1000aac <.LVL11>
 1000b06:	e89d 0009 	ldmia.w	sp, {r0, r3}
 1000b0a:	f103 4100 	add.w	r1, r3, #2147483648	; 0x80000000
 1000b0e:	e7cf      	b.n	1000ab0 <.LVL12>
 1000b10:	f1b9 4f80 	cmp.w	r9, #1073741824	; 0x40000000
 1000b14:	d106      	bne.n	1000b24 <.LVL27>
 1000b16:	4632      	mov	r2, r6

01000b18 <.LVL23>:
 1000b18:	463b      	mov	r3, r7

01000b1a <.LVL24>:
 1000b1a:	4610      	mov	r0, r2
 1000b1c:	4619      	mov	r1, r3

01000b1e <.LVL25>:
 1000b1e:	f003 f9f5 	bl	1003f0c <__aeabi_dmul>

01000b22 <.LVL26>:
 1000b22:	e7c5      	b.n	1000ab0 <.LVL12>

01000b24 <.LVL27>:
 1000b24:	4b39      	ldr	r3, [pc, #228]	; (1000c0c <.LVL41+0x68>)
 1000b26:	4599      	cmp	r9, r3
 1000b28:	d10a      	bne.n	1000b40 <.LVL30>
 1000b2a:	2d00      	cmp	r5, #0
 1000b2c:	db08      	blt.n	1000b40 <.LVL30>
 1000b2e:	ec47 6b10 	vmov	d0, r6, r7
 1000b32:	b011      	add	sp, #68	; 0x44

01000b34 <.LCFI7>:
 1000b34:	e8bd 4ff0 	ldmia.w	sp!, {r4, r5, r6, r7, r8, r9, sl, fp, lr}

01000b38 <.LCFI8>:
 1000b38:	f008 bb12 	b.w	1009160 <__ieee754_sqrt>

01000b3c <.LCFI9>:
 1000b3c:	f04f 0b00 	mov.w	fp, #0

01000b40 <.LVL30>:
 1000b40:	ec47 6b10 	vmov	d0, r6, r7
 1000b44:	f01d ffb8 	bl	101eab8 <fabs>

01000b48 <.LVL31>:
 1000b48:	ec51 0b10 	vmov	r0, r1, d0

01000b4c <.LVL32>:
 1000b4c:	f1ba 0f00 	cmp.w	sl, #0
 1000b50:	d127      	bne.n	1000ba2 <.LVL40>
 1000b52:	b124      	cbz	r4, 1000b5e <.LVL33>
 1000b54:	4b2c      	ldr	r3, [pc, #176]	; (1000c08 <.LVL41+0x64>)
 1000b56:	f025 4240 	bic.w	r2, r5, #3221225472	; 0xc0000000
 1000b5a:	429a      	cmp	r2, r3
 1000b5c:	d121      	bne.n	1000ba2 <.LVL40>

01000b5e <.LVL33>:
 1000b5e:	f1b9 0f00 	cmp.w	r9, #0
 1000b62:	da05      	bge.n	1000b70 <.LVL35>
 1000b64:	4602      	mov	r2, r0
 1000b66:	460b      	mov	r3, r1
 1000b68:	2000      	movs	r0, #0

01000b6a <.LVL34>:
 1000b6a:	4927      	ldr	r1, [pc, #156]	; (1000c08 <.LVL41+0x64>)
 1000b6c:	f003 faf8 	bl	1004160 <__aeabi_ddiv>

01000b70 <.LVL35>:
 1000b70:	2d00      	cmp	r5, #0
 1000b72:	da9d      	bge.n	1000ab0 <.LVL12>
 1000b74:	f104 4440 	add.w	r4, r4, #3221225472	; 0xc0000000
 1000b78:	f504 1480 	add.w	r4, r4, #1048576	; 0x100000
 1000b7c:	ea54 030b 	orrs.w	r3, r4, fp
 1000b80:	d108      	bne.n	1000b94 <.LVL38>
 1000b82:	4602      	mov	r2, r0
 1000b84:	460b      	mov	r3, r1

01000b86 <.LVL36>:
 1000b86:	4610      	mov	r0, r2
 1000b88:	4619      	mov	r1, r3
 1000b8a:	f003 fdcf 	bl	100472c <__aeabi_dsub>
 1000b8e:	4602      	mov	r2, r0
 1000b90:	460b      	mov	r3, r1
 1000b92:	e7ac      	b.n	1000aee <.LVL19>

01000b94 <.LVL38>:
 1000b94:	f1bb 0f01 	cmp.w	fp, #1
 1000b98:	d18a      	bne.n	1000ab0 <.LVL12>
 1000b9a:	f101 4300 	add.w	r3, r1, #2147483648	; 0x80000000
 1000b9e:	4619      	mov	r1, r3

01000ba0 <.LVL39>:
 1000ba0:	e786      	b.n	1000ab0 <.LVL12>

01000ba2 <.LVL40>:
 1000ba2:	0fed      	lsrs	r5, r5, #31

01000ba4 <.LVL41>:
 1000ba4:	1e6b      	subs	r3, r5, #1
 1000ba6:	930d      	str	r3, [sp, #52]	; 0x34
 1000ba8:	ea5b 0303 	orrs.w	r3, fp, r3
 1000bac:	d102      	bne.n	1000bb4 <.LVL41+0x10>
 1000bae:	4632      	mov	r2, r6
 1000bb0:	463b      	mov	r3, r7
 1000bb2:	e7e8      	b.n	1000b86 <.LVL36>
 1000bb4:	4b16      	ldr	r3, [pc, #88]	; (1000c10 <.LVL41+0x6c>)
 1000bb6:	4598      	cmp	r8, r3
 1000bb8:	f340 80f6 	ble.w	1000da8 <.LVL83+0x42>
 1000bbc:	f103 7304 	add.w	r3, r3, #34603008	; 0x2100000
 1000bc0:	4598      	cmp	r8, r3
 1000bc2:	dd0a      	ble.n	1000bda <.LVL41+0x36>
 1000bc4:	4b0f      	ldr	r3, [pc, #60]	; (1000c04 <.LVL41+0x60>)
 1000bc6:	429c      	cmp	r4, r3
 1000bc8:	dc0d      	bgt.n	1000be6 <.LVL41+0x42>
 1000bca:	f1b9 0f00 	cmp.w	r9, #0
 1000bce:	f6bf af6d 	bge.w	1000aac <.LVL11>
 1000bd2:	a307      	add	r3, pc, #28	; (adr r3, 1000bf0 <.LVL41+0x4c>)
 1000bd4:	e9d3 2300 	ldrd	r2, r3, [r3]
 1000bd8:	e79f      	b.n	1000b1a <.LVL24>
 1000bda:	4b0e      	ldr	r3, [pc, #56]	; (1000c14 <.LVL41+0x70>)
 1000bdc:	429c      	cmp	r4, r3
 1000bde:	ddf4      	ble.n	1000bca <.LVL41+0x26>
 1000be0:	4b09      	ldr	r3, [pc, #36]	; (1000c08 <.LVL41+0x64>)
 1000be2:	429c      	cmp	r4, r3
 1000be4:	dd18      	ble.n	1000c18 <.LVL41+0x74>
 1000be6:	f1b9 0f00 	cmp.w	r9, #0
 1000bea:	dcf2      	bgt.n	1000bd2 <.LVL41+0x2e>
 1000bec:	e75e      	b.n	1000aac <.LVL11>
 1000bee:	bf00      	nop
 1000bf0:	8800759c 	.word	0x8800759c
 1000bf4:	7e37e43c 	.word	0x7e37e43c
 1000bf8:	7ff00000 	.word	0x7ff00000
 1000bfc:	0101d0b7 	.word	0x0101d0b7
 1000c00:	433fffff 	.word	0x433fffff
 1000c04:	3fefffff 	.word	0x3fefffff
 1000c08:	3ff00000 	.word	0x3ff00000
 1000c0c:	3fe00000 	.word	0x3fe00000
 1000c10:	41e00000 	.word	0x41e00000
 1000c14:	3feffffe 	.word	0x3feffffe
 1000c18:	2200      	movs	r2, #0
 1000c1a:	4b5f      	ldr	r3, [pc, #380]	; (1000d98 <.LVL83+0x32>)
 1000c1c:	f003 fd86 	bl	100472c <__aeabi_dsub>

01000c20 <.LVL42>:
 1000c20:	a351      	add	r3, pc, #324	; (adr r3, 1000d68 <.LVL83+0x2>)
 1000c22:	f01e fa66 	bl	101f0f2 <__pa_fn_0_ac_01_0>
 1000c26:	f003 f971 	bl	1003f0c <__aeabi_dmul>

01000c2a <.LVL43>:
 1000c2a:	a351      	add	r3, pc, #324	; (adr r3, 1000d70 <.LVL83+0xa>)
 1000c2c:	e9d3 2300 	ldrd	r2, r3, [r3]
 1000c30:	f01e f9f1 	bl	101f016 <__pa_fn_0_1d_01_0>
 1000c34:	Address 0x01000c34 is out of bounds.


01000c36 <.LVL45>:
 1000c36:	Address 0x01000c36 is out of bounds.


01000c38 <.LVL46>:
 1000c38:	2200      	movs	r2, #0
 1000c3a:	e9cd 0102 	strd	r0, r1, [sp, #8]
 1000c3e:	4b57      	ldr	r3, [pc, #348]	; (1000d9c <.LVL83+0x36>)
 1000c40:	4620      	mov	r0, r4
 1000c42:	4629      	mov	r1, r5
 1000c44:	f003 f962 	bl	1003f0c <__aeabi_dmul>
 1000c48:	4602      	mov	r2, r0
 1000c4a:	460b      	mov	r3, r1
 1000c4c:	a14a      	add	r1, pc, #296	; (adr r1, 1000d78 <.LVL83+0x12>)
 1000c4e:	e9d1 0100 	ldrd	r0, r1, [r1]
 1000c52:	f003 fd6b 	bl	100472c <__aeabi_dsub>
 1000c56:	4622      	mov	r2, r4
 1000c58:	462b      	mov	r3, r5
 1000c5a:	f003 f957 	bl	1003f0c <__aeabi_dmul>
 1000c5e:	4602      	mov	r2, r0
 1000c60:	460b      	mov	r3, r1
 1000c62:	2000      	movs	r0, #0
 1000c64:	494e      	ldr	r1, [pc, #312]	; (1000da0 <.LVL83+0x3a>)
 1000c66:	f003 fd61 	bl	100472c <__aeabi_dsub>
 1000c6a:	4622      	mov	r2, r4
 1000c6c:	462b      	mov	r3, r5
 1000c6e:	4680      	mov	r8, r0
 1000c70:	4689      	mov	r9, r1
 1000c72:	4620      	mov	r0, r4
 1000c74:	4629      	mov	r1, r5
 1000c76:	Address 0x01000c76 is out of bounds.


01000c78 <.LVL52>:
 1000c78:	Address 0x01000c78 is out of bounds.


01000c7a <.LVL53>:
 1000c7a:	f01e f9e0 	bl	101f03e <__pa_fn_0_2d_01_0>
 1000c7e:	f003 f945 	bl	1003f0c <__aeabi_dmul>
 1000c82:	a33f      	add	r3, pc, #252	; (adr r3, 1000d80 <.LVL83+0x1a>)
 1000c84:	e9d3 2300 	ldrd	r2, r3, [r3]
 1000c88:	f003 f940 	bl	1003f0c <__aeabi_dmul>
 1000c8c:	4602      	mov	r2, r0
 1000c8e:	460b      	mov	r3, r1
 1000c90:	e9dd 0102 	ldrd	r0, r1, [sp, #8]
 1000c94:	f003 fd4a 	bl	100472c <__aeabi_dsub>
 1000c98:	4602      	mov	r2, r0
 1000c9a:	460b      	mov	r3, r1
 1000c9c:	4604      	mov	r4, r0
 1000c9e:	460d      	mov	r5, r1
 1000ca0:	4630      	mov	r0, r6
 1000ca2:	4639      	mov	r1, r7
 1000ca4:	f003 fd44 	bl	1004730 <__adddf3>
 1000ca8:	2000      	movs	r0, #0

01000caa <.LVL58>:
 1000caa:	Address 0x01000caa is out of bounds.


01000cac <.LVL59>:
 1000cac:	0104      	lsls	r4, r0, #4
 1000cae:	4632      	mov	r2, r6
 1000cb0:	463b      	mov	r3, r7
 1000cb2:	Address 0x01000cb2 is out of bounds.


01000cb4 <.LBB4>:
 1000cb4:	Address 0x01000cb4 is out of bounds.


01000cb6 <.LVL61>:
 1000cb6:	4602      	mov	r2, r0
 1000cb8:	460b      	mov	r3, r1

01000cba <.LBE4>:
 1000cba:	4620      	mov	r0, r4
 1000cbc:	4629      	mov	r1, r5

01000cbe <.LBB5>:
 1000cbe:	f003 fd35 	bl	100472c <__aeabi_dsub>

01000cc2 <.LVL64>:
 1000cc2:	9a0d      	ldr	r2, [sp, #52]	; 0x34
 1000cc4:	f10b 33ff 	add.w	r3, fp, #4294967295
 1000cc8:	4313      	orrs	r3, r2
 1000cca:	4606      	mov	r6, r0
 1000ccc:	460f      	mov	r7, r1

01000cce <.LBE5>:
 1000cce:	f040 81c9 	bne.w	1001064 <.LVL175>
 1000cd2:	ed9f 7b2d 	vldr	d7, [pc, #180]	; 1000d88 <.LVL83+0x22>

01000cd6 <.LBB17>:
 1000cd6:	e9dd 4500 	ldrd	r4, r5, [sp]

01000cda <.LBE17>:
 1000cda:	2400      	movs	r4, #0
 1000cdc:	4622      	mov	r2, r4
 1000cde:	462b      	mov	r3, r5
 1000ce0:	Address 0x01000ce0 is out of bounds.


01000ce2 <.LBB18>:
 1000ce2:	0100      	lsls	r0, r0, #4
 1000ce4:	ed8d 7b02 	vstr	d7, [sp, #8]

01000ce8 <.LBE18>:
 1000ce8:	f003 fd20 	bl	100472c <__aeabi_dsub>
 1000cec:	e9dd 2304 	ldrd	r2, r3, [sp, #16]
 1000cf0:	f003 f90c 	bl	1003f0c <__aeabi_dmul>

01000cf4 <.LVL68>:
 1000cf4:	e9dd 2300 	ldrd	r2, r3, [sp]

01000cf8 <.LVL69>:
 1000cf8:	4680      	mov	r8, r0
 1000cfa:	4689      	mov	r9, r1
 1000cfc:	4630      	mov	r0, r6
 1000cfe:	4639      	mov	r1, r7
 1000d00:	f003 f904 	bl	1003f0c <__aeabi_dmul>
 1000d04:	f01e f99b 	bl	101f03e <__pa_fn_0_2d_01_0>
 1000d08:	f003 fd12 	bl	1004730 <__adddf3>
 1000d0c:	4622      	mov	r2, r4
 1000d0e:	462b      	mov	r3, r5
 1000d10:	4680      	mov	r8, r0
 1000d12:	4689      	mov	r9, r1
 1000d14:	e9dd 0104 	ldrd	r0, r1, [sp, #16]
 1000d18:	f003 f8f8 	bl	1003f0c <__aeabi_dmul>
 1000d1c:	460b      	mov	r3, r1
 1000d1e:	4604      	mov	r4, r0
 1000d20:	460d      	mov	r5, r1
 1000d22:	4602      	mov	r2, r0

01000d24 <.LVL73>:
 1000d24:	4649      	mov	r1, r9
 1000d26:	4640      	mov	r0, r8
 1000d28:	e9cd 4500 	strd	r4, r5, [sp]
 1000d2c:	f003 fd00 	bl	1004730 <__adddf3>

01000d30 <.LVL75>:
 1000d30:	4b1c      	ldr	r3, [pc, #112]	; (1000da4 <.LVL83+0x3e>)
 1000d32:	4299      	cmp	r1, r3
 1000d34:	4606      	mov	r6, r0
 1000d36:	460f      	mov	r7, r1
 1000d38:	468b      	mov	fp, r1
 1000d3a:	Address 0x01000d3a is out of bounds.


01000d3c <.LVL76>:
 1000d3c:	82c3      	strh	r3, [r0, #22]
 1000d3e:	f101 433f 	add.w	r3, r1, #3204448256	; 0xbf000000
 1000d42:	f503 03e0 	add.w	r3, r3, #7340032	; 0x700000

01000d46 <.LVL78>:
 1000d46:	4303      	orrs	r3, r0

01000d48 <.LBB19>:
 1000d48:	Address 0x01000d48 is out of bounds.


01000d4a <.LBE19>:
 1000d4a:	81ca      	strh	r2, [r1, #14]
 1000d4c:	a310      	add	r3, pc, #64	; (adr r3, 1000d90 <.LVL83+0x2a>)
 1000d4e:	e9d3 2300 	ldrd	r2, r3, [r3]
 1000d52:	e9dd 0102 	ldrd	r0, r1, [sp, #8]

01000d56 <.LVL81>:
 1000d56:	f003 f8d9 	bl	1003f0c <__aeabi_dmul>
 1000d5a:	a30d      	add	r3, pc, #52	; (adr r3, 1000d90 <.LVL83+0x2a>)

01000d5c <.LVL82>:
 1000d5c:	e9d3 2300 	ldrd	r2, r3, [r3]
 1000d60:	e6dd      	b.n	1000b1e <.LVL25>
 1000d62:	bf00      	nop
 1000d64:	Address 0x01000d64 is out of bounds.


01000d66 <.LVL83>:
 1000d66:	8000      	strh	r0, [r0, #0]
 1000d68:	60000000 	.word	0x60000000
 1000d6c:	3ff71547 	.word	0x3ff71547
 1000d70:	f85ddf44 	.word	0xf85ddf44
 1000d74:	3e54ae0b 	.word	0x3e54ae0b
 1000d78:	55555555 	.word	0x55555555
 1000d7c:	3fd55555 	.word	0x3fd55555
 1000d80:	652b82fe 	.word	0x652b82fe
 1000d84:	3ff71547 	.word	0x3ff71547
 1000d88:	00000000 	.word	0x00000000
 1000d8c:	bff00000 	.word	0xbff00000
 1000d90:	8800759c 	.word	0x8800759c
 1000d94:	7e37e43c 	.word	0x7e37e43c
 1000d98:	3ff00000 	.word	0x3ff00000
 1000d9c:	3fd00000 	.word	0x3fd00000
 1000da0:	3fe00000 	.word	0x3fe00000
 1000da4:	408fffff 	.word	0x408fffff
 1000da8:	f5b4 1f80 	cmp.w	r4, #1048576	; 0x100000
 1000dac:	f04f 0200 	mov.w	r2, #0
 1000db0:	da05      	bge.n	1000dbe <.LBB20+0x6>
 1000db2:	4bc3      	ldr	r3, [pc, #780]	; (10010c0 <.LBE20+0xc>)
 1000db4:	f003 f8aa 	bl	1003f0c <__aeabi_dmul>

01000db8 <.LBB20>:
 1000db8:	f06f 0234 	mvn.w	r2, #52	; 0x34
 1000dbc:	460c      	mov	r4, r1
 1000dbe:	1523      	asrs	r3, r4, #20
 1000dc0:	f2a3 33ff 	subw	r3, r3, #1023	; 0x3ff
 1000dc4:	4413      	add	r3, r2
 1000dc6:	9307      	str	r3, [sp, #28]

01000dc8 <.LVL86>:
 1000dc8:	4bbe      	ldr	r3, [pc, #760]	; (10010c4 <.LBE20+0x10>)
 1000dca:	Address 0x01000dca is out of bounds.


01000dcc <.LBB6>:
 1000dcc:	0413      	lsls	r3, r2, #16

01000dce <.LBE6>:
 1000dce:	f044 557f 	orr.w	r5, r4, #1069547520	; 0x3fc00000
 1000dd2:	429c      	cmp	r4, r3
 1000dd4:	f445 1540 	orr.w	r5, r5, #3145728	; 0x300000

01000dd8 <.LVL88>:
 1000dd8:	dd08      	ble.n	1000dec <.LVL91+0x4>

01000dda <.LVL89>:
 1000dda:	4bbb      	ldr	r3, [pc, #748]	; (10010c8 <.LBE20+0x14>)
 1000ddc:	429c      	cmp	r4, r3

01000dde <.LVL90>:
 1000dde:	f340 813e 	ble.w	100105e <.LVL171+0x24>
 1000de2:	9b07      	ldr	r3, [sp, #28]
 1000de4:	3301      	adds	r3, #1
 1000de6:	9307      	str	r3, [sp, #28]

01000de8 <.LVL91>:
 1000de8:	f5a5 1580 	sub.w	r5, r5, #1048576	; 0x100000
 1000dec:	f04f 0a00 	mov.w	sl, #0
 1000df0:	Address 0x01000df0 is out of bounds.


01000df2 <.LVL92>:
 1000df2:	03ca      	lsls	r2, r1, #15
 1000df4:	930c      	str	r3, [sp, #48]	; 0x30
 1000df6:	9a0c      	ldr	r2, [sp, #48]	; 0x30

01000df8 <.LVL93>:
 1000df8:	4bb4      	ldr	r3, [pc, #720]	; (10010cc <.LBE20+0x18>)
 1000dfa:	4413      	add	r3, r2

01000dfc <.LVL94>:
 1000dfc:	ed93 7b00 	vldr	d7, [r3]

01000e00 <.LVL95>:
 1000e00:	4629      	mov	r1, r5
 1000e02:	ec53 2b17 	vmov	r2, r3, d7
 1000e06:	ed8d 7b0a 	vstr	d7, [sp, #40]	; 0x28
 1000e0a:	e9cd 0108 	strd	r0, r1, [sp, #32]
 1000e0e:	Address 0x01000e0e is out of bounds.


01000e10 <.LBB7>:
 1000e10:	Address 0x01000e10 is out of bounds.


01000e12 <.LBE7>:
 1000e12:	e9dd 230a 	ldrd	r2, r3, [sp, #40]	; 0x28
 1000e16:	4606      	mov	r6, r0
 1000e18:	460f      	mov	r7, r1

01000e1a <.LBB8>:
 1000e1a:	e9dd 0108 	ldrd	r0, r1, [sp, #32]

01000e1e <.LBE8>:
 1000e1e:	f003 fc87 	bl	1004730 <__adddf3>

01000e22 <.LVL98>:
 1000e22:	4602      	mov	r2, r0
 1000e24:	460b      	mov	r3, r1
 1000e26:	2000      	movs	r0, #0

01000e28 <.LVL99>:
 1000e28:	49a9      	ldr	r1, [pc, #676]	; (10010d0 <.LBE20+0x1c>)

01000e2a <.LVL100>:
 1000e2a:	f003 f999 	bl	1004160 <__aeabi_ddiv>
 1000e2e:	e9cd 010e 	strd	r0, r1, [sp, #56]	; 0x38
 1000e32:	f01e f909 	bl	101f048 <__pa_fn_0_2e_01_0>
 1000e36:	f003 f869 	bl	1003f0c <__aeabi_dmul>
 1000e3a:	e9cd 0104 	strd	r0, r1, [sp, #16]
 1000e3e:	e9dd 3404 	ldrd	r3, r4, [sp, #16]

01000e42 <.LVL103>:
 1000e42:	e9cd 3402 	strd	r3, r4, [sp, #8]
 1000e46:	2300      	movs	r3, #0

01000e48 <.LVL104>:
 1000e48:	9302      	str	r3, [sp, #8]
 1000e4a:	e9dd 8902 	ldrd	r8, r9, [sp, #8]
 1000e4e:	106d      	asrs	r5, r5, #1
 1000e50:	Address 0x01000e50 is out of bounds.


01000e52 <.LBB9>:
 1000e52:	5500      	strb	r0, [r0, r4]
 1000e54:	f505 2500 	add.w	r5, r5, #524288	; 0x80000
 1000e58:	2200      	movs	r2, #0
 1000e5a:	eb05 438a 	add.w	r3, r5, sl, lsl #18
 1000e5e:	4640      	mov	r0, r8
 1000e60:	4649      	mov	r1, r9

01000e62 <.LBB10>:
 1000e62:	4614      	mov	r4, r2

01000e64 <.LVL108>:
 1000e64:	461d      	mov	r5, r3
 1000e66:	f003 f851 	bl	1003f0c <__aeabi_dmul>
 1000e6a:	f01e f8ed 	bl	101f048 <__pa_fn_0_2e_01_0>
 1000e6e:	f003 fc5d 	bl	100472c <__aeabi_dsub>

01000e72 <.LBE10>:
 1000e72:	Address 0x01000e72 is out of bounds.


01000e74 <.LVL111>:
 1000e74:	230a      	movs	r3, #10

01000e76 <.LBB11>:
 1000e76:	Address 0x01000e76 is out of bounds.


01000e78 <.LVL112>:
 1000e78:	Address 0x01000e78 is out of bounds.


01000e7a <.LBE11>:
 1000e7a:	f003 fc57 	bl	100472c <__aeabi_dsub>

01000e7e <.LVL114>:
 1000e7e:	4602      	mov	r2, r0
 1000e80:	460b      	mov	r3, r1
 1000e82:	e9dd 0108 	ldrd	r0, r1, [sp, #32]
 1000e86:	f003 fc51 	bl	100472c <__aeabi_dsub>
 1000e8a:	4642      	mov	r2, r8
 1000e8c:	464b      	mov	r3, r9
 1000e8e:	Address 0x01000e8e is out of bounds.


01000e90 <.LVL116>:
 1000e90:	f83d f01e 	pldw	[sp, lr, lsl #1]
 1000e94:	f8d9 f003 	ldr.w	pc, [r9, #3]
 1000e98:	fc49 e9dd 	mcrr2	9, 13, lr, r9, cr13
 1000e9c:	230e      	movs	r3, #14
 1000e9e:	f003 f835 	bl	1003f0c <__aeabi_dmul>
 1000ea2:	e9dd 2304 	ldrd	r2, r3, [sp, #16]
 1000ea6:	e9cd 0108 	strd	r0, r1, [sp, #32]
 1000eaa:	4610      	mov	r0, r2
 1000eac:	4619      	mov	r1, r3
 1000eae:	f003 f82d 	bl	1003f0c <__aeabi_dmul>
 1000eb2:	a36f      	add	r3, pc, #444	; (adr r3, 1001070 <.LVL175+0xc>)
 1000eb4:	f01e f91d 	bl	101f0f2 <__pa_fn_0_ac_01_0>
 1000eb8:	f003 f828 	bl	1003f0c <__aeabi_dmul>
 1000ebc:	a36e      	add	r3, pc, #440	; (adr r3, 1001078 <.LVL178+0x2>)
 1000ebe:	e9d3 2300 	ldrd	r2, r3, [r3]
 1000ec2:	f003 fc35 	bl	1004730 <__adddf3>
 1000ec6:	4622      	mov	r2, r4
 1000ec8:	462b      	mov	r3, r5

01000eca <.LVL122>:
 1000eca:	Address 0x01000eca is out of bounds.


01000ecc <.LVL123>:
 1000ecc:	f81f a36c 	ldrb.w	sl, [pc, #-876]	; 1000b64 <.LVL33+0x6>
 1000ed0:	e9d3 2300 	ldrd	r2, r3, [r3]
 1000ed4:	f003 fc2c 	bl	1004730 <__adddf3>
 1000ed8:	4622      	mov	r2, r4
 1000eda:	462b      	mov	r3, r5

01000edc <.LVL125>:
 1000edc:	f003 f816 	bl	1003f0c <__aeabi_dmul>
 1000ee0:	a369      	add	r3, pc, #420	; (adr r3, 1001088 <.LVL178+0x12>)
 1000ee2:	e9d3 2300 	ldrd	r2, r3, [r3]
 1000ee6:	f003 fc23 	bl	1004730 <__adddf3>
 1000eea:	4622      	mov	r2, r4
 1000eec:	462b      	mov	r3, r5
 1000eee:	f003 f80d 	bl	1003f0c <__aeabi_dmul>
 1000ef2:	a367      	add	r3, pc, #412	; (adr r3, 1001090 <.LVL178+0x1a>)
 1000ef4:	e9d3 2300 	ldrd	r2, r3, [r3]
 1000ef8:	f003 fc1a 	bl	1004730 <__adddf3>
 1000efc:	4622      	mov	r2, r4
 1000efe:	462b      	mov	r3, r5
 1000f00:	f003 f804 	bl	1003f0c <__aeabi_dmul>
 1000f04:	a364      	add	r3, pc, #400	; (adr r3, 1001098 <.LBB16>)
 1000f06:	e9d3 2300 	ldrd	r2, r3, [r3]
 1000f0a:	f003 fc11 	bl	1004730 <__adddf3>
 1000f0e:	4622      	mov	r2, r4
 1000f10:	4606      	mov	r6, r0
 1000f12:	460f      	mov	r7, r1
 1000f14:	462b      	mov	r3, r5
 1000f16:	4620      	mov	r0, r4
 1000f18:	4629      	mov	r1, r5
 1000f1a:	f002 fff7 	bl	1003f0c <__aeabi_dmul>
 1000f1e:	f01e f893 	bl	101f048 <__pa_fn_0_2e_01_0>
 1000f22:	f002 fff3 	bl	1003f0c <__aeabi_dmul>
 1000f26:	4642      	mov	r2, r8
 1000f28:	4604      	mov	r4, r0
 1000f2a:	460d      	mov	r5, r1
 1000f2c:	464b      	mov	r3, r9
 1000f2e:	e9dd 0104 	ldrd	r0, r1, [sp, #16]
 1000f32:	f003 fbfd 	bl	1004730 <__adddf3>
 1000f36:	e9dd 2308 	ldrd	r2, r3, [sp, #32]
 1000f3a:	f002 ffe7 	bl	1003f0c <__aeabi_dmul>
 1000f3e:	4622      	mov	r2, r4
 1000f40:	462b      	mov	r3, r5
 1000f42:	f003 fbf5 	bl	1004730 <__adddf3>
 1000f46:	f01d fd01 	bl	101e94c <__pa_fn_0_6c_01_0>
 1000f4a:	f002 ffdf 	bl	1003f0c <__aeabi_dmul>
 1000f4e:	2200      	movs	r2, #0
 1000f50:	4b60      	ldr	r3, [pc, #384]	; (10010d4 <.LBE20+0x20>)

01000f52 <.LVL138>:
 1000f52:	Address 0x01000f52 is out of bounds.


01000f54 <.LVL139>:
 1000f54:	010a      	lsls	r2, r1, #4
 1000f56:	f003 fbeb 	bl	1004730 <__adddf3>
 1000f5a:	4632      	mov	r2, r6
 1000f5c:	463b      	mov	r3, r7
 1000f5e:	f003 fbe7 	bl	1004730 <__adddf3>
 1000f62:	9802      	ldr	r0, [sp, #8]
 1000f64:	460d      	mov	r5, r1
 1000f66:	4604      	mov	r4, r0
 1000f68:	f01e f869 	bl	101f03e <__pa_fn_0_2d_01_0>
 1000f6c:	f002 ffce 	bl	1003f0c <__aeabi_dmul>
 1000f70:	2200      	movs	r2, #0
 1000f72:	4680      	mov	r8, r0

01000f74 <.LVL143>:
 1000f74:	4689      	mov	r9, r1
 1000f76:	4b57      	ldr	r3, [pc, #348]	; (10010d4 <.LBE20+0x20>)
 1000f78:	4620      	mov	r0, r4
 1000f7a:	4629      	mov	r1, r5
 1000f7c:	f003 fbd6 	bl	100472c <__aeabi_dsub>
 1000f80:	e9dd 230a 	ldrd	r2, r3, [sp, #40]	; 0x28
 1000f84:	Address 0x01000f84 is out of bounds.


01000f86 <.LVL145>:
 1000f86:	fbd2 f01e 			; <UNDEFINED> instruction: 0xfbd2f01e

01000f8a <.LVL146>:
 1000f8a:	f85e f003 	ldr.w	pc, [lr, r3]
 1000f8e:	fbce e9dd 	smlaldx	lr, r9, lr, sp

01000f92 <.LBB12>:
 1000f92:	2304      	movs	r3, #4

01000f94 <.LVL148>:
 1000f94:	Address 0x01000f94 is out of bounds.


01000f96 <.LVL149>:
 1000f96:	Address 0x01000f96 is out of bounds.


01000f98 <.LBE12>:
 1000f98:	4622      	mov	r2, r4
 1000f9a:	4606      	mov	r6, r0
 1000f9c:	460f      	mov	r7, r1

01000f9e <.LVL150>:
 1000f9e:	462b      	mov	r3, r5
 1000fa0:	e9dd 0108 	ldrd	r0, r1, [sp, #32]
 1000fa4:	f002 ffb2 	bl	1003f0c <__aeabi_dmul>

01000fa8 <.LVL152>:
 1000fa8:	Address 0x01000fa8 is out of bounds.


01000faa <.LVL153>:
 1000faa:	f84e f003 	str.w	pc, [lr, r3]
 1000fae:	fbc0 4606 	smlal	r4, r6, r0, r6
 1000fb2:	460f      	mov	r7, r1
 1000fb4:	f01e f843 	bl	101f03e <__pa_fn_0_2d_01_0>
 1000fb8:	f003 fbba 	bl	1004730 <__adddf3>
 1000fbc:	9802      	ldr	r0, [sp, #8]
 1000fbe:	a338      	add	r3, pc, #224	; (adr r3, 10010a0 <.LVL184>)
 1000fc0:	f01e f897 	bl	101f0f2 <__pa_fn_0_ac_01_0>
 1000fc4:	f002 ffa2 	bl	1003f0c <__aeabi_dmul>
 1000fc8:	4642      	mov	r2, r8
 1000fca:	e9cd 0108 	strd	r0, r1, [sp, #32]
 1000fce:	464b      	mov	r3, r9
 1000fd0:	4620      	mov	r0, r4
 1000fd2:	4629      	mov	r1, r5

01000fd4 <.LVL158>:
 1000fd4:	f003 fbaa 	bl	100472c <__aeabi_dsub>
 1000fd8:	f01e f836 	bl	101f048 <__pa_fn_0_2e_01_0>
 1000fdc:	f003 fba6 	bl	100472c <__aeabi_dsub>
 1000fe0:	a331      	add	r3, pc, #196	; (adr r3, 10010a8 <.LVL184+0x8>)
 1000fe2:	e9d3 2300 	ldrd	r2, r3, [r3]
 1000fe6:	f002 ff91 	bl	1003f0c <__aeabi_dmul>
 1000fea:	a331      	add	r3, pc, #196	; (adr r3, 10010b0 <.LVL186+0x2>)
 1000fec:	e9d3 2300 	ldrd	r2, r3, [r3]

01000ff0 <.LVL161>:
 1000ff0:	f01e f811 	bl	101f016 <__pa_fn_0_1d_01_0>
 1000ff4:	f002 ff8a 	bl	1003f0c <__aeabi_dmul>
 1000ff8:	f01e f826 	bl	101f048 <__pa_fn_0_2e_01_0>

01000ffc <.LBB13>:
 1000ffc:	Address 0x01000ffc is out of bounds.


01000ffe <.LBE13>:
 1000ffe:	fb98 9a0c 			; <UNDEFINED> instruction: 0xfb989a0c
 1001002:	4b35      	ldr	r3, [pc, #212]	; (10010d8 <.LBE20+0x24>)

01001004 <.LBB14>:
 1001004:	4413      	add	r3, r2
 1001006:	Address 0x01001006 is out of bounds.


01001008 <.LBE14>:
 1001008:	2300      	movs	r3, #0
 100100a:	Address 0x0100100a is out of bounds.


0100100c <.LVL165>:
 100100c:	fb91 4604 			; <UNDEFINED> instruction: 0xfb914604
 1001010:	9807      	ldr	r0, [sp, #28]

01001012 <.LVL166>:
 1001012:	460d      	mov	r5, r1
 1001014:	Address 0x01001014 is out of bounds.


01001016 <.LVL167>:
 1001016:	fcd8 9a0c 	ldc2l	10, cr9, [r8], {12}	; <UNPREDICTABLE>
 100101a:	4b30      	ldr	r3, [pc, #192]	; (10010dc <.LBE20+0x28>)
 100101c:	4413      	add	r3, r2
 100101e:	e9d3 8900 	ldrd	r8, r9, [r3]
 1001022:	4606      	mov	r6, r0
 1001024:	460f      	mov	r7, r1
 1001026:	4622      	mov	r2, r4
 1001028:	462b      	mov	r3, r5
 100102a:	e9dd 0108 	ldrd	r0, r1, [sp, #32]
 100102e:	f003 fb7f 	bl	1004730 <__adddf3>
 1001032:	4642      	mov	r2, r8
 1001034:	464b      	mov	r3, r9
 1001036:	f003 fb7b 	bl	1004730 <__adddf3>

0100103a <.LVL171>:
 100103a:	4632      	mov	r2, r6
 100103c:	463b      	mov	r3, r7
 100103e:	f003 fb77 	bl	1004730 <__adddf3>
 1001042:	9802      	ldr	r0, [sp, #8]
 1001044:	4632      	mov	r2, r6
 1001046:	463b      	mov	r3, r7
 1001048:	e9cd 0104 	strd	r0, r1, [sp, #16]
 100104c:	f003 fb6e 	bl	100472c <__aeabi_dsub>
 1001050:	4642      	mov	r2, r8
 1001052:	464b      	mov	r3, r9
 1001054:	f003 fb6a 	bl	100472c <__aeabi_dsub>
 1001058:	e9dd 2308 	ldrd	r2, r3, [sp, #32]
 100105c:	e629      	b.n	1000cb2 <.LVL59+0x6>
 100105e:	f04f 0a01 	mov.w	sl, #1
 1001062:	e6c5      	b.n	1000df0 <.LVL91+0x8>

01001064 <.LVL175>:
 1001064:	ed9f 7b14 	vldr	d7, [pc, #80]	; 10010b8 <.LBE20+0x4>
 1001068:	e635      	b.n	1000cd6 <.LBB17>
 100106a:	bf00      	nop
 100106c:	f3af 8000 	nop.w
 1001070:	4eef      	.short	0x4eef

01001072 <.LVL177>:
 1001072:	4a45      	.short	0x4a45
 1001074:	7e28      	.short	0x7e28

01001076 <.LVL178>:
 1001076:	3fca      	.short	0x3fca
 1001078:	93c9db65 	.word	0x93c9db65
 100107c:	3fcd864a 	.word	0x3fcd864a
 1001080:	a91d4101 	.word	0xa91d4101
 1001084:	3fd17460 	.word	0x3fd17460
 1001088:	518f264d 	.word	0x518f264d
 100108c:	3fd55555 	.word	0x3fd55555
 1001090:	abff      	.short	0xabff

01001092 <.LBB15>:
 1001092:	db6f      	.short	0xdb6f

01001094 <.LBE15>:
 1001094:	3fdb6db6 	.word	0x3fdb6db6

01001098 <.LBB16>:
 1001098:	33333303 	.word	0x33333303

0100109c <.LBE16>:
 100109c:	3fe33333 	.word	0x3fe33333

010010a0 <.LVL184>:
 10010a0:	e0000000 	.word	0xe0000000
 10010a4:	3feec709 	.word	0x3feec709
 10010a8:	dc3a03fd 	.word	0xdc3a03fd
 10010ac:	c709      	.short	0xc709

010010ae <.LVL186>:
 10010ae:	3fee      	.short	0x3fee
 10010b0:	145b01f5 	.word	0x145b01f5

010010b4 <.LBE20>:
 10010b4:	be3e2fe0 	.word	0xbe3e2fe0
 10010b8:	00000000 	.word	0x00000000
 10010bc:	3ff00000 	.word	0x3ff00000
 10010c0:	43400000 	.word	0x43400000
 10010c4:	0003988e 	.word	0x0003988e
 10010c8:	000bb679 	.word	0x000bb679
 10010cc:	0101e418 	.word	0x0101e418
 10010d0:	3ff00000 	.word	0x3ff00000
 10010d4:	40080000 	.word	0x40080000
 10010d8:	0101e438 	.word	0x0101e438
 10010dc:	0101e428 	.word	0x0101e428
 10010e0:	a3ab      	add	r3, pc, #684	; (adr r3, 1001390 <.LBE26+0x2>)
 10010e2:	e9d3 2300 	ldrd	r2, r3, [r3]
 10010e6:	4640      	mov	r0, r8
 10010e8:	4649      	mov	r1, r9
 10010ea:	f003 fb21 	bl	1004730 <__adddf3>
 10010ee:	4622      	mov	r2, r4
 10010f0:	e9cd 0104 	strd	r0, r1, [sp, #16]
 10010f4:	462b      	mov	r3, r5
 10010f6:	4630      	mov	r0, r6
 10010f8:	4639      	mov	r1, r7
 10010fa:	f003 fb17 	bl	100472c <__aeabi_dsub>
 10010fe:	4602      	mov	r2, r0
 1001100:	460b      	mov	r3, r1
 1001102:	e9dd 0104 	ldrd	r0, r1, [sp, #16]
 1001106:	f009 fec9 	bl	100ae9c <__aeabi_dcmpgt>
 100110a:	2800      	cmp	r0, #0
 100110c:	f47f ae1e 	bne.w	1000d4c <.LBE19+0x2>
 1001110:	4a9a      	ldr	r2, [pc, #616]	; (100137c <.LVL264+0xc>)
 1001112:	f02b 4300 	bic.w	r3, fp, #2147483648	; 0x80000000
 1001116:	4293      	cmp	r3, r2
 1001118:	f340 80f6 	ble.w	1001308 <.LVL248+0x24>
 100111c:	151b      	asrs	r3, r3, #20
 100111e:	f44f 1a80 	mov.w	sl, #1048576	; 0x100000
 1001122:	f2a3 33fe 	subw	r3, r3, #1022	; 0x3fe
 1001126:	fa4a f303 	asr.w	r3, sl, r3
 100112a:	445b      	add	r3, fp
 100112c:	f3c3 520a 	ubfx	r2, r3, #20, #11

01001130 <.LVL188>:
 1001130:	4e93      	ldr	r6, [pc, #588]	; (1001380 <.LVL264+0x10>)
 1001132:	f2a2 32ff 	subw	r2, r2, #1023	; 0x3ff
 1001136:	4116      	asrs	r6, r2

01001138 <.LVL189>:
 1001138:	Address 0x01001138 is out of bounds.


0100113a <.LVL190>:
 100113a:	0a13      	lsrs	r3, r2, #8
 100113c:	2000      	movs	r0, #0
 100113e:	ea23 0106 	bic.w	r1, r3, r6
 1001142:	Address 0x01001142 is out of bounds.


01001144 <.LVL192>:
 1001144:	0214      	lsls	r4, r2, #8
 1001146:	f44a 1a80 	orr.w	sl, sl, #1048576	; 0x100000
 100114a:	fa4a fa02 	asr.w	sl, sl, r2
 100114e:	f1bb 0f00 	cmp.w	fp, #0
 1001152:	4602      	mov	r2, r0
 1001154:	460b      	mov	r3, r1
 1001156:	4620      	mov	r0, r4
 1001158:	4629      	mov	r1, r5
 100115a:	bfb8      	it	lt
 100115c:	f1ca 0a00 	rsblt	sl, sl, #0

01001160 <.LVL195>:
 1001160:	f003 fae4 	bl	100472c <__aeabi_dsub>
 1001164:	Address 0x01001164 is out of bounds.


01001166 <.LVL196>:
 1001166:	0100      	lsls	r0, r0, #4
 1001168:	4642      	mov	r2, r8
 100116a:	464b      	mov	r3, r9
 100116c:	Address 0x0100116c is out of bounds.


0100116e <.LVL197>:
 100116e:	0100      	lsls	r0, r0, #4
 1001170:	f003 fade 	bl	1004730 <__adddf3>
 1001174:	2000      	movs	r0, #0

01001176 <.LVL198>:
 1001176:	a36f      	add	r3, pc, #444	; (adr r3, 1001334 <.LVL256>)
 1001178:	Address 0x01001178 is out of bounds.


0100117a <.LVL199>:
 100117a:	Address 0x0100117a is out of bounds.


0100117c <.LVL200>:
 100117c:	f002 fec6 	bl	1003f0c <__aeabi_dmul>

01001180 <.LBB21>:
 1001180:	Address 0x01001180 is out of bounds.


01001182 <.LBE21>:
 1001182:	2300      	movs	r3, #0
 1001184:	Address 0x01001184 is out of bounds.


01001186 <.LBB22>:
 1001186:	Address 0x01001186 is out of bounds.


01001188 <.LBE22>:
 1001188:	f003 fad0 	bl	100472c <__aeabi_dsub>

0100118c <.LBB23>:
 100118c:	f01d ff57 	bl	101f03e <__pa_fn_0_2d_01_0>
 1001190:	Address 0x01001190 is out of bounds.


01001192 <.LBE23>:
 1001192:	facc a369 			; <UNDEFINED> instruction: 0xfacca369

01001196 <.LVL204>:
 1001196:	e9d3 2300 	ldrd	r2, r3, [r3]
 100119a:	f002 feb7 	bl	1003f0c <__aeabi_dmul>

0100119e <.LVL205>:
 100119e:	a369      	add	r3, pc, #420	; (adr r3, 1001344 <.LVL258+0x2>)
 10011a0:	e9d3 2300 	ldrd	r2, r3, [r3]
 10011a4:	4680      	mov	r8, r0

010011a6 <.LVL206>:
 10011a6:	4689      	mov	r9, r1

010011a8 <.LVL207>:
 10011a8:	4620      	mov	r0, r4
 10011aa:	4629      	mov	r1, r5
 10011ac:	f002 feae 	bl	1003f0c <__aeabi_dmul>
 10011b0:	f01d ff45 	bl	101f03e <__pa_fn_0_2d_01_0>
 10011b4:	f003 fabc 	bl	1004730 <__adddf3>

010011b8 <.LVL210>:
 10011b8:	4604      	mov	r4, r0
 10011ba:	460d      	mov	r5, r1
 10011bc:	f01d ff44 	bl	101f048 <__pa_fn_0_2e_01_0>
 10011c0:	f003 fab6 	bl	1004730 <__adddf3>

010011c4 <.LBB24>:
 10011c4:	4632      	mov	r2, r6

010011c6 <.LBE24>:
 10011c6:	463b      	mov	r3, r7
 10011c8:	4680      	mov	r8, r0
 10011ca:	4689      	mov	r9, r1

010011cc <.LBB25>:
 10011cc:	f003 faae 	bl	100472c <__aeabi_dsub>

010011d0 <.LBE25>:
 10011d0:	4602      	mov	r2, r0
 10011d2:	460b      	mov	r3, r1

010011d4 <.LVL214>:
 10011d4:	4620      	mov	r0, r4
 10011d6:	4629      	mov	r1, r5
 10011d8:	f003 faa8 	bl	100472c <__aeabi_dsub>

010011dc <.LVL215>:
 10011dc:	f01d fbb6 	bl	101e94c <__pa_fn_0_6c_01_0>
 10011e0:	f002 fe94 	bl	1003f0c <__aeabi_dmul>
 10011e4:	a359      	add	r3, pc, #356	; (adr r3, 100134c <.LVL259>)
 10011e6:	f01d ff84 	bl	101f0f2 <__pa_fn_0_ac_01_0>
 10011ea:	f002 fe8f 	bl	1003f0c <__aeabi_dmul>
 10011ee:	a359      	add	r3, pc, #356	; (adr r3, 1001354 <.LVL260+0x4>)
 10011f0:	e9d3 2300 	ldrd	r2, r3, [r3]
 10011f4:	f003 fa9a 	bl	100472c <__aeabi_dsub>
 10011f8:	4622      	mov	r2, r4
 10011fa:	462b      	mov	r3, r5
 10011fc:	f002 fe86 	bl	1003f0c <__aeabi_dmul>
 1001200:	a356      	add	r3, pc, #344	; (adr r3, 100135c <.LVL261+0x2>)

01001202 <.LVL219>:
 1001202:	e9d3 2300 	ldrd	r2, r3, [r3]
 1001206:	f003 fa93 	bl	1004730 <__adddf3>
 100120a:	4622      	mov	r2, r4
 100120c:	462b      	mov	r3, r5
 100120e:	f002 fe7d 	bl	1003f0c <__aeabi_dmul>
 1001212:	a354      	add	r3, pc, #336	; (adr r3, 1001364 <.LVL261+0xa>)
 1001214:	e9d3 2300 	ldrd	r2, r3, [r3]
 1001218:	f003 fa88 	bl	100472c <__aeabi_dsub>

0100121c <.LVL222>:
 100121c:	4622      	mov	r2, r4
 100121e:	462b      	mov	r3, r5
 1001220:	f002 fe74 	bl	1003f0c <__aeabi_dmul>
 1001224:	a351      	add	r3, pc, #324	; (adr r3, 100136c <.LVL263+0x4>)
 1001226:	e9d3 2300 	ldrd	r2, r3, [r3]
 100122a:	f003 fa81 	bl	1004730 <__adddf3>
 100122e:	4622      	mov	r2, r4

01001230 <.LVL224>:
 1001230:	462b      	mov	r3, r5
 1001232:	f002 fe6b 	bl	1003f0c <__aeabi_dmul>
 1001236:	f01d ff02 	bl	101f03e <__pa_fn_0_2d_01_0>
 100123a:	f003 fa77 	bl	100472c <__aeabi_dsub>
 100123e:	4604      	mov	r4, r0
 1001240:	460d      	mov	r5, r1
 1001242:	Address 0x01001242 is out of bounds.


01001244 <.LVL227>:
 1001244:	Address 0x01001244 is out of bounds.


01001246 <.LVL228>:
 1001246:	f002 fe61 	bl	1003f0c <__aeabi_dmul>
 100124a:	2200      	movs	r2, #0
 100124c:	e9cd 0100 	strd	r0, r1, [sp]
 1001250:	f04f 4380 	mov.w	r3, #1073741824	; 0x40000000
 1001254:	4620      	mov	r0, r4
 1001256:	4629      	mov	r1, r5

01001258 <.LVL230>:
 1001258:	Address 0x01001258 is out of bounds.


0100125a <.LVL231>:
 100125a:	fa68 4602 			; <UNDEFINED> instruction: 0xfa684602
 100125e:	460b      	mov	r3, r1
 1001260:	e9dd 0100 	ldrd	r0, r1, [sp]
 1001264:	f002 ff7c 	bl	1004160 <__aeabi_ddiv>
 1001268:	4632      	mov	r2, r6
 100126a:	4604      	mov	r4, r0
 100126c:	460d      	mov	r5, r1
 100126e:	463b      	mov	r3, r7
 1001270:	4640      	mov	r0, r8
 1001272:	4649      	mov	r1, r9
 1001274:	f002 fe4a 	bl	1003f0c <__aeabi_dmul>
 1001278:	4632      	mov	r2, r6
 100127a:	463b      	mov	r3, r7
 100127c:	f003 fa58 	bl	1004730 <__adddf3>
 1001280:	4602      	mov	r2, r0
 1001282:	460b      	mov	r3, r1
 1001284:	4620      	mov	r0, r4
 1001286:	4629      	mov	r1, r5
 1001288:	f003 fa50 	bl	100472c <__aeabi_dsub>
 100128c:	4642      	mov	r2, r8
 100128e:	464b      	mov	r3, r9
 1001290:	f003 fa4c 	bl	100472c <__aeabi_dsub>
 1001294:	4602      	mov	r2, r0
 1001296:	460b      	mov	r3, r1
 1001298:	2000      	movs	r0, #0
 100129a:	493a      	ldr	r1, [pc, #232]	; (1001384 <.LVL266>)
 100129c:	f003 fa46 	bl	100472c <__aeabi_dsub>
 10012a0:	eb01 540a 	add.w	r4, r1, sl, lsl #20
 10012a4:	f5b4 1f80 	cmp.w	r4, #1048576	; 0x100000
 10012a8:	4602      	mov	r2, r0
 10012aa:	460b      	mov	r3, r1
 10012ac:	da2f      	bge.n	100130e <.LVL248+0x2a>
 10012ae:	4650      	mov	r0, sl
 10012b0:	ec43 2b10 	vmov	d0, r2, r3

010012b4 <.LVL242>:
 10012b4:	Address 0x010012b4 is out of bounds.


010012b6 <.LVL243>:
 10012b6:	fca4 ec51 	stc2	12, cr14, [r4], #324	; 0x144
 10012ba:	0b10      	lsrs	r0, r2, #12
 10012bc:	e9dd 2302 	ldrd	r2, r3, [sp, #8]
 10012c0:	f7ff bc2d 	b.w	1000b1e <.LVL25>
 10012c4:	4b30      	ldr	r3, [pc, #192]	; (1001388 <.LVL266+0x4>)
 10012c6:	Address 0x010012c6 is out of bounds.


010012c8 <.LVL245>:
 10012c8:	4600      	mov	r0, r0
 10012ca:	429e      	cmp	r6, r3
 10012cc:	f77f af20 	ble.w	1001110 <.LBE20+0x5c>
 10012d0:	4b2e      	ldr	r3, [pc, #184]	; (100138c <.LVL268>)
 10012d2:	440b      	add	r3, r1
 10012d4:	4303      	orrs	r3, r0
 10012d6:	d00b      	beq.n	10012f0 <.LVL248+0xc>
 10012d8:	a326      	add	r3, pc, #152	; (adr r3, 1001374 <.LVL264+0x4>)
 10012da:	e9d3 2300 	ldrd	r2, r3, [r3]
 10012de:	e9dd 0102 	ldrd	r0, r1, [sp, #8]
 10012e2:	Address 0x010012e2 is out of bounds.


010012e4 <.LVL248>:
 10012e4:	fe13 a323 	cdp2	3, 1, cr10, cr3, cr3, {1}
 10012e8:	e9d3 2300 	ldrd	r2, r3, [r3]
 10012ec:	f7ff bc17 	b.w	1000b1e <.LVL25>
 10012f0:	4622      	mov	r2, r4
 10012f2:	462b      	mov	r3, r5
 10012f4:	f003 fa1a 	bl	100472c <__aeabi_dsub>
 10012f8:	f01d fea1 	bl	101f03e <__pa_fn_0_2d_01_0>
 10012fc:	f009 fdba 	bl	100ae74 <__aeabi_dcmple>
 1001300:	2800      	cmp	r0, #0
 1001302:	f43f af05 	beq.w	1001110 <.LBE20+0x5c>
 1001306:	e7e7      	b.n	10012d8 <.LVL245+0x10>
 1001308:	f04f 0a00 	mov.w	sl, #0
 100130c:	e72c      	b.n	1001168 <.LVL196+0x2>
 100130e:	4621      	mov	r1, r4
 1001310:	e7d4      	b.n	10012bc <.LVL243+0x6>
 1001312:	2000      	movs	r0, #0
 1001314:	491b      	ldr	r1, [pc, #108]	; (1001384 <.LVL266>)
 1001316:	f7ff bbcb 	b.w	1000ab0 <.LVL12>
 100131a:	e9dd 0100 	ldrd	r0, r1, [sp]
 100131e:	f7ff bbc7 	b.w	1000ab0 <.LVL12>
 1001322:	4630      	mov	r0, r6

01001324 <.LVL254>:
 1001324:	4639      	mov	r1, r7
 1001326:	f7ff bbc3 	b.w	1000ab0 <.LVL12>
 100132a:	4693      	mov	fp, r2
 100132c:	f7ff bbd4 	b.w	1000ad8 <.LVL17>

01001330 <.LVL255>:
 1001330:	f3af 8000 	nop.w

01001334 <.LVL256>:
 1001334:	00000000 	.word	0x00000000
 1001338:	3fe62e43 	.word	0x3fe62e43

0100133c <.LVL257>:
 100133c:	fefa39ef 	.word	0xfefa39ef
 1001340:	2e42      	.short	0x2e42

01001342 <.LVL258>:
 1001342:	3fe6      	.short	0x3fe6
 1001344:	0ca86c39 	.word	0x0ca86c39
 1001348:	be205c61 	.word	0xbe205c61

0100134c <.LVL259>:
 100134c:	72bea4d0 	.word	0x72bea4d0

01001350 <.LVL260>:
 1001350:	3e663769 	.word	0x3e663769
 1001354:	c5d26bf1 	.word	0xc5d26bf1
 1001358:	bd41      	.short	0xbd41

0100135a <.LVL261>:
 100135a:	3ebb      	.short	0x3ebb
 100135c:	af25de2c 	.word	0xaf25de2c
 1001360:	3f11566a 	.word	0x3f11566a
 1001364:	16bebd93 	.word	0x16bebd93

01001368 <.LVL263>:
 1001368:	3f66c16c 	.word	0x3f66c16c
 100136c:	5555553e 	.word	0x5555553e

01001370 <.LVL264>:
 1001370:	3fc55555 	.word	0x3fc55555
 1001374:	c2f8f359 	.word	0xc2f8f359
 1001378:	01a56e1f 	.word	0x01a56e1f
 100137c:	3fe00000 	.word	0x3fe00000
 1001380:	000fffff 	.word	0x000fffff

01001384 <.LVL266>:
 1001384:	3ff00000 	.word	0x3ff00000
 1001388:	cbff      	.short	0xcbff

0100138a <.LBB26>:
 100138a:	4090      	.short	0x4090

0100138c <.LVL268>:
 100138c:	3400      	.short	0x3400

0100138e <.LBE26>:
 100138e:	3f6f      	.short	0x3f6f
 1001390:	652b82fe 	.word	0x652b82fe
 1001394:	1547      	.short	0x1547

01001396 <.LVL270>:
 1001396:	3c97      	.short	0x3c97

Disassembly of section .text%87:

01001398 <bt_modem_common_setup>:
 1001398:	b480      	push	{r7}
 100139a:	af00      	add	r7, sp, #0
 100139c:	4b4d      	ldr	r3, [pc, #308]	; (10014d4 <.LFE0+0xc0>)
 100139e:	f503 53a9 	add.w	r3, r3, #5408	; 0x1520
 10013a2:	3310      	adds	r3, #16
 10013a4:	4a4c      	ldr	r2, [pc, #304]	; (10014d8 <.LFE0+0xc4>)
 10013a6:	601a      	str	r2, [r3, #0]
 10013a8:	4b4a      	ldr	r3, [pc, #296]	; (10014d4 <.LFE0+0xc0>)
 10013aa:	f503 53aa 	add.w	r3, r3, #5440	; 0x1540
 10013ae:	3308      	adds	r3, #8
 10013b0:	4a4a      	ldr	r2, [pc, #296]	; (10014dc <.LFE0+0xc8>)
 10013b2:	601a      	str	r2, [r3, #0]
 10013b4:	4b47      	ldr	r3, [pc, #284]	; (10014d4 <.LFE0+0xc0>)
 10013b6:	f503 53b8 	add.w	r3, r3, #5888	; 0x1700
 10013ba:	3304      	adds	r3, #4
 10013bc:	f44f 4280 	mov.w	r2, #16384	; 0x4000
 10013c0:	601a      	str	r2, [r3, #0]
 10013c2:	4b44      	ldr	r3, [pc, #272]	; (10014d4 <.LFE0+0xc0>)
 10013c4:	f503 53b8 	add.w	r3, r3, #5888	; 0x1700
 10013c8:	331c      	adds	r3, #28
 10013ca:	f04f 5214 	mov.w	r2, #620756992	; 0x25000000
 10013ce:	601a      	str	r2, [r3, #0]
 10013d0:	4b40      	ldr	r3, [pc, #256]	; (10014d4 <.LFE0+0xc0>)
 10013d2:	f503 53b9 	add.w	r3, r3, #5920	; 0x1720
 10013d6:	4a42      	ldr	r2, [pc, #264]	; (10014e0 <.LFE0+0xcc>)
 10013d8:	601a      	str	r2, [r3, #0]
 10013da:	4b3e      	ldr	r3, [pc, #248]	; (10014d4 <.LFE0+0xc0>)
 10013dc:	f503 53b9 	add.w	r3, r3, #5920	; 0x1720
 10013e0:	3304      	adds	r3, #4
 10013e2:	4a40      	ldr	r2, [pc, #256]	; (10014e4 <.LFE0+0xd0>)
 10013e4:	601a      	str	r2, [r3, #0]
 10013e6:	4b3b      	ldr	r3, [pc, #236]	; (10014d4 <.LFE0+0xc0>)
 10013e8:	f503 53b9 	add.w	r3, r3, #5920	; 0x1720
 10013ec:	3308      	adds	r3, #8
 10013ee:	4a3e      	ldr	r2, [pc, #248]	; (10014e8 <.LFE0+0xd4>)
 10013f0:	601a      	str	r2, [r3, #0]
 10013f2:	4b38      	ldr	r3, [pc, #224]	; (10014d4 <.LFE0+0xc0>)
 10013f4:	f503 53b9 	add.w	r3, r3, #5920	; 0x1720
 10013f8:	330c      	adds	r3, #12
 10013fa:	4a3c      	ldr	r2, [pc, #240]	; (10014ec <.LFE0+0xd8>)
 10013fc:	601a      	str	r2, [r3, #0]
 10013fe:	4b35      	ldr	r3, [pc, #212]	; (10014d4 <.LFE0+0xc0>)
 1001400:	f503 53b9 	add.w	r3, r3, #5920	; 0x1720
 1001404:	3310      	adds	r3, #16
 1001406:	4a3a      	ldr	r2, [pc, #232]	; (10014f0 <.LFE0+0xdc>)
 1001408:	601a      	str	r2, [r3, #0]
 100140a:	4b32      	ldr	r3, [pc, #200]	; (10014d4 <.LFE0+0xc0>)
 100140c:	f503 53b9 	add.w	r3, r3, #5920	; 0x1720
 1001410:	3314      	adds	r3, #20
 1001412:	22e0      	movs	r2, #224	; 0xe0
 1001414:	601a      	str	r2, [r3, #0]
 1001416:	4b2f      	ldr	r3, [pc, #188]	; (10014d4 <.LFE0+0xc0>)
 1001418:	f503 53b9 	add.w	r3, r3, #5920	; 0x1720
 100141c:	3318      	adds	r3, #24
 100141e:	4a35      	ldr	r2, [pc, #212]	; (10014f4 <.LFE0+0xe0>)
 1001420:	601a      	str	r2, [r3, #0]
 1001422:	4b2c      	ldr	r3, [pc, #176]	; (10014d4 <.LFE0+0xc0>)
 1001424:	f503 53b9 	add.w	r3, r3, #5920	; 0x1720
 1001428:	331c      	adds	r3, #28
 100142a:	4a33      	ldr	r2, [pc, #204]	; (10014f8 <.LFE0+0xe4>)
 100142c:	601a      	str	r2, [r3, #0]
 100142e:	4b29      	ldr	r3, [pc, #164]	; (10014d4 <.LFE0+0xc0>)
 1001430:	f503 53ba 	add.w	r3, r3, #5952	; 0x1740
 1001434:	f44f 3240 	mov.w	r2, #196608	; 0x30000
 1001438:	601a      	str	r2, [r3, #0]
 100143a:	4b26      	ldr	r3, [pc, #152]	; (10014d4 <.LFE0+0xc0>)
 100143c:	f503 53ba 	add.w	r3, r3, #5952	; 0x1740
 1001440:	3304      	adds	r3, #4
 1001442:	4a2e      	ldr	r2, [pc, #184]	; (10014fc <.LFE0+0xe8>)
 1001444:	601a      	str	r2, [r3, #0]
 1001446:	4b23      	ldr	r3, [pc, #140]	; (10014d4 <.LFE0+0xc0>)
 1001448:	f503 53ba 	add.w	r3, r3, #5952	; 0x1740
 100144c:	3308      	adds	r3, #8
 100144e:	4a2c      	ldr	r2, [pc, #176]	; (1001500 <.LFE0+0xec>)
 1001450:	601a      	str	r2, [r3, #0]
 1001452:	4b20      	ldr	r3, [pc, #128]	; (10014d4 <.LFE0+0xc0>)
 1001454:	f503 53ba 	add.w	r3, r3, #5952	; 0x1740
 1001458:	330c      	adds	r3, #12
 100145a:	4a2a      	ldr	r2, [pc, #168]	; (1001504 <.LFE0+0xf0>)
 100145c:	601a      	str	r2, [r3, #0]
 100145e:	4b1d      	ldr	r3, [pc, #116]	; (10014d4 <.LFE0+0xc0>)
 1001460:	f503 53ba 	add.w	r3, r3, #5952	; 0x1740
 1001464:	3310      	adds	r3, #16
 1001466:	2206      	movs	r2, #6
 1001468:	601a      	str	r2, [r3, #0]
 100146a:	4b1a      	ldr	r3, [pc, #104]	; (10014d4 <.LFE0+0xc0>)
 100146c:	f503 53ba 	add.w	r3, r3, #5952	; 0x1740
 1001470:	3314      	adds	r3, #20
 1001472:	4a25      	ldr	r2, [pc, #148]	; (1001508 <.LFE0+0xf4>)
 1001474:	601a      	str	r2, [r3, #0]
 1001476:	4b17      	ldr	r3, [pc, #92]	; (10014d4 <.LFE0+0xc0>)
 1001478:	f503 53ba 	add.w	r3, r3, #5952	; 0x1740
 100147c:	3318      	adds	r3, #24
 100147e:	4a23      	ldr	r2, [pc, #140]	; (100150c <.LFE0+0xf8>)
 1001480:	601a      	str	r2, [r3, #0]
 1001482:	4b14      	ldr	r3, [pc, #80]	; (10014d4 <.LFE0+0xc0>)
 1001484:	f503 53ba 	add.w	r3, r3, #5952	; 0x1740
 1001488:	331c      	adds	r3, #28
 100148a:	f44f 4200 	mov.w	r2, #32768	; 0x8000
 100148e:	601a      	str	r2, [r3, #0]
 1001490:	4b10      	ldr	r3, [pc, #64]	; (10014d4 <.LFE0+0xc0>)
 1001492:	f503 53bb 	add.w	r3, r3, #5984	; 0x1760
 1001496:	4a1e      	ldr	r2, [pc, #120]	; (1001510 <.LFE0+0xfc>)
 1001498:	601a      	str	r2, [r3, #0]
 100149a:	4b0e      	ldr	r3, [pc, #56]	; (10014d4 <.LFE0+0xc0>)
 100149c:	f503 53bb 	add.w	r3, r3, #5984	; 0x1760
 10014a0:	3304      	adds	r3, #4
 10014a2:	4a1c      	ldr	r2, [pc, #112]	; (1001514 <.LFE0+0x100>)
 10014a4:	601a      	str	r2, [r3, #0]
 10014a6:	4b0b      	ldr	r3, [pc, #44]	; (10014d4 <.LFE0+0xc0>)
 10014a8:	f503 53bb 	add.w	r3, r3, #5984	; 0x1760
 10014ac:	3308      	adds	r3, #8
 10014ae:	f245 4233 	movw	r2, #21555	; 0x5433
 10014b2:	601a      	str	r2, [r3, #0]
 10014b4:	4b07      	ldr	r3, [pc, #28]	; (10014d4 <.LFE0+0xc0>)
 10014b6:	f503 53bb 	add.w	r3, r3, #5984	; 0x1760
 10014ba:	330c      	adds	r3, #12
 10014bc:	f44f 52f0 	mov.w	r2, #7680	; 0x1e00
 10014c0:	601a      	str	r2, [r3, #0]
 10014c2:	4b04      	ldr	r3, [pc, #16]	; (10014d4 <.LFE0+0xc0>)
 10014c4:	f503 53bb 	add.w	r3, r3, #5984	; 0x1760
 10014c8:	3310      	adds	r3, #16
 10014ca:	2240      	movs	r2, #64	; 0x40
 10014cc:	601a      	str	r2, [r3, #0]
 10014ce:	bf00      	nop
 10014d0:	f01d be5e 	b.w	101f190 <__pa_fn_0_aa_10_0>
 10014d4:	41012000 	.word	0x41012000
 10014d8:	4010290c 	.word	0x4010290c
 10014dc:	ffff001e 	.word	0xffff001e
 10014e0:	544646c0 	.word	0x544646c0
 10014e4:	0c0040a0 	.word	0x0c0040a0
 10014e8:	be8f9210 	.word	0xbe8f9210
 10014ec:	0010d418 	.word	0x0010d418
 10014f0:	404fa67a 	.word	0x404fa67a
 10014f4:	2148a953 	.word	0x2148a953
 10014f8:	4650054b 	.word	0x4650054b
 10014fc:	8c3d81f1 	.word	0x8c3d81f1
 1001500:	0c0c08d3 	.word	0x0c0c08d3
 1001504:	18060290 	.word	0x18060290
 1001508:	005c8720 	.word	0x005c8720
 100150c:	ffff0064 	.word	0xffff0064
 1001510:	06400d11 	.word	0x06400d11
 1001514:	00242905 	.word	0x00242905

01001518 <Delay100ns>:
 1001518:	b480      	push	{r7}
 100151a:	af00      	add	r7, sp, #0

0100151c <L0^A>:
 100151c:	bf00      	nop
 100151e:	bf00      	nop
 1001520:	bf00      	nop
 1001522:	bf00      	nop
 1001524:	bf00      	nop
 1001526:	bf00      	nop
 1001528:	bf00      	nop
 100152a:	bf00      	nop
 100152c:	f01d be30 	b.w	101f190 <__pa_fn_0_aa_10_0>

01001530 <Delay100us>:
 1001530:	b480      	push	{r7}
 1001532:	b083      	sub	sp, #12
 1001534:	af00      	add	r7, sp, #0
 1001536:	2300      	movs	r3, #0

01001538 <L0^A>:
 1001538:	71fb      	strb	r3, [r7, #7]
 100153a:	e018      	b.n	100156e <L0^A+0x36>
 100153c:	bf00      	nop
 100153e:	bf00      	nop
 1001540:	bf00      	nop
 1001542:	bf00      	nop
 1001544:	bf00      	nop
 1001546:	bf00      	nop
 1001548:	bf00      	nop
 100154a:	bf00      	nop
 100154c:	bf00      	nop
 100154e:	bf00      	nop
 1001550:	bf00      	nop
 1001552:	bf00      	nop
 1001554:	bf00      	nop
 1001556:	bf00      	nop
 1001558:	bf00      	nop
 100155a:	bf00      	nop
 100155c:	bf00      	nop
 100155e:	bf00      	nop
 1001560:	bf00      	nop
 1001562:	bf00      	nop
 1001564:	bf00      	nop
 1001566:	bf00      	nop
 1001568:	79fb      	ldrb	r3, [r7, #7]
 100156a:	3301      	adds	r3, #1
 100156c:	71fb      	strb	r3, [r7, #7]
 100156e:	79fb      	ldrb	r3, [r7, #7]
 1001570:	2bc7      	cmp	r3, #199	; 0xc7
 1001572:	d9e3      	bls.n	100153c <L0^A+0x4>
 1001574:	bf00      	nop
 1001576:	370c      	adds	r7, #12
 1001578:	f01d be0a 	b.w	101f190 <__pa_fn_0_aa_10_0>

0100157c <Delay100ms>:
 100157c:	b580      	push	{r7, lr}
 100157e:	b082      	sub	sp, #8
 1001580:	af00      	add	r7, sp, #0
 1001582:	2300      	movs	r3, #0
 1001584:	80fb      	strh	r3, [r7, #6]
 1001586:	e004      	b.n	1001592 <L0^A+0xa>

01001588 <L0^A>:
 1001588:	f7ff ffd2 	bl	1001530 <Delay100us>
 100158c:	88fb      	ldrh	r3, [r7, #6]
 100158e:	3301      	adds	r3, #1
 1001590:	80fb      	strh	r3, [r7, #6]
 1001592:	88fb      	ldrh	r3, [r7, #6]
 1001594:	f5b3 7f61 	cmp.w	r3, #900	; 0x384
 1001598:	d3f6      	bcc.n	1001588 <L0^A>
 100159a:	f01d bde9 	b.w	101f170 <__pa_fn_0_35_11_0>

0100159e <aclb_initial_settings>:
 100159e:	b580      	push	{r7, lr}
 10015a0:	b082      	sub	sp, #8
 10015a2:	af00      	add	r7, sp, #0
 10015a4:	4bcc      	ldr	r3, [pc, #816]	; (10018d8 <L0^A+0x32a>)
 10015a6:	681b      	ldr	r3, [r3, #0]
 10015a8:	607b      	str	r3, [r7, #4]
 10015aa:	4acb      	ldr	r2, [pc, #812]	; (10018d8 <L0^A+0x32a>)
 10015ac:	687b      	ldr	r3, [r7, #4]

010015ae <L0^A>:
 10015ae:	f023 7380 	bic.w	r3, r3, #16777216	; 0x1000000
 10015b2:	6013      	str	r3, [r2, #0]
 10015b4:	4bc8      	ldr	r3, [pc, #800]	; (10018d8 <L0^A+0x32a>)
 10015b6:	681b      	ldr	r3, [r3, #0]
 10015b8:	607b      	str	r3, [r7, #4]
 10015ba:	4ac7      	ldr	r2, [pc, #796]	; (10018d8 <L0^A+0x32a>)
 10015bc:	687b      	ldr	r3, [r7, #4]
 10015be:	f043 7380 	orr.w	r3, r3, #16777216	; 0x1000000
 10015c2:	6013      	str	r3, [r2, #0]
 10015c4:	f640 215a 	movw	r1, #2650	; 0xa5a
 10015c8:	2001      	movs	r0, #1
 10015ca:	f007 ffd5 	bl	1009578 <RF_Write_Reg>
 10015ce:	f44f 719e 	mov.w	r1, #316	; 0x13c
 10015d2:	2003      	movs	r0, #3
 10015d4:	f007 ffd0 	bl	1009578 <RF_Write_Reg>
 10015d8:	f44f 7198 	mov.w	r1, #304	; 0x130
 10015dc:	2004      	movs	r0, #4
 10015de:	f007 ffcb 	bl	1009578 <RF_Write_Reg>
 10015e2:	f243 2115 	movw	r1, #12821	; 0x3215
 10015e6:	2005      	movs	r0, #5
 10015e8:	f007 ffc6 	bl	1009578 <RF_Write_Reg>
 10015ec:	f243 0106 	movw	r1, #12294	; 0x3006
 10015f0:	2007      	movs	r0, #7
 10015f2:	f007 ffc1 	bl	1009578 <RF_Write_Reg>
 10015f6:	f24e 314e 	movw	r1, #58190	; 0xe34e
 10015fa:	2008      	movs	r0, #8
 10015fc:	f007 ffbc 	bl	1009578 <RF_Write_Reg>
 1001600:	f24e 314e 	movw	r1, #58190	; 0xe34e
 1001604:	200a      	movs	r0, #10
 1001606:	f007 ffb7 	bl	1009578 <RF_Write_Reg>
 100160a:	f64c 2186 	movw	r1, #51846	; 0xca86
 100160e:	2010      	movs	r0, #16
 1001610:	f007 ffb2 	bl	1009578 <RF_Write_Reg>
 1001614:	f240 21ad 	movw	r1, #685	; 0x2ad
 1001618:	2014      	movs	r0, #20
 100161a:	f007 ffad 	bl	1009578 <RF_Write_Reg>
 100161e:	f244 01e0 	movw	r1, #16608	; 0x40e0
 1001622:	2017      	movs	r0, #23
 1001624:	f007 ffa8 	bl	1009578 <RF_Write_Reg>
 1001628:	f44f 4189 	mov.w	r1, #17536	; 0x4480
 100162c:	2018      	movs	r0, #24
 100162e:	f007 ffa3 	bl	1009578 <RF_Write_Reg>
 1001632:	f64c 2186 	movw	r1, #51846	; 0xca86
 1001636:	2019      	movs	r0, #25
 1001638:	f007 ff9e 	bl	1009578 <RF_Write_Reg>
 100163c:	f44f 717e 	mov.w	r1, #1016	; 0x3f8
 1001640:	201f      	movs	r0, #31
 1001642:	f007 ff99 	bl	1009578 <RF_Write_Reg>
 1001646:	f24e 3154 	movw	r1, #58196	; 0xe354
 100164a:	2036      	movs	r0, #54	; 0x36
 100164c:	f007 ff94 	bl	1009578 <RF_Write_Reg>
 1001650:	f242 018d 	movw	r1, #8333	; 0x208d
 1001654:	2037      	movs	r0, #55	; 0x37
 1001656:	f007 ff8f 	bl	1009578 <RF_Write_Reg>
 100165a:	f24e 3154 	movw	r1, #58196	; 0xe354
 100165e:	2038      	movs	r0, #56	; 0x38
 1001660:	f007 ff8a 	bl	1009578 <RF_Write_Reg>
 1001664:	f242 0187 	movw	r1, #8327	; 0x2087
 1001668:	2039      	movs	r0, #57	; 0x39
 100166a:	f007 ff85 	bl	1009578 <RF_Write_Reg>
 100166e:	f246 217a 	movw	r1, #25210	; 0x627a
 1001672:	203a      	movs	r0, #58	; 0x3a
 1001674:	f007 ff80 	bl	1009578 <RF_Write_Reg>
 1001678:	f24e 3154 	movw	r1, #58196	; 0xe354
 100167c:	203d      	movs	r0, #61	; 0x3d
 100167e:	f007 ff7b 	bl	1009578 <RF_Write_Reg>
 1001682:	f641 0104 	movw	r1, #6148	; 0x1804
 1001686:	203e      	movs	r0, #62	; 0x3e
 1001688:	f007 ff76 	bl	1009578 <RF_Write_Reg>
 100168c:	f24e 3154 	movw	r1, #58196	; 0xe354
 1001690:	203f      	movs	r0, #63	; 0x3f
 1001692:	f007 ff71 	bl	1009578 <RF_Write_Reg>
 1001696:	f64c 2105 	movw	r1, #51717	; 0xca05
 100169a:	2044      	movs	r0, #68	; 0x44
 100169c:	f007 ff6c 	bl	1009578 <RF_Write_Reg>
 10016a0:	f24e 3154 	movw	r1, #58196	; 0xe354
 10016a4:	2045      	movs	r0, #69	; 0x45
 10016a6:	f007 ff67 	bl	1009578 <RF_Write_Reg>
 10016aa:	f645 01b8 	movw	r1, #22712	; 0x58b8
 10016ae:	2046      	movs	r0, #70	; 0x46
 10016b0:	f007 ff62 	bl	1009578 <RF_Write_Reg>
 10016b4:	2101      	movs	r1, #1
 10016b6:	2047      	movs	r0, #71	; 0x47
 10016b8:	f007 ff5e 	bl	1009578 <RF_Write_Reg>
 10016bc:	f64c 2107 	movw	r1, #51719	; 0xca07
 10016c0:	2048      	movs	r0, #72	; 0x48
 10016c2:	f007 ff59 	bl	1009578 <RF_Write_Reg>
 10016c6:	f242 0102 	movw	r1, #8194	; 0x2002
 10016ca:	2049      	movs	r0, #73	; 0x49
 10016cc:	f007 ff54 	bl	1009578 <RF_Write_Reg>
 10016d0:	f24e 3154 	movw	r1, #58196	; 0xe354
 10016d4:	204d      	movs	r0, #77	; 0x4d
 10016d6:	f007 ff4f 	bl	1009578 <RF_Write_Reg>
 10016da:	f64a 31ac 	movw	r1, #43948	; 0xabac
 10016de:	2051      	movs	r0, #81	; 0x51
 10016e0:	f007 ff4a 	bl	1009578 <RF_Write_Reg>
 10016e4:	f242 0104 	movw	r1, #8196	; 0x2004
 10016e8:	2058      	movs	r0, #88	; 0x58
 10016ea:	f007 ff45 	bl	1009578 <RF_Write_Reg>
 10016ee:	f44f 6178 	mov.w	r1, #3968	; 0xf80
 10016f2:	205d      	movs	r0, #93	; 0x5d
 10016f4:	f007 ff40 	bl	1009578 <RF_Write_Reg>
 10016f8:	f242 61ff 	movw	r1, #9983	; 0x26ff
 10016fc:	2062      	movs	r0, #98	; 0x62
 10016fe:	f007 ff3b 	bl	1009578 <RF_Write_Reg>
 1001702:	f242 61e0 	movw	r1, #9952	; 0x26e0
 1001706:	2063      	movs	r0, #99	; 0x63
 1001708:	f007 ff36 	bl	1009578 <RF_Write_Reg>
 100170c:	f242 01ff 	movw	r1, #8447	; 0x20ff
 1001710:	2064      	movs	r0, #100	; 0x64
 1001712:	f007 ff31 	bl	1009578 <RF_Write_Reg>
 1001716:	f242 01bc 	movw	r1, #8380	; 0x20bc
 100171a:	2065      	movs	r0, #101	; 0x65
 100171c:	f007 ff2c 	bl	1009578 <RF_Write_Reg>
 1001720:	f242 01a5 	movw	r1, #8357	; 0x20a5
 1001724:	2066      	movs	r0, #102	; 0x66
 1001726:	f007 ff27 	bl	1009578 <RF_Write_Reg>
 100172a:	f242 0198 	movw	r1, #8344	; 0x2098
 100172e:	2067      	movs	r0, #103	; 0x67
 1001730:	f007 ff22 	bl	1009578 <RF_Write_Reg>
 1001734:	f242 0102 	movw	r1, #8194	; 0x2002
 1001738:	206a      	movs	r0, #106	; 0x6a
 100173a:	f007 ff1d 	bl	1009578 <RF_Write_Reg>
 100173e:	f64d 0160 	movw	r1, #55392	; 0xd860
 1001742:	206b      	movs	r0, #107	; 0x6b
 1001744:	f007 ff18 	bl	1009578 <RF_Write_Reg>
 1001748:	f647 0178 	movw	r1, #30840	; 0x7878
 100174c:	206c      	movs	r0, #108	; 0x6c
 100174e:	f007 ff13 	bl	1009578 <RF_Write_Reg>
 1001752:	f64e 1118 	movw	r1, #59672	; 0xe918
 1001756:	206d      	movs	r0, #109	; 0x6d
 1001758:	f007 ff0e 	bl	1009578 <RF_Write_Reg>
 100175c:	f64f 71e1 	movw	r1, #65505	; 0xffe1
 1001760:	2071      	movs	r0, #113	; 0x71
 1001762:	f007 ff09 	bl	1009578 <RF_Write_Reg>
 1001766:	f64f 6148 	movw	r1, #65096	; 0xfe48
 100176a:	2072      	movs	r0, #114	; 0x72
 100176c:	f007 ff04 	bl	1009578 <RF_Write_Reg>
 1001770:	f242 0104 	movw	r1, #8196	; 0x2004
 1001774:	2075      	movs	r0, #117	; 0x75
 1001776:	f007 feff 	bl	1009578 <RF_Write_Reg>
 100177a:	f242 0104 	movw	r1, #8196	; 0x2004
 100177e:	207d      	movs	r0, #125	; 0x7d
 1001780:	f007 fefa 	bl	1009578 <RF_Write_Reg>
 1001784:	f242 71ff 	movw	r1, #10239	; 0x27ff
 1001788:	2080      	movs	r0, #128	; 0x80
 100178a:	f007 fef5 	bl	1009578 <RF_Write_Reg>
 100178e:	f24e 314e 	movw	r1, #58190	; 0xe34e
 1001792:	2081      	movs	r0, #129	; 0x81
 1001794:	f007 fef0 	bl	1009578 <RF_Write_Reg>
 1001798:	f242 71fa 	movw	r1, #10234	; 0x27fa
 100179c:	2082      	movs	r0, #130	; 0x82
 100179e:	f007 feeb 	bl	1009578 <RF_Write_Reg>
 10017a2:	f24e 314e 	movw	r1, #58190	; 0xe34e
 10017a6:	2083      	movs	r0, #131	; 0x83
 10017a8:	f007 fee6 	bl	1009578 <RF_Write_Reg>
 10017ac:	f242 71f5 	movw	r1, #10229	; 0x27f5
 10017b0:	2084      	movs	r0, #132	; 0x84
 10017b2:	f007 fee1 	bl	1009578 <RF_Write_Reg>
 10017b6:	f24e 314e 	movw	r1, #58190	; 0xe34e
 10017ba:	2085      	movs	r0, #133	; 0x85
 10017bc:	f007 fedc 	bl	1009578 <RF_Write_Reg>
 10017c0:	f242 71f2 	movw	r1, #10226	; 0x27f2
 10017c4:	2086      	movs	r0, #134	; 0x86
 10017c6:	f007 fed7 	bl	1009578 <RF_Write_Reg>
 10017ca:	f24e 314e 	movw	r1, #58190	; 0xe34e
 10017ce:	2087      	movs	r0, #135	; 0x87
 10017d0:	f007 fed2 	bl	1009578 <RF_Write_Reg>
 10017d4:	f242 71ea 	movw	r1, #10218	; 0x27ea
 10017d8:	2088      	movs	r0, #136	; 0x88
 10017da:	f007 fecd 	bl	1009578 <RF_Write_Reg>
 10017de:	f24e 314e 	movw	r1, #58190	; 0xe34e
 10017e2:	2089      	movs	r0, #137	; 0x89
 10017e4:	f007 fec8 	bl	1009578 <RF_Write_Reg>
 10017e8:	f242 71e0 	movw	r1, #10208	; 0x27e0
 10017ec:	208a      	movs	r0, #138	; 0x8a
 10017ee:	f007 fec3 	bl	1009578 <RF_Write_Reg>
 10017f2:	f24e 314e 	movw	r1, #58190	; 0xe34e
 10017f6:	208b      	movs	r0, #139	; 0x8b
 10017f8:	f007 febe 	bl	1009578 <RF_Write_Reg>
 10017fc:	f242 71d6 	movw	r1, #10198	; 0x27d6
 1001800:	208c      	movs	r0, #140	; 0x8c
 1001802:	f007 feb9 	bl	1009578 <RF_Write_Reg>
 1001806:	f24e 314e 	movw	r1, #58190	; 0xe34e
 100180a:	208d      	movs	r0, #141	; 0x8d
 100180c:	f007 feb4 	bl	1009578 <RF_Write_Reg>
 1001810:	f242 11fb 	movw	r1, #8699	; 0x21fb
 1001814:	208e      	movs	r0, #142	; 0x8e
 1001816:	f007 feaf 	bl	1009578 <RF_Write_Reg>
 100181a:	f24e 3154 	movw	r1, #58196	; 0xe354
 100181e:	208f      	movs	r0, #143	; 0x8f
 1001820:	f007 feaa 	bl	1009578 <RF_Write_Reg>
 1001824:	f242 11ed 	movw	r1, #8685	; 0x21ed
 1001828:	2090      	movs	r0, #144	; 0x90
 100182a:	f007 fea5 	bl	1009578 <RF_Write_Reg>
 100182e:	f24e 3154 	movw	r1, #58196	; 0xe354
 1001832:	2091      	movs	r0, #145	; 0x91
 1001834:	f007 fea0 	bl	1009578 <RF_Write_Reg>
 1001838:	f242 11e0 	movw	r1, #8672	; 0x21e0
 100183c:	2092      	movs	r0, #146	; 0x92
 100183e:	f007 fe9b 	bl	1009578 <RF_Write_Reg>
 1001842:	f24e 3154 	movw	r1, #58196	; 0xe354
 1001846:	2093      	movs	r0, #147	; 0x93
 1001848:	f007 fe96 	bl	1009578 <RF_Write_Reg>
 100184c:	f242 11d6 	movw	r1, #8662	; 0x21d6
 1001850:	2094      	movs	r0, #148	; 0x94
 1001852:	f007 fe91 	bl	1009578 <RF_Write_Reg>
 1001856:	f24e 3154 	movw	r1, #58196	; 0xe354
 100185a:	2095      	movs	r0, #149	; 0x95
 100185c:	f007 fe8c 	bl	1009578 <RF_Write_Reg>
 1001860:	f242 11ca 	movw	r1, #8650	; 0x21ca
 1001864:	2096      	movs	r0, #150	; 0x96
 1001866:	f007 fe87 	bl	1009578 <RF_Write_Reg>
 100186a:	f24e 3154 	movw	r1, #58196	; 0xe354
 100186e:	2097      	movs	r0, #151	; 0x97
 1001870:	f007 fe82 	bl	1009578 <RF_Write_Reg>
 1001874:	f44f 5107 	mov.w	r1, #8640	; 0x21c0
 1001878:	2098      	movs	r0, #152	; 0x98
 100187a:	f007 fe7d 	bl	1009578 <RF_Write_Reg>
 100187e:	f24e 3154 	movw	r1, #58196	; 0xe354
 1001882:	2099      	movs	r0, #153	; 0x99
 1001884:	f007 fe78 	bl	1009578 <RF_Write_Reg>
 1001888:	f242 1196 	movw	r1, #8598	; 0x2196
 100188c:	209a      	movs	r0, #154	; 0x9a
 100188e:	f007 fe73 	bl	1009578 <RF_Write_Reg>
 1001892:	f24e 3154 	movw	r1, #58196	; 0xe354
 1001896:	209b      	movs	r0, #155	; 0x9b
 1001898:	f007 fe6e 	bl	1009578 <RF_Write_Reg>
 100189c:	f242 1190 	movw	r1, #8592	; 0x2190
 10018a0:	209c      	movs	r0, #156	; 0x9c
 10018a2:	f007 fe69 	bl	1009578 <RF_Write_Reg>
 10018a6:	f24e 3154 	movw	r1, #58196	; 0xe354
 10018aa:	209d      	movs	r0, #157	; 0x9d
 10018ac:	f007 fe64 	bl	1009578 <RF_Write_Reg>
 10018b0:	f242 118a 	movw	r1, #8586	; 0x218a
 10018b4:	209e      	movs	r0, #158	; 0x9e
 10018b6:	f007 fe5f 	bl	1009578 <RF_Write_Reg>
 10018ba:	f24e 3154 	movw	r1, #58196	; 0xe354
 10018be:	209f      	movs	r0, #159	; 0x9f
 10018c0:	f007 fe5a 	bl	1009578 <RF_Write_Reg>
 10018c4:	2108      	movs	r1, #8
 10018c6:	2060      	movs	r0, #96	; 0x60
 10018c8:	f007 fe56 	bl	1009578 <RF_Write_Reg>
 10018cc:	2100      	movs	r1, #0
 10018ce:	2060      	movs	r0, #96	; 0x60
 10018d0:	f007 fe52 	bl	1009578 <RF_Write_Reg>
 10018d4:	f01d bc4c 	b.w	101f170 <__pa_fn_0_35_11_0>
 10018d8:	41014000 	.word	0x41014000

010018dc <VCO_Coarse_Tune>:
 10018dc:	b580      	push	{r7, lr}
 10018de:	b082      	sub	sp, #8
 10018e0:	af00      	add	r7, sp, #0
 10018e2:	2108      	movs	r1, #8
 10018e4:	2060      	movs	r0, #96	; 0x60
 10018e6:	f007 fe47 	bl	1009578 <RF_Write_Reg>
 10018ea:	2300      	movs	r3, #0
 10018ec:	71fb      	strb	r3, [r7, #7]
 10018ee:	e004      	b.n	10018fa <L0^A+0xa>

010018f0 <L0^A>:
 10018f0:	f7ff fe1e 	bl	1001530 <Delay100us>
 10018f4:	79fb      	ldrb	r3, [r7, #7]
 10018f6:	3301      	adds	r3, #1
 10018f8:	71fb      	strb	r3, [r7, #7]
 10018fa:	79fb      	ldrb	r3, [r7, #7]
 10018fc:	2b04      	cmp	r3, #4
 10018fe:	d9f7      	bls.n	10018f0 <L0^A>
 1001900:	2100      	movs	r1, #0
 1001902:	2060      	movs	r0, #96	; 0x60
 1001904:	f007 fe38 	bl	1009578 <RF_Write_Reg>
 1001908:	f01d bc32 	b.w	101f170 <__pa_fn_0_35_11_0>

0100190c <Temperature_Reading>:
 100190c:	b580      	push	{r7, lr}
 100190e:	b086      	sub	sp, #24
 1001910:	af00      	add	r7, sp, #0
 1001912:	2021      	movs	r0, #33	; 0x21
 1001914:	f007 fe62 	bl	10095dc <RF_Read_RegWRet>
 1001918:	4603      	mov	r3, r0
 100191a:	82fb      	strh	r3, [r7, #22]
 100191c:	2022      	movs	r0, #34	; 0x22
 100191e:	f007 fe5d 	bl	10095dc <RF_Read_RegWRet>
 1001922:	4603      	mov	r3, r0

01001924 <L0^A>:
 1001924:	82bb      	strh	r3, [r7, #20]
 1001926:	2023      	movs	r0, #35	; 0x23
 1001928:	f007 fe58 	bl	10095dc <RF_Read_RegWRet>
 100192c:	4603      	mov	r3, r0
 100192e:	827b      	strh	r3, [r7, #18]
 1001930:	2000      	movs	r0, #0
 1001932:	f007 fe53 	bl	10095dc <RF_Read_RegWRet>
 1001936:	4603      	mov	r3, r0
 1001938:	823b      	strh	r3, [r7, #16]
 100193a:	2060      	movs	r0, #96	; 0x60
 100193c:	f007 fe4e 	bl	10095dc <RF_Read_RegWRet>
 1001940:	4603      	mov	r3, r0
 1001942:	81fb      	strh	r3, [r7, #14]
 1001944:	201a      	movs	r0, #26
 1001946:	f007 fe49 	bl	10095dc <RF_Read_RegWRet>
 100194a:	4603      	mov	r3, r0
 100194c:	81bb      	strh	r3, [r7, #12]
 100194e:	2055      	movs	r0, #85	; 0x55
 1001950:	f007 fe44 	bl	10095dc <RF_Read_RegWRet>
 1001954:	4603      	mov	r3, r0
 1001956:	817b      	strh	r3, [r7, #10]
 1001958:	2054      	movs	r0, #84	; 0x54
 100195a:	f007 fe3f 	bl	10095dc <RF_Read_RegWRet>
 100195e:	4603      	mov	r3, r0
 1001960:	813b      	strh	r3, [r7, #8]
 1001962:	2059      	movs	r0, #89	; 0x59
 1001964:	f007 fe3a 	bl	10095dc <RF_Read_RegWRet>
 1001968:	4603      	mov	r3, r0
 100196a:	80fb      	strh	r3, [r7, #6]
 100196c:	201f      	movs	r0, #31
 100196e:	f007 fe35 	bl	10095dc <RF_Read_RegWRet>
 1001972:	4603      	mov	r3, r0
 1001974:	80bb      	strh	r3, [r7, #4]
 1001976:	201d      	movs	r0, #29
 1001978:	f007 fe30 	bl	10095dc <RF_Read_RegWRet>
 100197c:	4603      	mov	r3, r0
 100197e:	807b      	strh	r3, [r7, #2]
 1001980:	4a4f      	ldr	r2, [pc, #316]	; (1001ac0 <L0^A+0x19c>)
 1001982:	4b4f      	ldr	r3, [pc, #316]	; (1001ac0 <L0^A+0x19c>)
 1001984:	f8d3 343c 	ldr.w	r3, [r3, #1084]	; 0x43c
 1001988:	f043 0308 	orr.w	r3, r3, #8
 100198c:	f8c2 343c 	str.w	r3, [r2, #1084]	; 0x43c
 1001990:	f248 1140 	movw	r1, #33088	; 0x8140
 1001994:	2021      	movs	r0, #33	; 0x21
 1001996:	f007 fdef 	bl	1009578 <RF_Write_Reg>
 100199a:	2197      	movs	r1, #151	; 0x97
 100199c:	2022      	movs	r0, #34	; 0x22
 100199e:	f007 fdeb 	bl	1009578 <RF_Write_Reg>
 10019a2:	2199      	movs	r1, #153	; 0x99
 10019a4:	2023      	movs	r0, #35	; 0x23
 10019a6:	f007 fde7 	bl	1009578 <RF_Write_Reg>
 10019aa:	2153      	movs	r1, #83	; 0x53
 10019ac:	2000      	movs	r0, #0
 10019ae:	f007 fde3 	bl	1009578 <RF_Write_Reg>
 10019b2:	2152      	movs	r1, #82	; 0x52
 10019b4:	2000      	movs	r0, #0
 10019b6:	f007 fddf 	bl	1009578 <RF_Write_Reg>
 10019ba:	2104      	movs	r1, #4
 10019bc:	2060      	movs	r0, #96	; 0x60
 10019be:	f007 fddb 	bl	1009578 <RF_Write_Reg>
 10019c2:	f248 011c 	movw	r1, #32796	; 0x801c
 10019c6:	201a      	movs	r0, #26
 10019c8:	f007 fdd6 	bl	1009578 <RF_Write_Reg>
 10019cc:	f24e 0110 	movw	r1, #57360	; 0xe010
 10019d0:	2055      	movs	r0, #85	; 0x55
 10019d2:	f007 fdd1 	bl	1009578 <RF_Write_Reg>
 10019d6:	f642 51b0 	movw	r1, #11696	; 0x2db0
 10019da:	2054      	movs	r0, #84	; 0x54
 10019dc:	f007 fdcc 	bl	1009578 <RF_Write_Reg>
 10019e0:	f248 011c 	movw	r1, #32796	; 0x801c
 10019e4:	2059      	movs	r0, #89	; 0x59
 10019e6:	f007 fdc7 	bl	1009578 <RF_Write_Reg>
 10019ea:	f640 31f8 	movw	r1, #3064	; 0xbf8
 10019ee:	201f      	movs	r0, #31
 10019f0:	f007 fdc2 	bl	1009578 <RF_Write_Reg>
 10019f4:	f64f 0120 	movw	r1, #63520	; 0xf820
 10019f8:	201d      	movs	r0, #29
 10019fa:	f007 fdbd 	bl	1009578 <RF_Write_Reg>
 10019fe:	f7ff fd97 	bl	1001530 <Delay100us>
 1001a02:	492f      	ldr	r1, [pc, #188]	; (1001ac0 <L0^A+0x19c>)
 1001a04:	4b2e      	ldr	r3, [pc, #184]	; (1001ac0 <L0^A+0x19c>)
 1001a06:	f503 53aa 	add.w	r3, r3, #5440	; 0x1540
 1001a0a:	681b      	ldr	r3, [r3, #0]
 1001a0c:	f443 7200 	orr.w	r2, r3, #512	; 0x200
 1001a10:	f501 53aa 	add.w	r3, r1, #5440	; 0x1540
 1001a14:	601a      	str	r2, [r3, #0]
 1001a16:	bf00      	nop
 1001a18:	4b29      	ldr	r3, [pc, #164]	; (1001ac0 <L0^A+0x19c>)
 1001a1a:	f503 53aa 	add.w	r3, r3, #5440	; 0x1540
 1001a1e:	681b      	ldr	r3, [r3, #0]
 1001a20:	f403 7300 	and.w	r3, r3, #512	; 0x200
 1001a24:	2b00      	cmp	r3, #0
 1001a26:	d1f7      	bne.n	1001a18 <L0^A+0xf4>
 1001a28:	4b25      	ldr	r3, [pc, #148]	; (1001ac0 <L0^A+0x19c>)
 1001a2a:	f503 53aa 	add.w	r3, r3, #5440	; 0x1540
 1001a2e:	3310      	adds	r3, #16
 1001a30:	681b      	ldr	r3, [r3, #0]
 1001a32:	0c1b      	lsrs	r3, r3, #16
 1001a34:	b29b      	uxth	r3, r3
 1001a36:	f3c3 0309 	ubfx	r3, r3, #0, #10
 1001a3a:	803b      	strh	r3, [r7, #0]
 1001a3c:	4a20      	ldr	r2, [pc, #128]	; (1001ac0 <L0^A+0x19c>)
 1001a3e:	4b20      	ldr	r3, [pc, #128]	; (1001ac0 <L0^A+0x19c>)
 1001a40:	f8d3 343c 	ldr.w	r3, [r3, #1084]	; 0x43c
 1001a44:	f023 0308 	bic.w	r3, r3, #8
 1001a48:	f8c2 343c 	str.w	r3, [r2, #1084]	; 0x43c
 1001a4c:	8afb      	ldrh	r3, [r7, #22]
 1001a4e:	4619      	mov	r1, r3
 1001a50:	2021      	movs	r0, #33	; 0x21
 1001a52:	f007 fd91 	bl	1009578 <RF_Write_Reg>
 1001a56:	8abb      	ldrh	r3, [r7, #20]
 1001a58:	4619      	mov	r1, r3
 1001a5a:	2022      	movs	r0, #34	; 0x22
 1001a5c:	f007 fd8c 	bl	1009578 <RF_Write_Reg>
 1001a60:	8a7b      	ldrh	r3, [r7, #18]
 1001a62:	4619      	mov	r1, r3
 1001a64:	2023      	movs	r0, #35	; 0x23
 1001a66:	f007 fd87 	bl	1009578 <RF_Write_Reg>
 1001a6a:	8a3b      	ldrh	r3, [r7, #16]
 1001a6c:	4619      	mov	r1, r3
 1001a6e:	2000      	movs	r0, #0
 1001a70:	f007 fd82 	bl	1009578 <RF_Write_Reg>
 1001a74:	89fb      	ldrh	r3, [r7, #14]
 1001a76:	4619      	mov	r1, r3
 1001a78:	2060      	movs	r0, #96	; 0x60
 1001a7a:	f007 fd7d 	bl	1009578 <RF_Write_Reg>
 1001a7e:	89bb      	ldrh	r3, [r7, #12]
 1001a80:	4619      	mov	r1, r3
 1001a82:	201a      	movs	r0, #26
 1001a84:	f007 fd78 	bl	1009578 <RF_Write_Reg>
 1001a88:	897b      	ldrh	r3, [r7, #10]
 1001a8a:	4619      	mov	r1, r3
 1001a8c:	2055      	movs	r0, #85	; 0x55
 1001a8e:	f007 fd73 	bl	1009578 <RF_Write_Reg>
 1001a92:	893b      	ldrh	r3, [r7, #8]
 1001a94:	4619      	mov	r1, r3
 1001a96:	2054      	movs	r0, #84	; 0x54
 1001a98:	f007 fd6e 	bl	1009578 <RF_Write_Reg>
 1001a9c:	88fb      	ldrh	r3, [r7, #6]
 1001a9e:	4619      	mov	r1, r3
 1001aa0:	2059      	movs	r0, #89	; 0x59
 1001aa2:	f007 fd69 	bl	1009578 <RF_Write_Reg>
 1001aa6:	88bb      	ldrh	r3, [r7, #4]
 1001aa8:	4619      	mov	r1, r3
 1001aaa:	201f      	movs	r0, #31
 1001aac:	f007 fd64 	bl	1009578 <RF_Write_Reg>
 1001ab0:	887b      	ldrh	r3, [r7, #2]
 1001ab2:	4619      	mov	r1, r3
 1001ab4:	201d      	movs	r0, #29
 1001ab6:	f007 fd5f 	bl	1009578 <RF_Write_Reg>
 1001aba:	883b      	ldrh	r3, [r7, #0]
 1001abc:	f01d bb50 	b.w	101f160 <__pa_fn_0_31_11_0>
 1001ac0:	41012000 	.word	0x41012000

01001ac4 <TX_Power_Compensation>:
 1001ac4:	b5b0      	push	{r4, r5, r7, lr}
 1001ac6:	b086      	sub	sp, #24
 1001ac8:	af00      	add	r7, sp, #0
 1001aca:	4603      	mov	r3, r0
 1001acc:	80fb      	strh	r3, [r7, #6]
 1001ace:	f7fe fae1 	bl	1000094 <IB_GetRoomTemperatureSAR>
 1001ad2:	4603      	mov	r3, r0
 1001ad4:	82bb      	strh	r3, [r7, #20]
 1001ad6:	8aba      	ldrh	r2, [r7, #20]
 1001ad8:	88fb      	ldrh	r3, [r7, #6]
 1001ada:	1ad3      	subs	r3, r2, r3
 1001adc:	f240 3219 	movw	r2, #793	; 0x319

01001ae0 <L0^A>:
 1001ae0:	fb02 f303 	mul.w	r3, r2, r3
 1001ae4:	141b      	asrs	r3, r3, #16
 1001ae6:	ee07 3a90 	vmov	s15, r3
 1001aea:	eef8 7ae7 	vcvt.f32.s32	s15, s15
 1001aee:	edc7 7a04 	vstr	s15, [r7, #16]
 1001af2:	4b3c      	ldr	r3, [pc, #240]	; (1001be4 <L0^A+0x104>)
 1001af4:	f503 53bb 	add.w	r3, r3, #5984	; 0x1760
 1001af8:	3308      	adds	r3, #8
 1001afa:	681b      	ldr	r3, [r3, #0]
 1001afc:	0a5b      	lsrs	r3, r3, #9
 1001afe:	b2db      	uxtb	r3, r3
 1001b00:	f003 033f 	and.w	r3, r3, #63	; 0x3f
 1001b04:	73fb      	strb	r3, [r7, #15]
 1001b06:	7bfb      	ldrb	r3, [r7, #15]
 1001b08:	4618      	mov	r0, r3
 1001b0a:	f002 ff5d 	bl	10049c8 <__aeabi_i2d>
 1001b0e:	4604      	mov	r4, r0
 1001b10:	460d      	mov	r5, r1
 1001b12:	edd7 7a04 	vldr	s15, [r7, #16]
 1001b16:	eeb3 7a04 	vmov.f32	s14, #52	; 0x41a00000  20.0
 1001b1a:	eec7 6a87 	vdiv.f32	s13, s15, s14
 1001b1e:	ee16 0a90 	vmov	r0, s13
 1001b22:	f002 ff63 	bl	10049ec <__aeabi_f2d>
 1001b26:	4602      	mov	r2, r0
 1001b28:	460b      	mov	r3, r1
 1001b2a:	ec43 2b11 	vmov	d1, r2, r3
 1001b2e:	ed9f 0b2b 	vldr	d0, [pc, #172]	; 1001bdc <L0^A+0xfc>
 1001b32:	f003 faa7 	bl	1005084 <pow>
 1001b36:	ec53 2b10 	vmov	r2, r3, d0
 1001b3a:	4620      	mov	r0, r4
 1001b3c:	4629      	mov	r1, r5
 1001b3e:	f002 f9e5 	bl	1003f0c <__aeabi_dmul>
 1001b42:	4603      	mov	r3, r0
 1001b44:	460c      	mov	r4, r1
 1001b46:	ec44 3b17 	vmov	d7, r3, r4
 1001b4a:	eeb0 0a47 	vmov.f32	s0, s14
 1001b4e:	eef0 0a67 	vmov.f32	s1, s15
 1001b52:	f00f f8c5 	bl	1010ce0 <round>
 1001b56:	ec54 3b10 	vmov	r3, r4, d0
 1001b5a:	4618      	mov	r0, r3
 1001b5c:	4621      	mov	r1, r4
 1001b5e:	f016 fd27 	bl	10185b0 <__aeabi_d2uiz>
 1001b62:	4603      	mov	r3, r0
 1001b64:	75fb      	strb	r3, [r7, #23]
 1001b66:	7dfb      	ldrb	r3, [r7, #23]
 1001b68:	2b3c      	cmp	r3, #60	; 0x3c
 1001b6a:	d902      	bls.n	1001b72 <L0^A+0x92>
 1001b6c:	233c      	movs	r3, #60	; 0x3c
 1001b6e:	75fb      	strb	r3, [r7, #23]
 1001b70:	e004      	b.n	1001b7c <L0^A+0x9c>
 1001b72:	7dfb      	ldrb	r3, [r7, #23]
 1001b74:	2b1d      	cmp	r3, #29
 1001b76:	d801      	bhi.n	1001b7c <L0^A+0x9c>
 1001b78:	231e      	movs	r3, #30
 1001b7a:	75fb      	strb	r3, [r7, #23]
 1001b7c:	4919      	ldr	r1, [pc, #100]	; (1001be4 <L0^A+0x104>)
 1001b7e:	4b19      	ldr	r3, [pc, #100]	; (1001be4 <L0^A+0x104>)
 1001b80:	f503 53bb 	add.w	r3, r3, #5984	; 0x1760
 1001b84:	3308      	adds	r3, #8
 1001b86:	681b      	ldr	r3, [r3, #0]
 1001b88:	f423 42fc 	bic.w	r2, r3, #32256	; 0x7e00
 1001b8c:	f501 53bb 	add.w	r3, r1, #5984	; 0x1760
 1001b90:	3308      	adds	r3, #8
 1001b92:	601a      	str	r2, [r3, #0]
 1001b94:	4913      	ldr	r1, [pc, #76]	; (1001be4 <L0^A+0x104>)
 1001b96:	4b13      	ldr	r3, [pc, #76]	; (1001be4 <L0^A+0x104>)
 1001b98:	f503 53bb 	add.w	r3, r3, #5984	; 0x1760
 1001b9c:	3308      	adds	r3, #8
 1001b9e:	681a      	ldr	r2, [r3, #0]
 1001ba0:	7dfb      	ldrb	r3, [r7, #23]
 1001ba2:	025b      	lsls	r3, r3, #9
 1001ba4:	f403 43fc 	and.w	r3, r3, #32256	; 0x7e00
 1001ba8:	431a      	orrs	r2, r3
 1001baa:	f501 53bb 	add.w	r3, r1, #5984	; 0x1760
 1001bae:	3308      	adds	r3, #8
 1001bb0:	601a      	str	r2, [r3, #0]
 1001bb2:	490d      	ldr	r1, [pc, #52]	; (1001be8 <L0^A+0x108>)
 1001bb4:	4b0c      	ldr	r3, [pc, #48]	; (1001be8 <L0^A+0x108>)
 1001bb6:	f893 30a0 	ldrb.w	r3, [r3, #160]	; 0xa0
 1001bba:	b2db      	uxtb	r3, r3
 1001bbc:	b25b      	sxtb	r3, r3
 1001bbe:	f023 033f 	bic.w	r3, r3, #63	; 0x3f
 1001bc2:	b25a      	sxtb	r2, r3
 1001bc4:	f997 3017 	ldrsb.w	r3, [r7, #23]
 1001bc8:	4313      	orrs	r3, r2
 1001bca:	b25b      	sxtb	r3, r3
 1001bcc:	b2db      	uxtb	r3, r3
 1001bce:	f881 30a0 	strb.w	r3, [r1, #160]	; 0xa0
 1001bd2:	bf00      	nop
 1001bd4:	3718      	adds	r7, #24
 1001bd6:	46bd      	mov	sp, r7
 1001bd8:	bdb0      	pop	{r4, r5, r7, pc}
 1001bda:	bf00      	nop
 1001bdc:	00000000 	.word	0x00000000
 1001be0:	40240000 	.word	0x40240000
 1001be4:	41012000 	.word	0x41012000
 1001be8:	41010000 	.word	0x41010000

01001bec <RSSI_ED_Compensation>:
 1001bec:	b580      	push	{r7, lr}
 1001bee:	b084      	sub	sp, #16
 1001bf0:	af00      	add	r7, sp, #0
 1001bf2:	4603      	mov	r3, r0
 1001bf4:	80fb      	strh	r3, [r7, #6]
 1001bf6:	88fb      	ldrh	r3, [r7, #6]
 1001bf8:	4a16      	ldr	r2, [pc, #88]	; (1001c54 <L0^A+0x4c>)
 1001bfa:	fb02 f303 	mul.w	r3, r2, r3
 1001bfe:	4a16      	ldr	r2, [pc, #88]	; (1001c58 <L0^A+0x50>)
 1001c00:	fb82 1203 	smull	r1, r2, r2, r3
 1001c04:	441a      	add	r2, r3
 1001c06:	13d2      	asrs	r2, r2, #15

01001c08 <L0^A>:
 1001c08:	17db      	asrs	r3, r3, #31
 1001c0a:	1ad3      	subs	r3, r2, r3
 1001c0c:	f203 1379 	addw	r3, r3, #377	; 0x179
 1001c10:	60fb      	str	r3, [r7, #12]
 1001c12:	f7fe fa47 	bl	10000a4 <IB_GetRssiOffset>
 1001c16:	4603      	mov	r3, r0
 1001c18:	72fb      	strb	r3, [r7, #11]
 1001c1a:	68fb      	ldr	r3, [r7, #12]
 1001c1c:	2b50      	cmp	r3, #80	; 0x50
 1001c1e:	dd03      	ble.n	1001c28 <L0^A+0x20>
 1001c20:	7afb      	ldrb	r3, [r7, #11]
 1001c22:	3b02      	subs	r3, #2
 1001c24:	b2db      	uxtb	r3, r3
 1001c26:	e000      	b.n	1001c2a <L0^A+0x22>
 1001c28:	7afb      	ldrb	r3, [r7, #11]
 1001c2a:	72bb      	strb	r3, [r7, #10]
 1001c2c:	490b      	ldr	r1, [pc, #44]	; (1001c5c <L0^A+0x54>)
 1001c2e:	4b0b      	ldr	r3, [pc, #44]	; (1001c5c <L0^A+0x54>)
 1001c30:	f893 30a4 	ldrb.w	r3, [r3, #164]	; 0xa4
 1001c34:	b2db      	uxtb	r3, r3
 1001c36:	b25b      	sxtb	r3, r3
 1001c38:	f023 031f 	bic.w	r3, r3, #31
 1001c3c:	b25a      	sxtb	r2, r3
 1001c3e:	f997 300a 	ldrsb.w	r3, [r7, #10]
 1001c42:	4313      	orrs	r3, r2
 1001c44:	b25b      	sxtb	r3, r3
 1001c46:	b2db      	uxtb	r3, r3
 1001c48:	f881 30a4 	strb.w	r3, [r1, #164]	; 0xa4
 1001c4c:	bf00      	nop
 1001c4e:	3710      	adds	r7, #16
 1001c50:	46bd      	mov	sp, r7
 1001c52:	bd80      	pop	{r7, pc}
 1001c54:	ffffad80 	.word	0xffffad80
 1001c58:	f06fe211 	.word	0xf06fe211
 1001c5c:	41010000 	.word	0x41010000

01001c60 <RF_Timer_Cal>:
 1001c60:	b580      	push	{r7, lr}
 1001c62:	b082      	sub	sp, #8
 1001c64:	af00      	add	r7, sp, #0
 1001c66:	f7ff fe39 	bl	10018dc <VCO_Coarse_Tune>
 1001c6a:	f7ff fe4f 	bl	100190c <Temperature_Reading>
 1001c6e:	4603      	mov	r3, r0
 1001c70:	80fb      	strh	r3, [r7, #6]
 1001c72:	88fb      	ldrh	r3, [r7, #6]
 1001c74:	4618      	mov	r0, r3
 1001c76:	f7ff ff25 	bl	1001ac4 <TX_Power_Compensation>
 1001c7a:	88fb      	ldrh	r3, [r7, #6]

01001c7c <L0^A>:
 1001c7c:	4618      	mov	r0, r3
 1001c7e:	f7ff ffb5 	bl	1001bec <RSSI_ED_Compensation>
 1001c82:	f01d ba75 	b.w	101f170 <__pa_fn_0_35_11_0>

01001c86 <RF_SYS_Initialize>:
 1001c86:	b580      	push	{r7, lr}
 1001c88:	af00      	add	r7, sp, #0
 1001c8a:	f7ff fc88 	bl	100159e <aclb_initial_settings>
 1001c8e:	f7ff fb83 	bl	1001398 <bt_modem_common_setup>
 1001c92:	f7fe fe93 	bl	10009bc <InformationBlockLoad>
 1001c96:	f7ff fe21 	bl	10018dc <VCO_Coarse_Tune>
 1001c9a:	f04f 4388 	mov.w	r3, #1140850688	; 0x44000000
 1001c9e:	4a08      	ldr	r2, [pc, #32]	; (1001cc0 <L0^A+0x1a>)
 1001ca0:	651a      	str	r2, [r3, #80]	; 0x50
 1001ca2:	4b08      	ldr	r3, [pc, #32]	; (1001cc4 <L0^A+0x1e>)
 1001ca4:	Address 0x01001ca4 is out of bounds.


01001ca6 <L0^A>:
 1001ca6:	4271      	negs	r1, r6
 1001ca8:	609a      	str	r2, [r3, #8]
 1001caa:	4b06      	ldr	r3, [pc, #24]	; (1001cc4 <L0^A+0x1e>)
 1001cac:	2280      	movs	r2, #128	; 0x80
 1001cae:	619a      	str	r2, [r3, #24]
 1001cb0:	4b04      	ldr	r3, [pc, #16]	; (1001cc4 <L0^A+0x1e>)
 1001cb2:	2213      	movs	r2, #19
 1001cb4:	601a      	str	r2, [r3, #0]
 1001cb6:	4b03      	ldr	r3, [pc, #12]	; (1001cc4 <L0^A+0x1e>)
 1001cb8:	2240      	movs	r2, #64	; 0x40
 1001cba:	60da      	str	r2, [r3, #12]
 1001cbc:	bf00      	nop
 1001cbe:	bd80      	pop	{r7, pc}
 1001cc0:	e040004c 	.word	0xe040004c
 1001cc4:	41011000 	.word	0x41011000

Disassembly of section .text.ble_lm_AdvExtPrepDescForExtSAdvEvt%88:

01001cc8 <ble_lm_AdvExtPrepDescForExtSAdvEvt>:
 1001cc8:	e92d 4ff0 	stmdb	sp!, {r4, r5, r6, r7, r8, r9, sl, fp, lr}

01001ccc <.LCFI38>:
 1001ccc:	b091      	sub	sp, #68	; 0x44

01001cce <.LCFI39>:
 1001cce:	f01d f9f7 	bl	101f0c0 <__pa_fn_0_6d_01_0>

01001cd2 <.LVL518>:
 1001cd2:	4699      	mov	r9, r3
 1001cd4:	9304      	str	r3, [sp, #16]
 1001cd6:	9907      	ldr	r1, [sp, #28]
 1001cd8:	40d9      	lsrs	r1, r3

01001cda <.LVL519>:
 1001cda:	07c9      	lsls	r1, r1, #31
 1001cdc:	b2da      	uxtb	r2, r3
 1001cde:	bf48      	it	mi
 1001ce0:	Address 0x01001ce0 is out of bounds.


01001ce2 <.LVL520>:
 1001ce2:	0901      	lsrs	r1, r0, #4
 1001ce4:	f103 0301 	add.w	r3, r3, #1

01001ce8 <.LVL521>:
 1001ce8:	bf44      	itt	mi
 1001cea:	fa5f f989 	uxtbmi.w	r9, r9
 1001cee:	9204      	strmi	r2, [sp, #16]
 1001cf0:	2b03      	cmp	r3, #3

01001cf2 <.LVL522>:
 1001cf2:	d1f0      	bne.n	1001cd6 <.LVL518+0x4>

01001cf4 <.LVL523>:
 1001cf4:	f8b5 307a 	ldrh.w	r3, [r5, #122]	; 0x7a

01001cf8 <.LVL524>:
 1001cf8:	2700      	movs	r7, #0
 1001cfa:	2b00      	cmp	r3, #0
 1001cfc:	f000 8088 	beq.w	1001e10 <.LVL555+0x2>
 1001d00:	230b      	movs	r3, #11
 1001d02:	2601      	movs	r6, #1
 1001d04:	a90b      	add	r1, sp, #44	; 0x2c
 1001d06:	f01b ff77 	bl	101dbf8 <__pa_fn_0_6f_01_0>
 1001d0a:	Address 0x01001d0a is out of bounds.


01001d0c <.LVL525>:
 1001d0c:	fabc a90b 			; <UNDEFINED> instruction: 0xfabca90b
 1001d10:	a80a      	add	r0, sp, #40	; 0x28
 1001d12:	f012 ff49 	bl	1014ba8 <BLE_LM_AdvExtCalAdvDataLenOfPkt>
 1001d16:	a90b      	add	r1, sp, #44	; 0x2c
 1001d18:	4680      	mov	r8, r0
 1001d1a:	a80a      	add	r0, sp, #40	; 0x28
 1001d1c:	f88d 6031 	strb.w	r6, [sp, #49]	; 0x31
 1001d20:	Address 0x01001d20 is out of bounds.


01001d22 <.LVL526>:
 1001d22:	fab1 a90b 			; <UNDEFINED> instruction: 0xfab1a90b
 1001d26:	a80a      	add	r0, sp, #40	; 0x28
 1001d28:	Address 0x01001d28 is out of bounds.


01001d2a <.LVL527>:
 1001d2a:	ff3e 230d 	vcgt.u<illegal width 64>	d2, d14, d13

01001d2e <.LVL528>:
 1001d2e:	9003      	str	r0, [sp, #12]
 1001d30:	a90b      	add	r1, sp, #44	; 0x2c
 1001d32:	f01b ff61 	bl	101dbf8 <__pa_fn_0_6f_01_0>
 1001d36:	Address 0x01001d36 is out of bounds.


01001d38 <.LVL529>:
 1001d38:	faa6 a90b 			; <UNDEFINED> instruction: 0xfaa6a90b
 1001d3c:	a80a      	add	r0, sp, #40	; 0x28
 1001d3e:	Address 0x01001d3e is out of bounds.


01001d40 <.LVL530>:
 1001d40:	ff33 a90b 	vmls.i<illegal width 64>	d10, d3, d11

01001d44 <.LVL531>:
 1001d44:	4604      	mov	r4, r0
 1001d46:	a80a      	add	r0, sp, #40	; 0x28
 1001d48:	f88d 6031 	strb.w	r6, [sp, #49]	; 0x31
 1001d4c:	f004 fa9b 	bl	1006286 <BLE_LM_AdvExtSetExtHdFlags>
 1001d50:	a90b      	add	r1, sp, #44	; 0x2c
 1001d52:	a80a      	add	r0, sp, #40	; 0x28
 1001d54:	f012 ff28 	bl	1014ba8 <BLE_LM_AdvExtCalAdvDataLenOfPkt>
 1001d58:	f8b5 307a 	ldrh.w	r3, [r5, #122]	; 0x7a
 1001d5c:	9002      	str	r0, [sp, #8]

01001d5e <.LVL532>:
 1001d5e:	fa1f f888 	uxth.w	r8, r8
 1001d62:	4543      	cmp	r3, r8
 1001d64:	d90c      	bls.n	1001d80 <.LVL536+0x4>

01001d66 <.LVL533>:
 1001d66:	9a03      	ldr	r2, [sp, #12]
 1001d68:	1a9b      	subs	r3, r3, r2

01001d6a <.LVL534>:
 1001d6a:	b29b      	uxth	r3, r3
 1001d6c:	b2a4      	uxth	r4, r4
 1001d6e:	3701      	adds	r7, #1
 1001d70:	42a3      	cmp	r3, r4
 1001d72:	b2ff      	uxtb	r7, r7

01001d74 <.LVL535>:
 1001d74:	d904      	bls.n	1001d80 <.LVL536+0x4>
 1001d76:	9a02      	ldr	r2, [sp, #8]
 1001d78:	1a9b      	subs	r3, r3, r2
 1001d7a:	b29b      	uxth	r3, r3

01001d7c <.LVL536>:
 1001d7c:	2b00      	cmp	r3, #0
 1001d7e:	d1f6      	bne.n	1001d6e <.LVL534+0x4>
 1001d80:	Address 0x01001d80 is out of bounds.


01001d82 <.LVL537>:
 1001d82:	0603      	lsls	r3, r0, #24
 1001d84:	443e      	add	r6, r7

01001d86 <.LVL538>:
 1001d86:	0130      	lsls	r0, r6, #4
 1001d88:	3004      	adds	r0, #4
 1001d8a:	f00a f995 	bl	100c0b8 <BT_SYS_CmMemAlloc>
 1001d8e:	b283      	uxth	r3, r0

01001d90 <.LVL539>:
 1001d90:	4604      	mov	r4, r0

01001d92 <.LVL540>:
 1001d92:	b903      	cbnz	r3, 1001d96 <.LVL541+0x2>

01001d94 <.LVL541>:
 1001d94:	3404      	adds	r4, #4
 1001d96:	Address 0x01001d96 is out of bounds.


01001d98 <.LVL542>:
 1001d98:	0002      	movs	r2, r0
 1001d9a:	f04f 0842 	mov.w	r8, #66	; 0x42

01001d9e <.LVL543>:
 1001d9e:	4438      	add	r0, r7

01001da0 <.LVL544>:
 1001da0:	fb08 f000 	mul.w	r0, r8, r0

01001da4 <.LVL545>:
 1001da4:	f00a f988 	bl	100c0b8 <BT_SYS_CmMemAlloc>
 1001da8:	f8c5 00b0 	str.w	r0, [r5, #176]	; 0xb0
 1001dac:	4640      	mov	r0, r8
 1001dae:	f00a f983 	bl	100c0b8 <BT_SYS_CmMemAlloc>

01001db2 <.LVL546>:
 1001db2:	f8c5 00ac 	str.w	r0, [r5, #172]	; 0xac

01001db6 <.LVL547>:
 1001db6:	20ff      	movs	r0, #255	; 0xff
 1001db8:	Address 0x01001db8 is out of bounds.


01001dba <.LVL548>:
 1001dba:	f97e f8c5 	ldr??.w	pc, [lr, <undefined>]
 1001dbe:	00a8      	lsls	r0, r5, #2
 1001dc0:	2028      	movs	r0, #40	; 0x28
 1001dc2:	4370      	muls	r0, r6
 1001dc4:	f01d fa51 	bl	101f26a <BT_SYS_MemAlloc>
 1001dc8:	4606      	mov	r6, r0
 1001dca:	b15c      	cbz	r4, 1001de4 <.LVL551+0x4>

01001dcc <.LVL549>:
 1001dcc:	f8d5 30b0 	ldr.w	r3, [r5, #176]	; 0xb0
 1001dd0:	b143      	cbz	r3, 1001de4 <.LVL551+0x4>
 1001dd2:	f8d5 20ac 	ldr.w	r2, [r5, #172]	; 0xac

01001dd6 <.LVL550>:
 1001dd6:	b12a      	cbz	r2, 1001de4 <.LVL551+0x4>
 1001dd8:	f8d5 20a8 	ldr.w	r2, [r5, #168]	; 0xa8
 1001ddc:	b112      	cbz	r2, 1001de4 <.LVL551+0x4>
 1001dde:	2800      	cmp	r0, #0

01001de0 <.LVL551>:
 1001de0:	f040 82e1 	bne.w	10023a6 <.LVL649+0x72>
 1001de4:	4620      	mov	r0, r4
 1001de6:	f013 f931 	bl	101504c <BT_SYS_CmMemFree>
 1001dea:	Address 0x01001dea is out of bounds.


01001dec <.LVL552>:
 1001dec:	00b0      	lsls	r0, r6, #2

01001dee <.LVL553>:
 1001dee:	f013 f92d 	bl	101504c <BT_SYS_CmMemFree>
 1001df2:	f8d5 00ac 	ldr.w	r0, [r5, #172]	; 0xac
 1001df6:	f013 f929 	bl	101504c <BT_SYS_CmMemFree>
 1001dfa:	f8d5 00a8 	ldr.w	r0, [r5, #168]	; 0xa8
 1001dfe:	f013 f925 	bl	101504c <BT_SYS_CmMemFree>
 1001e02:	4630      	mov	r0, r6
 1001e04:	f01d fa33 	bl	101f26e <BT_SYS_MemFree>
 1001e08:	2007      	movs	r0, #7

01001e0a <.LVL554>:
 1001e0a:	b011      	add	sp, #68	; 0x44
 1001e0c:	Address 0x01001e0c is out of bounds.


01001e0e <.LVL555>:
 1001e0e:	8ff0      	ldrh	r0, [r6, #62]	; 0x3e
 1001e10:	9302      	str	r3, [sp, #8]
 1001e12:	461f      	mov	r7, r3
 1001e14:	e7b4      	b.n	1001d80 <.LVL536+0x4>

01001e16 <.LVL556>:
 1001e16:	9a01      	ldr	r2, [sp, #4]
 1001e18:	3284      	adds	r2, #132	; 0x84
 1001e1a:	9200      	str	r2, [sp, #0]
 1001e1c:	Address 0x01001e1c is out of bounds.


01001e1e <.LVL557>:
 1001e1e:	0b00      	lsrs	r0, r0, #12
 1001e20:	6fea      	ldr	r2, [r5, #124]	; 0x7c
 1001e22:	9206      	str	r2, [sp, #24]
 1001e24:	469a      	mov	sl, r3

01001e26 <.LVL558>:
 1001e26:	46d8      	mov	r8, fp
 1001e28:	465b      	mov	r3, fp
 1001e2a:	9a07      	ldr	r2, [sp, #28]

01001e2c <.LVL559>:
 1001e2c:	Address 0x01001e2c is out of bounds.


01001e2e <.LVL560>:
 1001e2e:	Address 0x01001e2e is out of bounds.


01001e30 <.LCFI40>:
 1001e30:	07d2      	lsls	r2, r2, #31
 1001e32:	Address 0x01001e32 is out of bounds.


01001e34 <.LCFI41>:
 1001e34:	806d      	strh	r5, [r5, #2]
 1001e36:	f01c f9ab 	bl	101e190 <__pa_fn_0_b_01_0>

01001e3a <.LVL562>:
 1001e3a:	Address 0x01001e3a is out of bounds.


01001e3c <.LVL563>:
 1001e3c:	22ce      	movs	r2, #206	; 0xce
 1001e3e:	4621      	mov	r1, r4

01001e40 <.LVL564>:
 1001e40:	a80b      	add	r0, sp, #44	; 0x2c
 1001e42:	f841 2b10 	str.w	r2, [r1], #16
 1001e46:	9108      	str	r1, [sp, #32]

01001e48 <.LVL565>:
 1001e48:	6822      	ldr	r2, [r4, #0]
 1001e4a:	f8bd 1020 	ldrh.w	r1, [sp, #32]

01001e4e <.LVL566>:
 1001e4e:	f361 32de 	bfi	r2, r1, #15, #16
 1001e52:	6022      	str	r2, [r4, #0]
 1001e54:	f01b fa0d 	bl	101d272 <__pa_fn_0_d_01_0>
 1001e58:	6861      	ldr	r1, [r4, #4]
 1001e5a:	fa1f f28a 	uxth.w	r2, sl
 1001e5e:	f01c fd36 	bl	101e8ce <__pa_fn_0_5c_01_0>
 1001e62:	6062      	str	r2, [r4, #4]
 1001e64:	f04f 0201 	mov.w	r2, #1
 1001e68:	f88d 2032 	strb.w	r2, [sp, #50]	; 0x32
 1001e6c:	f88d 2031 	strb.w	r2, [sp, #49]	; 0x31
 1001e70:	4651      	mov	r1, sl
 1001e72:	2209      	movs	r2, #9
 1001e74:	f88d 2030 	strb.w	r2, [sp, #48]	; 0x30
 1001e78:	f88d 3033 	strb.w	r3, [sp, #51]	; 0x33
 1001e7c:	f88d 3034 	strb.w	r3, [sp, #52]	; 0x34
 1001e80:	9309      	str	r3, [sp, #36]	; 0x24
 1001e82:	950b      	str	r5, [sp, #44]	; 0x2c
 1001e84:	f003 fbb8 	bl	10055f8 <BLE_LM_AdvExtPrepAdvPduHd>
 1001e88:	9b09      	ldr	r3, [sp, #36]	; 0x24
 1001e8a:	7233      	strb	r3, [r6, #8]
 1001e8c:	6173      	str	r3, [r6, #20]
 1001e8e:	f886 3024 	strb.w	r3, [r6, #36]	; 0x24
 1001e92:	60f4      	str	r4, [r6, #12]
 1001e94:	4631      	mov	r1, r6
 1001e96:	f505 70b0 	add.w	r0, r5, #352	; 0x160
 1001e9a:	f8c6 a010 	str.w	sl, [r6, #16]
 1001e9e:	f8c6 801c 	str.w	r8, [r6, #28]
 1001ea2:	f8c6 8020 	str.w	r8, [r6, #32]
 1001ea6:	f01d f9ce 	bl	101f246 <BLE_LM_AdvMainInsertDescToDescList>
 1001eaa:	f01c fd56 	bl	101e95a <__pa_fn_0_71_01_0>
 1001eae:	f017 fce1 	bl	1019874 <BLE_LM_AdvMainCalPktBw>
 1001eb2:	f109 39ff 	add.w	r9, r9, #4294967295
 1001eb6:	f895 2029 	ldrb.w	r2, [r5, #41]	; 0x29
 1001eba:	9b09      	ldr	r3, [sp, #36]	; 0x24
 1001ebc:	f88d 3038 	strb.w	r3, [sp, #56]	; 0x38
 1001ec0:	fa5f f989 	uxtb.w	r9, r9
 1001ec4:	3a01      	subs	r2, #1
 1001ec6:	f1b9 0f01 	cmp.w	r9, #1
 1001eca:	4604      	mov	r4, r0
 1001ecc:	f88d 2039 	strb.w	r2, [sp, #57]	; 0x39
 1001ed0:	f000 81a3 	beq.w	100221a <.LVL607+0x24>
 1001ed4:	f0c0 81a5 	bcc.w	1002222 <.LVL607+0x2c>
 1001ed8:	f1b9 0f02 	cmp.w	r9, #2
 1001edc:	d104      	bne.n	1001ee8 <.LVL567+0x4>
 1001ede:	eb00 0240 	add.w	r2, r0, r0, lsl #1
 1001ee2:	Address 0x01001ee2 is out of bounds.


01001ee4 <.LVL567>:
 1001ee4:	722e      	strb	r6, [r5, #8]
 1001ee6:	920f      	str	r2, [sp, #60]	; 0x3c
 1001ee8:	4631      	mov	r1, r6
 1001eea:	a80e      	add	r0, sp, #56	; 0x38
 1001eec:	9309      	str	r3, [sp, #36]	; 0x24
 1001eee:	f010 f829 	bl	1011f44 <BLE_LM_AdvExtPrepAuxPtr>
 1001ef2:	9b04      	ldr	r3, [sp, #16]
 1001ef4:	fa5f f28b 	uxtb.w	r2, fp
 1001ef8:	4293      	cmp	r3, r2
 1001efa:	bf0c      	ite	eq
 1001efc:	f508 78d8 	addeq.w	r8, r8, #432	; 0x1b0
 1001f00:	f108 0884 	addne.w	r8, r8, #132	; 0x84
 1001f04:	44a0      	add	r8, r4

01001f06 <.LVL568>:
 1001f06:	9b09      	ldr	r3, [sp, #36]	; 0x24
 1001f08:	9c08      	ldr	r4, [sp, #32]
 1001f0a:	3628      	adds	r6, #40	; 0x28
 1001f0c:	f10a 0a42 	add.w	sl, sl, #66	; 0x42
 1001f10:	f10b 0b01 	add.w	fp, fp, #1
 1001f14:	Address 0x01001f14 is out of bounds.


01001f16 <.LVL569>:
 1001f16:	0f03      	lsrs	r3, r0, #28
 1001f18:	Address 0x01001f18 is out of bounds.


01001f1a <.LVL570>:
 1001f1a:	af87      	add	r7, sp, #540	; 0x21c
 1001f1c:	6823      	ldr	r3, [r4, #0]
 1001f1e:	f01b fe60 	bl	101dbe2 <__pa_fn_0_4f_01_0>
 1001f22:	f04f 0a04 	mov.w	sl, #4
 1001f26:	Address 0x01001f26 is out of bounds.


01001f28 <.LVL571>:
 1001f28:	13ca      	asrs	r2, r1, #15
 1001f2a:	6023      	str	r3, [r4, #0]
 1001f2c:	6823      	ldr	r3, [r4, #0]
 1001f2e:	46a1      	mov	r9, r4

01001f30 <.LVL572>:
 1001f30:	f36a 23ce 	bfi	r3, sl, #11, #4
 1001f34:	f01b fa05 	bl	101d342 <__pa_fn_0_73_01_0>
 1001f38:	68a3      	ldr	r3, [r4, #8]
 1001f3a:	2201      	movs	r2, #1
 1001f3c:	f362 0301 	bfi	r3, r2, #0, #2
 1001f40:	60a3      	str	r3, [r4, #8]
 1001f42:	68a3      	ldr	r3, [r4, #8]
 1001f44:	ea43 030a 	orr.w	r3, r3, sl
 1001f48:	60a3      	str	r3, [r4, #8]
 1001f4a:	68a3      	ldr	r3, [r4, #8]
 1001f4c:	f36f 03c8 	bfc	r3, #3, #6

01001f50 <.LVL573>:
 1001f50:	60a3      	str	r3, [r4, #8]
 1001f52:	6861      	ldr	r1, [r4, #4]
 1001f54:	Address 0x01001f54 is out of bounds.


01001f56 <.LVL574>:
 1001f56:	3004      	adds	r0, #4
 1001f58:	f363 010f 	bfi	r1, r3, #0, #16
 1001f5c:	6061      	str	r1, [r4, #4]
 1001f5e:	6863      	ldr	r3, [r4, #4]
 1001f60:	f36f 431f 	bfc	r3, #16, #16

01001f64 <.LVL575>:
 1001f64:	6063      	str	r3, [r4, #4]
 1001f66:	f04f 0b00 	mov.w	fp, #0
 1001f6a:	230a      	movs	r3, #10
 1001f6c:	9901      	ldr	r1, [sp, #4]

01001f6e <.LVL576>:
 1001f6e:	Address 0x01001f6e is out of bounds.


01001f70 <.LVL577>:
 1001f70:	2032      	movs	r0, #50	; 0x32
 1001f72:	a80b      	add	r0, sp, #44	; 0x2c

01001f74 <.LVL578>:
 1001f74:	f88d 3030 	strb.w	r3, [sp, #48]	; 0x30

01001f78 <.LVL579>:
 1001f78:	950b      	str	r5, [sp, #44]	; 0x2c
 1001f7a:	f88d b031 	strb.w	fp, [sp, #49]	; 0x31
 1001f7e:	Address 0x01001f7e is out of bounds.


01001f80 <.LVL580>:
 1001f80:	b033      	add	sp, #204	; 0xcc
 1001f82:	f88d b034 	strb.w	fp, [sp, #52]	; 0x34
 1001f86:	f003 fb37 	bl	10055f8 <BLE_LM_AdvExtPrepAdvPduHd>
 1001f8a:	9b01      	ldr	r3, [sp, #4]
 1001f8c:	60f4      	str	r4, [r6, #12]
 1001f8e:	f886 b008 	strb.w	fp, [r6, #8]
 1001f92:	6133      	str	r3, [r6, #16]
 1001f94:	6f2b      	ldr	r3, [r5, #112]	; 0x70
 1001f96:	6173      	str	r3, [r6, #20]
 1001f98:	Address 0x01001f98 is out of bounds.


01001f9a <.LVL581>:
 1001f9a:	73b0      	strb	r0, [r6, #14]
 1001f9c:	4618      	mov	r0, r3
 1001f9e:	f8c6 801c 	str.w	r8, [r6, #28]
 1001fa2:	Address 0x01001fa2 is out of bounds.


01001fa4 <.LVL582>:
 1001fa4:	8020      	strh	r0, [r4, #0]
 1001fa6:	4631      	mov	r1, r6
 1001fa8:	f886 b024 	strb.w	fp, [r6, #36]	; 0x24
 1001fac:	9304      	str	r3, [sp, #16]
 1001fae:	f01d f94a 	bl	101f246 <BLE_LM_AdvMainInsertDescToDescList>
 1001fb2:	f01c fc5b 	bl	101e86c <__pa_fn_0_2a_01_0>
 1001fb6:	f017 fc5d 	bl	1019874 <BLE_LM_AdvMainCalPktBw>
 1001fba:	6923      	ldr	r3, [r4, #16]
 1001fbc:	2205      	movs	r2, #5
 1001fbe:	f362 0302 	bfi	r3, r2, #0, #3
 1001fc2:	6123      	str	r3, [r4, #16]
 1001fc4:	6923      	ldr	r3, [r4, #16]
 1001fc6:	f895 1029 	ldrb.w	r1, [r5, #41]	; 0x29
 1001fca:	f361 03c4 	bfi	r3, r1, #3, #2
 1001fce:	6123      	str	r3, [r4, #16]
 1001fd0:	6923      	ldr	r3, [r4, #16]
 1001fd2:	f36a 13ca 	bfi	r3, sl, #7, #4
 1001fd6:	6123      	str	r3, [r4, #16]
 1001fd8:	6923      	ldr	r3, [r4, #16]
 1001fda:	f36a 23ce 	bfi	r3, sl, #11, #4
 1001fde:	6123      	str	r3, [r4, #16]
 1001fe0:	6923      	ldr	r3, [r4, #16]
 1001fe2:	f36b 33de 	bfi	r3, fp, #15, #16
 1001fe6:	6123      	str	r3, [r4, #16]
 1001fe8:	6963      	ldr	r3, [r4, #20]
 1001fea:	f8b5 10ac 	ldrh.w	r1, [r5, #172]	; 0xac
 1001fee:	f361 030f 	bfi	r3, r1, #0, #16
 1001ff2:	6163      	str	r3, [r4, #20]
 1001ff4:	6963      	ldr	r3, [r4, #20]
 1001ff6:	f8b5 10a8 	ldrh.w	r1, [r5, #168]	; 0xa8
 1001ffa:	f361 431f 	bfi	r3, r1, #16, #16
 1001ffe:	6163      	str	r3, [r4, #20]
 1002000:	69a3      	ldr	r3, [r4, #24]
 1002002:	2102      	movs	r1, #2
 1002004:	f361 0301 	bfi	r3, r1, #0, #2
 1002008:	61a3      	str	r3, [r4, #24]
 100200a:	69a3      	ldr	r3, [r4, #24]
 100200c:	ea43 030a 	orr.w	r3, r3, sl
 1002010:	61a3      	str	r3, [r4, #24]

01002012 <.LVL583>:
 1002012:	f104 0320 	add.w	r3, r4, #32
 1002016:	9307      	str	r3, [sp, #28]
 1002018:	69a3      	ldr	r3, [r4, #24]
 100201a:	f8bd 101c 	ldrh.w	r1, [sp, #28]
 100201e:	f361 2358 	bfi	r3, r1, #9, #16
 1002022:	61a3      	str	r3, [r4, #24]
 1002024:	69a3      	ldr	r3, [r4, #24]
 1002026:	f36b 635a 	bfi	r3, fp, #25, #2
 100202a:	61a3      	str	r3, [r4, #24]
 100202c:	f886 2030 	strb.w	r2, [r6, #48]	; 0x30
 1002030:	f8c6 9034 	str.w	r9, [r6, #52]	; 0x34
 1002034:	f8d5 30ac 	ldr.w	r3, [r5, #172]	; 0xac
 1002038:	63b3      	str	r3, [r6, #56]	; 0x38

0100203a <.LVL584>:
 100203a:	4480      	add	r8, r0
 100203c:	f8d5 30a8 	ldr.w	r3, [r5, #168]	; 0xa8
 1002040:	63f3      	str	r3, [r6, #60]	; 0x3c
 1002042:	f108 0870 	add.w	r8, r8, #112	; 0x70
 1002046:	f106 0128 	add.w	r1, r6, #40	; 0x28

0100204a <.LVL585>:
 100204a:	9804      	ldr	r0, [sp, #16]
 100204c:	f8c6 8044 	str.w	r8, [r6, #68]	; 0x44
 1002050:	f8c6 8048 	str.w	r8, [r6, #72]	; 0x48
 1002054:	f886 b04c 	strb.w	fp, [r6, #76]	; 0x4c
 1002058:	f01d f8f5 	bl	101f246 <BLE_LM_AdvMainInsertDescToDescList>
 100205c:	f106 0350 	add.w	r3, r6, #80	; 0x50
 1002060:	220c      	movs	r2, #12
 1002062:	f895 103b 	ldrb.w	r1, [r5, #59]	; 0x3b
 1002066:	f895 0029 	ldrb.w	r0, [r5, #41]	; 0x29
 100206a:	9308      	str	r3, [sp, #32]
 100206c:	f017 fc02 	bl	1019874 <BLE_LM_AdvMainCalPktBw>
 1002070:	f895 103b 	ldrb.w	r1, [r5, #59]	; 0x3b
 1002074:	fab1 f181 	clz	r1, r1
 1002078:	220c      	movs	r2, #12
 100207a:	0949      	lsrs	r1, r1, #5
 100207c:	4681      	mov	r9, r0
 100207e:	f895 0029 	ldrb.w	r0, [r5, #41]	; 0x29
 1002082:	f017 fbf7 	bl	1019874 <BLE_LM_AdvMainCalPktBw>
 1002086:	22ff      	movs	r2, #255	; 0xff
 1002088:	4682      	mov	sl, r0
 100208a:	4659      	mov	r1, fp
 100208c:	f895 0029 	ldrb.w	r0, [r5, #41]	; 0x29
 1002090:	f017 fbf0 	bl	1019874 <BLE_LM_AdvMainCalPktBw>
 1002094:	f895 3029 	ldrb.w	r3, [r5, #41]	; 0x29
 1002098:	2b02      	cmp	r3, #2
 100209a:	f000 80c5 	beq.w	1002228 <.LVL607+0x32>
 100209e:	2b03      	cmp	r3, #3
 10020a0:	f000 80c9 	beq.w	1002236 <.LVL609+0x4>
 10020a4:	2b01      	cmp	r3, #1
 10020a6:	f040 80ce 	bne.w	1002246 <.LVL609+0x14>
 10020aa:	f109 09a9 	add.w	r9, r9, #169	; 0xa9
 10020ae:	30c8      	adds	r0, #200	; 0xc8
 10020b0:	44c1      	add	r9, r8
 10020b2:	f10a 0aa9 	add.w	sl, sl, #169	; 0xa9
 10020b6:	44c2      	add	sl, r8
 10020b8:	4480      	add	r8, r0
 10020ba:	6a22      	ldr	r2, [r4, #32]
 10020bc:	2304      	movs	r3, #4
 10020be:	f363 0202 	bfi	r2, r3, #0, #3
 10020c2:	6222      	str	r2, [r4, #32]
 10020c4:	6a22      	ldr	r2, [r4, #32]
 10020c6:	f895 1029 	ldrb.w	r1, [r5, #41]	; 0x29
 10020ca:	Address 0x010020ca is out of bounds.


010020cc <.LVL586>:
 10020cc:	02c4      	lsls	r4, r0, #11
 10020ce:	6222      	str	r2, [r4, #32]
 10020d0:	6a22      	ldr	r2, [r4, #32]
 10020d2:	f363 12ca 	bfi	r2, r3, #7, #4

010020d6 <.LVL587>:
 10020d6:	6222      	str	r2, [r4, #32]
 10020d8:	6a22      	ldr	r2, [r4, #32]

010020da <.LVL588>:
 10020da:	Address 0x010020da is out of bounds.


010020dc <.LVL589>:
 10020dc:	22ce      	movs	r2, #206	; 0xce
 10020de:	6222      	str	r2, [r4, #32]
 10020e0:	2f00      	cmp	r7, #0
 10020e2:	f000 80b3 	beq.w	100224c <.LVL610+0x2>
 10020e6:	6a22      	ldr	r2, [r4, #32]
 10020e8:	f104 0330 	add.w	r3, r4, #48	; 0x30

010020ec <.LVL590>:
 10020ec:	b29b      	uxth	r3, r3
 10020ee:	f363 32de 	bfi	r2, r3, #15, #16
 10020f2:	6222      	str	r2, [r4, #32]
 10020f4:	6a23      	ldr	r3, [r4, #32]
 10020f6:	f36f 73df 	bfc	r3, #31, #1
 10020fa:	6223      	str	r3, [r4, #32]

010020fc <.LVL591>:
 10020fc:	6a62      	ldr	r2, [r4, #36]	; 0x24
 10020fe:	Address 0x010020fe is out of bounds.


01002100 <.LVL592>:
 1002100:	3014      	adds	r0, #20
 1002102:	f363 020f 	bfi	r2, r3, #0, #16
 1002106:	6262      	str	r2, [r4, #36]	; 0x24
 1002108:	6a62      	ldr	r2, [r4, #36]	; 0x24
 100210a:	f8bd 3018 	ldrh.w	r3, [sp, #24]

0100210e <.LVL593>:
 100210e:	f363 421f 	bfi	r2, r3, #16, #16

01002112 <.LVL594>:
 1002112:	6262      	str	r2, [r4, #36]	; 0x24
 1002114:	6aa3      	ldr	r3, [r4, #40]	; 0x28

01002116 <.LVL595>:
 1002116:	2202      	movs	r2, #2
 1002118:	Address 0x01002118 is out of bounds.


0100211a <.LVL596>:
 100211a:	0301      	lsls	r1, r0, #12
 100211c:	62a3      	str	r3, [r4, #40]	; 0x28
 100211e:	6aa3      	ldr	r3, [r4, #40]	; 0x28

01002120 <.LVL597>:
 1002120:	f043 0304 	orr.w	r3, r3, #4

01002124 <.LVL598>:
 1002124:	62a3      	str	r3, [r4, #40]	; 0x28
 1002126:	2301      	movs	r3, #1
 1002128:	950b      	str	r5, [sp, #44]	; 0x2c
 100212a:	f88d 3032 	strb.w	r3, [sp, #50]	; 0x32
 100212e:	2f00      	cmp	r7, #0
 1002130:	f000 8091 	beq.w	1002256 <.LVL611+0x6>
 1002134:	f88d 3031 	strb.w	r3, [sp, #49]	; 0x31
 1002138:	f89d 300c 	ldrb.w	r3, [sp, #12]
 100213c:	Address 0x0100213c is out of bounds.


0100213e <.LVL599>:
 100213e:	3034      	adds	r0, #52	; 0x34

01002140 <.LVL600>:
 1002140:	2300      	movs	r3, #0

01002142 <.LVL601>:
 1002142:	f88d 3033 	strb.w	r3, [sp, #51]	; 0x33

01002146 <.LVL602>:
 1002146:	9905      	ldr	r1, [sp, #20]

01002148 <.LVL603>:
 1002148:	230b      	movs	r3, #11

0100214a <.LVL604>:
 100214a:	a80b      	add	r0, sp, #44	; 0x2c
 100214c:	f88d 3030 	strb.w	r3, [sp, #48]	; 0x30
 1002150:	f003 fa52 	bl	10055f8 <BLE_LM_AdvExtPrepAdvPduHd>

01002154 <.LVL605>:
 1002154:	2f00      	cmp	r7, #0
 1002156:	f000 8083 	beq.w	1002260 <.LVL612+0x2>
 100215a:	9a03      	ldr	r2, [sp, #12]
 100215c:	f8b5 307a 	ldrh.w	r3, [r5, #122]	; 0x7a
 1002160:	1a9b      	subs	r3, r3, r2
 1002162:	b29b      	uxth	r3, r3
 1002164:	9303      	str	r3, [sp, #12]
 1002166:	9b07      	ldr	r3, [sp, #28]
 1002168:	65f3      	str	r3, [r6, #92]	; 0x5c
 100216a:	2304      	movs	r3, #4
 100216c:	f886 3058 	strb.w	r3, [r6, #88]	; 0x58
 1002170:	9b05      	ldr	r3, [sp, #20]
 1002172:	6633      	str	r3, [r6, #96]	; 0x60
 1002174:	9b06      	ldr	r3, [sp, #24]
 1002176:	6673      	str	r3, [r6, #100]	; 0x64
 1002178:	2300      	movs	r3, #0
 100217a:	f886 3074 	strb.w	r3, [r6, #116]	; 0x74
 100217e:	9305      	str	r3, [sp, #20]
 1002180:	9b01      	ldr	r3, [sp, #4]
 1002182:	f8c6 906c 	str.w	r9, [r6, #108]	; 0x6c
 1002186:	f8c6 a070 	str.w	sl, [r6, #112]	; 0x70
 100218a:	f893 2043 	ldrb.w	r2, [r3, #67]	; 0x43
 100218e:	f895 103b 	ldrb.w	r1, [r5, #59]	; 0x3b
 1002192:	f895 0029 	ldrb.w	r0, [r5, #41]	; 0x29
 1002196:	f017 fb6d 	bl	1019874 <BLE_LM_AdvMainCalPktBw>
 100219a:	f89d 2031 	ldrb.w	r2, [sp, #49]	; 0x31
 100219e:	9b05      	ldr	r3, [sp, #20]
 10021a0:	4683      	mov	fp, r0
 10021a2:	b16a      	cbz	r2, 10021c0 <.LVL605+0x6c>
 10021a4:	f88d 3038 	strb.w	r3, [sp, #56]	; 0x38
 10021a8:	f895 3029 	ldrb.w	r3, [r5, #41]	; 0x29
 10021ac:	9908      	ldr	r1, [sp, #32]
 10021ae:	3b01      	subs	r3, #1
 10021b0:	f88d 3039 	strb.w	r3, [sp, #57]	; 0x39
 10021b4:	f500 7396 	add.w	r3, r0, #300	; 0x12c
 10021b8:	a80e      	add	r0, sp, #56	; 0x38
 10021ba:	930f      	str	r3, [sp, #60]	; 0x3c
 10021bc:	f00f fec2 	bl	1011f44 <BLE_LM_AdvExtPrepAuxPtr>
 10021c0:	f89d 3034 	ldrb.w	r3, [sp, #52]	; 0x34
 10021c4:	9a06      	ldr	r2, [sp, #24]
 10021c6:	9908      	ldr	r1, [sp, #32]
 10021c8:	9804      	ldr	r0, [sp, #16]
 10021ca:	441a      	add	r2, r3
 10021cc:	9201      	str	r2, [sp, #4]
 10021ce:	f01d f83a 	bl	101f246 <BLE_LM_AdvMainInsertDescToDescList>
 10021d2:	f895 3029 	ldrb.w	r3, [r5, #41]	; 0x29
 10021d6:	2b02      	cmp	r3, #2
 10021d8:	f106 0678 	add.w	r6, r6, #120	; 0x78
 10021dc:	d042      	beq.n	1002264 <.LVL613+0x2>
 10021de:	2b03      	cmp	r3, #3
 10021e0:	bf0c      	ite	eq
 10021e2:	2379      	moveq	r3, #121	; 0x79

010021e4 <.LVL606>:
 10021e4:	237c      	movne	r3, #124	; 0x7c
 10021e6:	449b      	add	fp, r3
 10021e8:	2f00      	cmp	r7, #0
 10021ea:	d03d      	beq.n	1002268 <.LVL613+0x6>
 10021ec:	f109 09c3 	add.w	r9, r9, #195	; 0xc3
 10021f0:	f10a 0ac3 	add.w	sl, sl, #195	; 0xc3
 10021f4:	44d9      	add	r9, fp

010021f6 <.LVL607>:
 10021f6:	44da      	add	sl, fp
 10021f8:	3430      	adds	r4, #48	; 0x30
 10021fa:	f04f 0b00 	mov.w	fp, #0
 10021fe:	bbdf      	cbnz	r7, 1002278 <.LVL616>
 1002200:	45d1      	cmp	r9, sl
 1002202:	4640      	mov	r0, r8
 1002204:	f080 80cb 	bcs.w	100239e <.LVL649+0x6a>
 1002208:	45d0      	cmp	r8, sl
 100220a:	bf38      	it	cc
 100220c:	4650      	movcc	r0, sl
 100220e:	f8c5 00f8 	str.w	r0, [r5, #248]	; 0xf8
 1002212:	f8c5 00f4 	str.w	r0, [r5, #244]	; 0xf4
 1002216:	4638      	mov	r0, r7
 1002218:	e5f7      	b.n	1001e0a <.LVL554>
 100221a:	0042      	lsls	r2, r0, #1
 100221c:	f502 720d 	add.w	r2, r2, #564	; 0x234
 1002220:	e661      	b.n	1001ee6 <.LVL567+0x2>
 1002222:	f500 72d8 	add.w	r2, r0, #432	; 0x1b0
 1002226:	e65e      	b.n	1001ee6 <.LVL567+0x2>
 1002228:	Address 0x01002228 is out of bounds.


0100222a <.LVL608>:
 100222a:	09a2      	lsrs	r2, r4, #6
 100222c:	30b3      	adds	r0, #179	; 0xb3
 100222e:	44c1      	add	r9, r8
 1002230:	Address 0x01002230 is out of bounds.


01002232 <.LVL609>:
 1002232:	0aa2      	lsrs	r2, r4, #10
 1002234:	e73f      	b.n	10020b6 <.LVL585+0x6c>
 1002236:	f109 09ac 	add.w	r9, r9, #172	; 0xac
 100223a:	f200 2022 	addw	r0, r0, #546	; 0x222
 100223e:	44c1      	add	r9, r8
 1002240:	f10a 0aac 	add.w	sl, sl, #172	; 0xac
 1002244:	e737      	b.n	10020b6 <.LVL585+0x6c>
 1002246:	46c2      	mov	sl, r8
 1002248:	46c1      	mov	r9, r8

0100224a <.LVL610>:
 100224a:	e736      	b.n	10020ba <.LVL585+0x70>
 100224c:	6a23      	ldr	r3, [r4, #32]
 100224e:	Address 0x0100224e is out of bounds.


01002250 <.LVL611>:
 1002250:	33de      	adds	r3, #222	; 0xde
 1002252:	6223      	str	r3, [r4, #32]
 1002254:	e74e      	b.n	10020f4 <.LVL590+0x8>
 1002256:	f88d 7031 	strb.w	r7, [sp, #49]	; 0x31
 100225a:	f8b5 307a 	ldrh.w	r3, [r5, #122]	; 0x7a

0100225e <.LVL612>:
 100225e:	e76d      	b.n	100213c <.LVL598+0x18>
 1002260:	9703      	str	r7, [sp, #12]

01002262 <.LVL613>:
 1002262:	e780      	b.n	1002166 <.LVL605+0x12>
 1002264:	2383      	movs	r3, #131	; 0x83
 1002266:	e7be      	b.n	10021e6 <.LVL606+0x2>
 1002268:	f109 0907 	add.w	r9, r9, #7

0100226c <.LVL614>:
 100226c:	f10a 0307 	add.w	r3, sl, #7
 1002270:	44d9      	add	r9, fp
 1002272:	eb0b 0a03 	add.w	sl, fp, r3

01002276 <.LVL615>:
 1002276:	e7bf      	b.n	10021f8 <.LVL607+0x2>

01002278 <.LVL616>:
 1002278:	6823      	ldr	r3, [r4, #0]
 100227a:	f01b fcb2 	bl	101dbe2 <__pa_fn_0_4f_01_0>
 100227e:	2204      	movs	r2, #4

01002280 <.LVL617>:
 1002280:	f362 13ca 	bfi	r3, r2, #7, #4

01002284 <.LVL618>:
 1002284:	6023      	str	r3, [r4, #0]

01002286 <.LVL619>:
 1002286:	6823      	ldr	r3, [r4, #0]

01002288 <.LVL620>:
 1002288:	3f01      	subs	r7, #1

0100228a <.LVL621>:
 100228a:	f362 23ce 	bfi	r3, r2, #11, #4

0100228e <.LVL622>:
 100228e:	6023      	str	r3, [r4, #0]
 1002290:	f017 07ff 	ands.w	r7, r7, #255	; 0xff
 1002294:	f01c fb6f 	bl	101e976 <__pa_fn_0_77_01_0>

01002298 <.LVL623>:
 1002298:	bf15      	itete	ne
 100229a:	f363 32de 	bfine	r2, r3, #15, #16

0100229e <.LVL624>:
 100229e:	f367 33de 	bfieq	r3, r7, #15, #16
 10022a2:	6022      	strne	r2, [r4, #0]
 10022a4:	6023      	streq	r3, [r4, #0]
 10022a6:	f01a ffd7 	bl	101d258 <__pa_fn_1_7_01_0>

010022aa <.LVL625>:
 10022aa:	68a3      	ldr	r3, [r4, #8]
 10022ac:	f36f 03c8 	bfc	r3, #3, #6
 10022b0:	60a3      	str	r3, [r4, #8]
 10022b2:	6862      	ldr	r2, [r4, #4]
 10022b4:	f8bd 3000 	ldrh.w	r3, [sp]

010022b8 <.LVL626>:
 10022b8:	f363 020f 	bfi	r2, r3, #0, #16

010022bc <.LVL627>:
 10022bc:	6062      	str	r2, [r4, #4]

010022be <.LVL628>:
 10022be:	6862      	ldr	r2, [r4, #4]

010022c0 <.LVL629>:
 10022c0:	f8bd 3004 	ldrh.w	r3, [sp, #4]

010022c4 <.LVL630>:
 10022c4:	Address 0x010022c4 is out of bounds.


010022c6 <.LVL631>:
 10022c6:	421f      	tst	r7, r3
 10022c8:	2301      	movs	r3, #1

010022ca <.LVL632>:
 10022ca:	6062      	str	r2, [r4, #4]
 10022cc:	950b      	str	r5, [sp, #44]	; 0x2c

010022ce <.LVL633>:
 10022ce:	Address 0x010022ce is out of bounds.


010022d0 <.LVL634>:
 10022d0:	3032      	adds	r0, #50	; 0x32
 10022d2:	2f00      	cmp	r7, #0

010022d4 <.LVL635>:
 10022d4:	d056      	beq.n	1002384 <.LVL649+0x50>

010022d6 <.LVL636>:
 10022d6:	Address 0x010022d6 is out of bounds.


010022d8 <.LVL637>:
 10022d8:	3031      	adds	r0, #49	; 0x31

010022da <.LVL638>:
 10022da:	Address 0x010022da is out of bounds.


010022dc <.LVL639>:
 10022dc:	3008      	adds	r0, #8
 10022de:	f88d 3034 	strb.w	r3, [sp, #52]	; 0x34
 10022e2:	f04f 0300 	mov.w	r3, #0
 10022e6:	f88d 3033 	strb.w	r3, [sp, #51]	; 0x33
 10022ea:	9900      	ldr	r1, [sp, #0]
 10022ec:	230d      	movs	r3, #13
 10022ee:	a80b      	add	r0, sp, #44	; 0x2c
 10022f0:	f88d 3030 	strb.w	r3, [sp, #48]	; 0x30

010022f4 <.LVL640>:
 10022f4:	f003 f980 	bl	10055f8 <BLE_LM_AdvExtPrepAdvPduHd>

010022f8 <.LVL641>:
 10022f8:	2f00      	cmp	r7, #0
 10022fa:	d048      	beq.n	100238e <.LVL649+0x5a>

010022fc <.LVL642>:
 10022fc:	9b03      	ldr	r3, [sp, #12]
 10022fe:	9a02      	ldr	r2, [sp, #8]

01002300 <.LVL643>:
 1002300:	1a9b      	subs	r3, r3, r2

01002302 <.LVL644>:
 1002302:	b29b      	uxth	r3, r3
 1002304:	9303      	str	r3, [sp, #12]
 1002306:	9b00      	ldr	r3, [sp, #0]

01002308 <.LVL646>:
 1002308:	6133      	str	r3, [r6, #16]
 100230a:	9b01      	ldr	r3, [sp, #4]
 100230c:	6173      	str	r3, [r6, #20]
 100230e:	4631      	mov	r1, r6

01002310 <.LVL647>:
 1002310:	9804      	ldr	r0, [sp, #16]
 1002312:	60f4      	str	r4, [r6, #12]
 1002314:	f886 b008 	strb.w	fp, [r6, #8]
 1002318:	f8c6 901c 	str.w	r9, [r6, #28]
 100231c:	f8c6 a020 	str.w	sl, [r6, #32]
 1002320:	f886 b024 	strb.w	fp, [r6, #36]	; 0x24
 1002324:	f01c ff8f 	bl	101f246 <BLE_LM_AdvMainInsertDescToDescList>
 1002328:	9b00      	ldr	r3, [sp, #0]

0100232a <.LVL648>:
 100232a:	f895 103b 	ldrb.w	r1, [r5, #59]	; 0x3b
 100232e:	785a      	ldrb	r2, [r3, #1]
 1002330:	f895 0029 	ldrb.w	r0, [r5, #41]	; 0x29

01002334 <.LVL649>:
 1002334:	f017 fa9e 	bl	1019874 <BLE_LM_AdvMainCalPktBw>
 1002338:	f89d 2031 	ldrb.w	r2, [sp, #49]	; 0x31
 100233c:	4603      	mov	r3, r0
 100233e:	b17a      	cbz	r2, 1002360 <.LVL649+0x2c>
 1002340:	f895 2029 	ldrb.w	r2, [r5, #41]	; 0x29
 1002344:	9005      	str	r0, [sp, #20]
 1002346:	3a01      	subs	r2, #1
 1002348:	f88d 2039 	strb.w	r2, [sp, #57]	; 0x39
 100234c:	4631      	mov	r1, r6
 100234e:	f500 7296 	add.w	r2, r0, #300	; 0x12c
 1002352:	a80e      	add	r0, sp, #56	; 0x38
 1002354:	f88d b038 	strb.w	fp, [sp, #56]	; 0x38
 1002358:	920f      	str	r2, [sp, #60]	; 0x3c
 100235a:	f00f fdf3 	bl	1011f44 <BLE_LM_AdvExtPrepAuxPtr>
 100235e:	9b05      	ldr	r3, [sp, #20]
 1002360:	f89d 2034 	ldrb.w	r2, [sp, #52]	; 0x34
 1002364:	9901      	ldr	r1, [sp, #4]
 1002366:	4411      	add	r1, r2
 1002368:	9a00      	ldr	r2, [sp, #0]
 100236a:	9101      	str	r1, [sp, #4]
 100236c:	3242      	adds	r2, #66	; 0x42
 100236e:	3628      	adds	r6, #40	; 0x28
 1002370:	9200      	str	r2, [sp, #0]
 1002372:	b177      	cbz	r7, 1002392 <.LVL649+0x5e>
 1002374:	f509 7996 	add.w	r9, r9, #300	; 0x12c
 1002378:	4499      	add	r9, r3
 100237a:	f50a 7a96 	add.w	sl, sl, #300	; 0x12c
 100237e:	449a      	add	sl, r3
 1002380:	3410      	adds	r4, #16
 1002382:	e73c      	b.n	10021fe <.LVL607+0x8>
 1002384:	f88d 7031 	strb.w	r7, [sp, #49]	; 0x31
 1002388:	f89d 300c 	ldrb.w	r3, [sp, #12]
 100238c:	e7a7      	b.n	10022de <.LVL639+0x2>
 100238e:	9703      	str	r7, [sp, #12]
 1002390:	e7b9      	b.n	1002306 <.LVL644+0x4>
 1002392:	f109 0970 	add.w	r9, r9, #112	; 0x70
 1002396:	4499      	add	r9, r3
 1002398:	f10a 0a70 	add.w	sl, sl, #112	; 0x70
 100239c:	e7ef      	b.n	100237e <.LVL649+0x4a>
 100239e:	45c8      	cmp	r8, r9
 10023a0:	bf38      	it	cc
 10023a2:	4648      	movcc	r0, r9
 10023a4:	e733      	b.n	100220e <.LVL607+0x18>
 10023a6:	eb09 1249 	add.w	r2, r9, r9, lsl #5
 10023aa:	eb03 0242 	add.w	r2, r3, r2, lsl #1
 10023ae:	9201      	str	r2, [sp, #4]
 10023b0:	3242      	adds	r2, #66	; 0x42
 10023b2:	9205      	str	r2, [sp, #20]

010023b4 <.LVL650>:
 10023b4:	2f00      	cmp	r7, #0
 10023b6:	f47f ad2e 	bne.w	1001e16 <.LVL556>
 10023ba:	9700      	str	r7, [sp, #0]
 10023bc:	e52e      	b.n	1001e1c <.LVL556+0x6>

Disassembly of section .dinit%89:

010023c0 <.dinit>:
 10023c0:	2000b702 	.word	0x2000b702
 10023c4:	00000003 	.word	0x00000003
 10023c8:	00000001 	.word	0x00000001
 10023cc:	0005024e 	.word	0x0005024e
 10023d0:	2000b4e0 	.word	0x2000b4e0
 10023d4:	0000001c 	.word	0x0000001c
 10023d8:	00000000 	.word	0x00000000
 10023dc:	20000000 	.word	0x20000000
 10023e0:	00000134 	.word	0x00000134
 10023e4:	00000000 	.word	0x00000000
 10023e8:	2000adac 	.word	0x2000adac
 10023ec:	00000194 	.word	0x00000194
 10023f0:	00000000 	.word	0x00000000
 10023f4:	20000134 	.word	0x20000134
 10023f8:	000002d4 	.word	0x000002d4
 10023fc:	00000000 	.word	0x00000000
 1002400:	20000408 	.word	0x20000408
 1002404:	00000018 	.word	0x00000018
 1002408:	00000000 	.word	0x00000000
 100240c:	2000b640 	.word	0x2000b640
 1002410:	0000000c 	.word	0x0000000c
 1002414:	00000000 	.word	0x00000000
 1002418:	2000b64c 	.word	0x2000b64c
 100241c:	0000000c 	.word	0x0000000c
 1002420:	00000000 	.word	0x00000000
 1002424:	20000420 	.word	0x20000420
 1002428:	00000008 	.word	0x00000008
 100242c:	00000000 	.word	0x00000000
 1002430:	2000a830 	.word	0x2000a830
 1002434:	00000378 	.word	0x00000378
 1002438:	00000000 	.word	0x00000000
 100243c:	20000428 	.word	0x20000428
 1002440:	00000018 	.word	0x00000018
 1002444:	00000000 	.word	0x00000000
 1002448:	2000b45c 	.word	0x2000b45c
 100244c:	00000020 	.word	0x00000020
 1002450:	00000000 	.word	0x00000000
 1002454:	20000440 	.word	0x20000440
 1002458:	00000004 	.word	0x00000004
 100245c:	00000000 	.word	0x00000000
 1002460:	2000af40 	.word	0x2000af40
 1002464:	000000c0 	.word	0x000000c0
 1002468:	00000001 	.word	0x00000001
 100246c:	0100362b 	.word	0x0100362b
 1002470:	0100362b 	.word	0x0100362b
 1002474:	0100362b 	.word	0x0100362b
 1002478:	0100362b 	.word	0x0100362b
 100247c:	0100362b 	.word	0x0100362b
 1002480:	0100362b 	.word	0x0100362b
 1002484:	0100362b 	.word	0x0100362b
 1002488:	0100362b 	.word	0x0100362b
 100248c:	0100362b 	.word	0x0100362b
 1002490:	0100362b 	.word	0x0100362b
 1002494:	0100362b 	.word	0x0100362b
 1002498:	0100362b 	.word	0x0100362b
 100249c:	0100362b 	.word	0x0100362b
 10024a0:	0100362b 	.word	0x0100362b
 10024a4:	0100362b 	.word	0x0100362b
 10024a8:	0100362b 	.word	0x0100362b
 10024ac:	0100362b 	.word	0x0100362b
 10024b0:	0100362b 	.word	0x0100362b
 10024b4:	0100362b 	.word	0x0100362b
 10024b8:	010023bf 	.word	0x010023bf
 10024bc:	0100362b 	.word	0x0100362b
 10024c0:	0100362b 	.word	0x0100362b
 10024c4:	0100362b 	.word	0x0100362b
 10024c8:	0100362b 	.word	0x0100362b
 10024cc:	0100362b 	.word	0x0100362b
 10024d0:	0100362b 	.word	0x0100362b
 10024d4:	0100362b 	.word	0x0100362b
 10024d8:	0100362b 	.word	0x0100362b
 10024dc:	0100362b 	.word	0x0100362b
 10024e0:	0100362b 	.word	0x0100362b
 10024e4:	0100362b 	.word	0x0100362b
 10024e8:	0100362b 	.word	0x0100362b
 10024ec:	0100362b 	.word	0x0100362b
 10024f0:	0100362b 	.word	0x0100362b
 10024f4:	0100362b 	.word	0x0100362b
 10024f8:	0100362b 	.word	0x0100362b
 10024fc:	0100362b 	.word	0x0100362b
 1002500:	0100362b 	.word	0x0100362b
 1002504:	0100362b 	.word	0x0100362b
 1002508:	0100362b 	.word	0x0100362b
 100250c:	0100362b 	.word	0x0100362b
 1002510:	0100362b 	.word	0x0100362b
 1002514:	0100362b 	.word	0x0100362b
 1002518:	0100362b 	.word	0x0100362b
 100251c:	0100362b 	.word	0x0100362b
 1002520:	0100362b 	.word	0x0100362b
 1002524:	0100362b 	.word	0x0100362b
 1002528:	0100362b 	.word	0x0100362b
 100252c:	20000444 	.word	0x20000444
 1002530:	00000004 	.word	0x00000004
 1002534:	00000000 	.word	0x00000000
 1002538:	2000b398 	.word	0x2000b398
 100253c:	00000028 	.word	0x00000028
 1002540:	00000000 	.word	0x00000000
 1002544:	2000b310 	.word	0x2000b310
 1002548:	00000030 	.word	0x00000030
 100254c:	00000000 	.word	0x00000000
 1002550:	20000448 	.word	0x20000448
 1002554:	00000010 	.word	0x00000010
 1002558:	00000000 	.word	0x00000000
 100255c:	2000b19c 	.word	0x2000b19c
 1002560:	0000004c 	.word	0x0000004c
 1002564:	00000000 	.word	0x00000000
 1002568:	2000b4fc 	.word	0x2000b4fc
 100256c:	0000001c 	.word	0x0000001c
 1002570:	00000000 	.word	0x00000000
 1002574:	2000b518 	.word	0x2000b518
 1002578:	0000001c 	.word	0x0000001c
 100257c:	00000000 	.word	0x00000000
 1002580:	2000b534 	.word	0x2000b534
 1002584:	0000001c 	.word	0x0000001c
 1002588:	00000000 	.word	0x00000000
 100258c:	20000458 	.word	0x20000458
 1002590:	000000ae 	.word	0x000000ae
 1002594:	00000000 	.word	0x00000000
 1002598:	2000b228 	.word	0x2000b228
 100259c:	0000003c 	.word	0x0000003c
 10025a0:	00000000 	.word	0x00000000
 10025a4:	20000508 	.word	0x20000508
 10025a8:	0000003c 	.word	0x0000003c
 10025ac:	00000000 	.word	0x00000000
 10025b0:	2000b144 	.word	0x2000b144
 10025b4:	00000058 	.word	0x00000058
 10025b8:	00000000 	.word	0x00000000
 10025bc:	20000544 	.word	0x20000544
 10025c0:	00000009 	.word	0x00000009
 10025c4:	00000000 	.word	0x00000000
 10025c8:	2000b658 	.word	0x2000b658
 10025cc:	0000000c 	.word	0x0000000c
 10025d0:	00000000 	.word	0x00000000
 10025d4:	2000b340 	.word	0x2000b340
 10025d8:	0000002c 	.word	0x0000002c
 10025dc:	00000000 	.word	0x00000000
 10025e0:	2000b438 	.word	0x2000b438
 10025e4:	00000024 	.word	0x00000024
 10025e8:	00000000 	.word	0x00000000
 10025ec:	2000b67c 	.word	0x2000b67c
 10025f0:	00000008 	.word	0x00000008
 10025f4:	00000001 	.word	0x00000001
 10025f8:	01005083 	.word	0x01005083
 10025fc:	01005083 	.word	0x01005083
 1002600:	2000b47c 	.word	0x2000b47c
 1002604:	00000020 	.word	0x00000020
 1002608:	00000000 	.word	0x00000000
 100260c:	2000b36c 	.word	0x2000b36c
 1002610:	0000002a 	.word	0x0000002a
 1002614:	00000001 	.word	0x00000001
 1002618:	03030301 	.word	0x03030301
 100261c:	05030303 	.word	0x05030303
 1002620:	07050505 	.word	0x07050505
 1002624:	0b090907 	.word	0x0b090907
 1002628:	110f0d0b 	.word	0x110f0d0b
 100262c:	19171513 	.word	0x19171513
 1002630:	2b25211d 	.word	0x2b25211d
 1002634:	675f3731 	.word	0x675f3731
 1002638:	231f7f71 	.word	0x231f7f71
 100263c:	3b332d27 	.word	0x3b332d27
 1002640:	00007f6f 	.word	0x00007f6f
 1002644:	2000b2a0 	.word	0x2000b2a0
 1002648:	00000038 	.word	0x00000038
 100264c:	00000000 	.word	0x00000000
 1002650:	2000b5a0 	.word	0x2000b5a0
 1002654:	00000014 	.word	0x00000014
 1002658:	00000000 	.word	0x00000000
 100265c:	2000b684 	.word	0x2000b684
 1002660:	00000008 	.word	0x00000008
 1002664:	00000000 	.word	0x00000000
 1002668:	2000054d 	.word	0x2000054d
 100266c:	00000170 	.word	0x00000170
 1002670:	00000000 	.word	0x00000000
 1002674:	200006bd 	.word	0x200006bd
 1002678:	00000041 	.word	0x00000041
 100267c:	00000000 	.word	0x00000000
 1002680:	2000b3c0 	.word	0x2000b3c0
 1002684:	00000028 	.word	0x00000028
 1002688:	00000001 	.word	0x00000001
 100268c:	02010025 	.word	0x02010025
 1002690:	06050403 	.word	0x06050403
 1002694:	0a090807 	.word	0x0a090807
 1002698:	0d0c0b26 	.word	0x0d0c0b26
 100269c:	11100f0e 	.word	0x11100f0e
 10026a0:	15141312 	.word	0x15141312
 10026a4:	19181716 	.word	0x19181716
 10026a8:	1d1c1b1a 	.word	0x1d1c1b1a
 10026ac:	21201f1e 	.word	0x21201f1e
 10026b0:	27242322 	.word	0x27242322
 10026b4:	2000b588 	.word	0x2000b588
 10026b8:	00000018 	.word	0x00000018
 10026bc:	00000000 	.word	0x00000000
 10026c0:	200006fe 	.word	0x200006fe
 10026c4:	0000000c 	.word	0x0000000c
 10026c8:	00000000 	.word	0x00000000
 10026cc:	2000b550 	.word	0x2000b550
 10026d0:	0000001c 	.word	0x0000001c
 10026d4:	00000000 	.word	0x00000000
 10026d8:	2000b4a0 	.word	0x2000b4a0
 10026dc:	00000020 	.word	0x00000020
 10026e0:	00000000 	.word	0x00000000
 10026e4:	2000b4c0 	.word	0x2000b4c0
 10026e8:	00000020 	.word	0x00000020
 10026ec:	00000000 	.word	0x00000000
 10026f0:	2000070c 	.word	0x2000070c
 10026f4:	00000020 	.word	0x00000020
 10026f8:	00000000 	.word	0x00000000
 10026fc:	2000072c 	.word	0x2000072c
 1002700:	00000030 	.word	0x00000030
 1002704:	00000000 	.word	0x00000000
 1002708:	2000b000 	.word	0x2000b000
 100270c:	00000080 	.word	0x00000080
 1002710:	00000000 	.word	0x00000000
 1002714:	2000075c 	.word	0x2000075c
 1002718:	00000038 	.word	0x00000038
 100271c:	00000000 	.word	0x00000000
 1002720:	20000794 	.word	0x20000794
 1002724:	00000040 	.word	0x00000040
 1002728:	00000000 	.word	0x00000000
 100272c:	2000b49c 	.word	0x2000b49c
 1002730:	00000004 	.word	0x00000004
 1002734:	00000001 	.word	0x00000001
 1002738:	aaaaaaaa 	.word	0xaaaaaaaa
 100273c:	2000b694 	.word	0x2000b694
 1002740:	00000004 	.word	0x00000004
 1002744:	00000000 	.word	0x00000000
 1002748:	20000830 	.word	0x20000830
 100274c:	0000a000 	.word	0x0000a000
 1002750:	00000000 	.word	0x00000000
 1002754:	2000b698 	.word	0x2000b698
 1002758:	00000004 	.word	0x00000004
 100275c:	00000000 	.word	0x00000000
 1002760:	2000b69c 	.word	0x2000b69c
 1002764:	00000004 	.word	0x00000004
 1002768:	00000000 	.word	0x00000000
 100276c:	2000b6a0 	.word	0x2000b6a0
 1002770:	00000004 	.word	0x00000004
 1002774:	00000000 	.word	0x00000000
 1002778:	2000b68c 	.word	0x2000b68c
 100277c:	00000008 	.word	0x00000008
 1002780:	00000000 	.word	0x00000000
 1002784:	2000b6a4 	.word	0x2000b6a4
 1002788:	00000004 	.word	0x00000004
 100278c:	00000000 	.word	0x00000000
 1002790:	2000b6a8 	.word	0x2000b6a8
 1002794:	00000004 	.word	0x00000004
 1002798:	00000000 	.word	0x00000000
 100279c:	2000b6ac 	.word	0x2000b6ac
 10027a0:	00000004 	.word	0x00000004
 10027a4:	00000000 	.word	0x00000000
 10027a8:	2000b080 	.word	0x2000b080
 10027ac:	00000064 	.word	0x00000064
 10027b0:	00000000 	.word	0x00000000
 10027b4:	2000b6b0 	.word	0x2000b6b0
 10027b8:	00000004 	.word	0x00000004
 10027bc:	00000000 	.word	0x00000000
 10027c0:	2000b6b4 	.word	0x2000b6b4
 10027c4:	00000004 	.word	0x00000004
 10027c8:	00000000 	.word	0x00000000
 10027cc:	2000b6b8 	.word	0x2000b6b8
 10027d0:	00000004 	.word	0x00000004
 10027d4:	00000000 	.word	0x00000000
 10027d8:	2000b6bc 	.word	0x2000b6bc
 10027dc:	00000004 	.word	0x00000004
 10027e0:	00000000 	.word	0x00000000
 10027e4:	2000b6c0 	.word	0x2000b6c0
 10027e8:	00000004 	.word	0x00000004
 10027ec:	00000000 	.word	0x00000000
 10027f0:	2000b6c4 	.word	0x2000b6c4
 10027f4:	00000004 	.word	0x00000004
 10027f8:	00000000 	.word	0x00000000
 10027fc:	2000b5b4 	.word	0x2000b5b4
 1002800:	00000014 	.word	0x00000014
 1002804:	00000000 	.word	0x00000000
 1002808:	2000b5c8 	.word	0x2000b5c8
 100280c:	00000014 	.word	0x00000014
 1002810:	00000000 	.word	0x00000000
 1002814:	2000b6c8 	.word	0x2000b6c8
 1002818:	00000004 	.word	0x00000004
 100281c:	00000000 	.word	0x00000000
 1002820:	2000b6cc 	.word	0x2000b6cc
 1002824:	00000004 	.word	0x00000004
 1002828:	00000000 	.word	0x00000000
 100282c:	2000b6d0 	.word	0x2000b6d0
 1002830:	00000004 	.word	0x00000004
 1002834:	00000000 	.word	0x00000000
 1002838:	2000b5dc 	.word	0x2000b5dc
 100283c:	00000014 	.word	0x00000014
 1002840:	00000000 	.word	0x00000000
 1002844:	2000b6d4 	.word	0x2000b6d4
 1002848:	00000004 	.word	0x00000004
 100284c:	00000000 	.word	0x00000000
 1002850:	2000b5f0 	.word	0x2000b5f0
 1002854:	00000014 	.word	0x00000014
 1002858:	00000000 	.word	0x00000000
 100285c:	2000b604 	.word	0x2000b604
 1002860:	00000014 	.word	0x00000014
 1002864:	00000000 	.word	0x00000000
 1002868:	2000b6d8 	.word	0x2000b6d8
 100286c:	00000004 	.word	0x00000004
 1002870:	00000000 	.word	0x00000000
 1002874:	2000b6dc 	.word	0x2000b6dc
 1002878:	00000004 	.word	0x00000004
 100287c:	00000000 	.word	0x00000000
 1002880:	2000b6e0 	.word	0x2000b6e0
 1002884:	00000004 	.word	0x00000004
 1002888:	00000000 	.word	0x00000000
 100288c:	2000b6e4 	.word	0x2000b6e4
 1002890:	00000004 	.word	0x00000004
 1002894:	00000000 	.word	0x00000000
 1002898:	2000b618 	.word	0x2000b618
 100289c:	00000014 	.word	0x00000014
 10028a0:	00000000 	.word	0x00000000
 10028a4:	2000b62c 	.word	0x2000b62c
 10028a8:	00000014 	.word	0x00000014
 10028ac:	00000000 	.word	0x00000000
 10028b0:	2000b6e8 	.word	0x2000b6e8
 10028b4:	00000004 	.word	0x00000004
 10028b8:	00000000 	.word	0x00000000
 10028bc:	2000b6ec 	.word	0x2000b6ec
 10028c0:	00000004 	.word	0x00000004
 10028c4:	00000000 	.word	0x00000000
 10028c8:	2000b6f0 	.word	0x2000b6f0
 10028cc:	00000004 	.word	0x00000004
 10028d0:	00000000 	.word	0x00000000
 10028d4:	2000b2d8 	.word	0x2000b2d8
 10028d8:	00000038 	.word	0x00000038
 10028dc:	00000000 	.word	0x00000000
 10028e0:	2000b6f4 	.word	0x2000b6f4
 10028e4:	00000004 	.word	0x00000004
 10028e8:	00000001 	.word	0x00000001
 10028ec:	1f00443b 	.word	0x1f00443b
 10028f0:	2000b700 	.word	0x2000b700
 10028f4:	00000001 	.word	0x00000001
 10028f8:	00000001 	.word	0x00000001
 10028fc:	00000001 	.word	0x00000001
 1002900:	2000b664 	.word	0x2000b664
 1002904:	0000000c 	.word	0x0000000c
 1002908:	00000000 	.word	0x00000000
 100290c:	2000b3e8 	.word	0x2000b3e8
 1002910:	00000028 	.word	0x00000028
 1002914:	00000000 	.word	0x00000000
 1002918:	2000b410 	.word	0x2000b410
 100291c:	00000028 	.word	0x00000028
 1002920:	00000000 	.word	0x00000000
 1002924:	2000b396 	.word	0x2000b396
 1002928:	00000002 	.word	0x00000002
 100292c:	00000001 	.word	0x00000001
 1002930:	00000070 	.word	0x00000070
 1002934:	200007d4 	.word	0x200007d4
 1002938:	00000008 	.word	0x00000008
 100293c:	00000000 	.word	0x00000000
 1002940:	200007dc 	.word	0x200007dc
 1002944:	00000004 	.word	0x00000004
 1002948:	00000000 	.word	0x00000000
 100294c:	2000b6f8 	.word	0x2000b6f8
 1002950:	00000004 	.word	0x00000004
 1002954:	00000001 	.word	0x00000001
 1002958:	00000001 	.word	0x00000001
 100295c:	2000b264 	.word	0x2000b264
 1002960:	0000003c 	.word	0x0000003c
 1002964:	00000000 	.word	0x00000000
 1002968:	200007e0 	.word	0x200007e0
 100296c:	00000008 	.word	0x00000008
 1002970:	00000000 	.word	0x00000000
 1002974:	200007e8 	.word	0x200007e8
 1002978:	00000008 	.word	0x00000008
 100297c:	00000000 	.word	0x00000000
 1002980:	2000b670 	.word	0x2000b670
 1002984:	0000000c 	.word	0x0000000c
 1002988:	00000000 	.word	0x00000000
 100298c:	200007f0 	.word	0x200007f0
 1002990:	00000008 	.word	0x00000008
 1002994:	00000000 	.word	0x00000000
 1002998:	2000aba8 	.word	0x2000aba8
 100299c:	00000204 	.word	0x00000204
 10029a0:	00000000 	.word	0x00000000
 10029a4:	200007f8 	.word	0x200007f8
 10029a8:	00000009 	.word	0x00000009
 10029ac:	00000000 	.word	0x00000000
 10029b0:	2000b56c 	.word	0x2000b56c
 10029b4:	0000001c 	.word	0x0000001c
 10029b8:	00000000 	.word	0x00000000
 10029bc:	20000804 	.word	0x20000804
 10029c0:	00000004 	.word	0x00000004
 10029c4:	00000000 	.word	0x00000000
 10029c8:	20010000 	.word	0x20010000
 10029cc:	00006800 	.word	0x00006800
 10029d0:	00000000 	.word	0x00000000
 10029d4:	2000b1e8 	.word	0x2000b1e8
 10029d8:	00000040 	.word	0x00000040
 10029dc:	00000000 	.word	0x00000000
 10029e0:	20000808 	.word	0x20000808
 10029e4:	00000028 	.word	0x00000028
 10029e8:	00000000 	.word	0x00000000
 10029ec:	2000b701 	.word	0x2000b701
 10029f0:	00000001 	.word	0x00000001
 10029f4:	00000001 	.word	0x00000001
 10029f8:	00000001 	.word	0x00000001
 10029fc:	2000b6fc 	.word	0x2000b6fc
 1002a00:	00000004 	.word	0x00000004
 1002a04:	00000001 	.word	0x00000001
 1002a08:	2000b0e4 	.word	0x2000b0e4
 1002a0c:	2000b0e4 	.word	0x2000b0e4
 1002a10:	00000060 	.word	0x00000060
 1002a14:	00000001 	.word	0x00000001
	...

Disassembly of section .text.HCI_EVT_handler%90:

01002a80 <HCI_EVT_handler>:
 1002a80:	b5f8      	push	{r3, r4, r5, r6, r7, lr}

01002a82 <.LCFI0>:
 1002a82:	8806      	ldrh	r6, [r0, #0]
 1002a84:	f241 030a 	movw	r3, #4106	; 0x100a
 1002a88:	429e      	cmp	r6, r3
 1002a8a:	4605      	mov	r5, r0
 1002a8c:	d003      	beq.n	1002a96 <.LCFI0+0x14>
 1002a8e:	f241 0301 	movw	r3, #4097	; 0x1001
 1002a92:	429e      	cmp	r6, r3
 1002a94:	d11e      	bne.n	1002ad4 <.LVL3>
 1002a96:	4aa7      	ldr	r2, [pc, #668]	; (1002d34 <.LVL36+0x26>)
 1002a98:	7853      	ldrb	r3, [r2, #1]
 1002a9a:	f013 0302 	ands.w	r3, r3, #2
 1002a9e:	d144      	bne.n	1002b2a <.LBE4>
 1002aa0:	8812      	ldrh	r2, [r2, #0]
 1002aa2:	f240 2101 	movw	r1, #513	; 0x201
 1002aa6:	4211      	tst	r1, r2

01002aa8 <.LBB2>:
 1002aa8:	d03e      	beq.n	1002b28 <.LVL13>

01002aaa <.LBE2>:
 1002aaa:	f241 0207 	movw	r2, #4103	; 0x1007
 1002aae:	4296      	cmp	r6, r2
 1002ab0:	f000 81cd 	beq.w	1002e4e <.LVL53+0xa>
 1002ab4:	d87b      	bhi.n	1002bae <.LVL20>
 1002ab6:	2e57      	cmp	r6, #87	; 0x57
 1002ab8:	f000 8130 	beq.w	1002d1c <.LVL36+0xe>
 1002abc:	d83e      	bhi.n	1002b3c <.LVL15+0xe>
 1002abe:	2e0c      	cmp	r6, #12
 1002ac0:	f000 8109 	beq.w	1002cd6 <.LVL30>
 1002ac4:	d833      	bhi.n	1002b2e <.LVL15>
 1002ac6:	2e05      	cmp	r6, #5
 1002ac8:	f000 80fa 	beq.w	1002cc0 <.LVL29+0x8>
 1002acc:	2e08      	cmp	r6, #8
 1002ace:	f000 80f7 	beq.w	1002cc0 <.LVL29+0x8>
 1002ad2:	bdf8      	pop	{r3, r4, r5, r6, r7, pc}

01002ad4 <.LVL3>:
 1002ad4:	f241 03ef 	movw	r3, #4335	; 0x10ef
 1002ad8:	429e      	cmp	r6, r3
 1002ada:	d812      	bhi.n	1002b02 <.LBE3>

01002adc <.LBB3>:
 1002adc:	1e72      	subs	r2, r6, #1
 1002ade:	f416 5380 	ands.w	r3, r6, #4096	; 0x1000
 1002ae2:	f002 02ff 	and.w	r2, r2, #255	; 0xff

01002ae6 <.LVL5>:
 1002ae6:	d00e      	beq.n	1002b06 <.LBB4>
 1002ae8:	4b93      	ldr	r3, [pc, #588]	; (1002d38 <.LVL36+0x2a>)
 1002aea:	79db      	ldrb	r3, [r3, #7]
 1002aec:	0699      	lsls	r1, r3, #26
 1002aee:	d51b      	bpl.n	1002b28 <.LVL13>
 1002af0:	08d3      	lsrs	r3, r2, #3
 1002af2:	4990      	ldr	r1, [pc, #576]	; (1002d34 <.LVL36+0x26>)
 1002af4:	5ccb      	ldrb	r3, [r1, r3]
 1002af6:	f002 0207 	and.w	r2, r2, #7

01002afa <.LVL6>:
 1002afa:	fa23 f202 	lsr.w	r2, r3, r2
 1002afe:	07d3      	lsls	r3, r2, #31
 1002b00:	d512      	bpl.n	1002b28 <.LVL13>

01002b02 <.LBE3>:
 1002b02:	2300      	movs	r3, #0
 1002b04:	e7d1      	b.n	1002aaa <.LBE2>

01002b06 <.LBB4>:
 1002b06:	2a3f      	cmp	r2, #63	; 0x3f
 1002b08:	d809      	bhi.n	1002b1e <.LVL11>
 1002b0a:	08d1      	lsrs	r1, r2, #3
 1002b0c:	488a      	ldr	r0, [pc, #552]	; (1002d38 <.LVL36+0x2a>)

01002b0e <.LVL9>:
 1002b0e:	5c41      	ldrb	r1, [r0, r1]
 1002b10:	f002 0207 	and.w	r2, r2, #7

01002b14 <.LVL10>:
 1002b14:	fa21 f202 	lsr.w	r2, r1, r2
 1002b18:	f012 0f01 	tst.w	r2, #1
 1002b1c:	e7c4      	b.n	1002aa8 <.LBB2>

01002b1e <.LVL11>:
 1002b1e:	4a87      	ldr	r2, [pc, #540]	; (1002d3c <.LVL38>)

01002b20 <.LVL12>:
 1002b20:	f992 2002 	ldrsb.w	r2, [r2, #2]
 1002b24:	2a00      	cmp	r2, #0
 1002b26:	dbc0      	blt.n	1002aaa <.LBE2>

01002b28 <.LVL13>:
 1002b28:	bdf8      	pop	{r3, r4, r5, r6, r7, pc}

01002b2a <.LBE4>:
 1002b2a:	2301      	movs	r3, #1
 1002b2c:	e7bd      	b.n	1002aaa <.LBE2>

01002b2e <.LVL15>:
 1002b2e:	2e13      	cmp	r6, #19
 1002b30:	f000 80b6 	beq.w	1002ca0 <.LVL27+0x14>
 1002b34:	2e30      	cmp	r6, #48	; 0x30
 1002b36:	f000 80e1 	beq.w	1002cfc <.LVL33+0x14>
 1002b3a:	bdf8      	pop	{r3, r4, r5, r6, r7, pc}
 1002b3c:	f241 0303 	movw	r3, #4099	; 0x1003
 1002b40:	429e      	cmp	r6, r3
 1002b42:	f000 8131 	beq.w	1002da8 <.LVL45+0x20>
 1002b46:	d80a      	bhi.n	1002b5e <.LVL15+0x30>
 1002b48:	f241 0301 	movw	r3, #4097	; 0x1001
 1002b4c:	429e      	cmp	r6, r3
 1002b4e:	f000 80f7 	beq.w	1002d40 <.LVL38+0x4>
 1002b52:	f241 0302 	movw	r3, #4098	; 0x1002
 1002b56:	429e      	cmp	r6, r3
 1002b58:	f000 8108 	beq.w	1002d6c <.LVL42+0x8>
 1002b5c:	bdf8      	pop	{r3, r4, r5, r6, r7, pc}
 1002b5e:	f241 0305 	movw	r3, #4101	; 0x1005
 1002b62:	429e      	cmp	r6, r3
 1002b64:	f000 8155 	beq.w	1002e12 <.LVL48+0x24>
 1002b68:	f240 813a 	bls.w	1002de0 <.LBB5>
 1002b6c:	2104      	movs	r1, #4
 1002b6e:	200b      	movs	r0, #11
 1002b70:	f012 fa12 	bl	1014f98 <HCI_TxMalloc>

01002b74 <.LVL18>:
 1002b74:	233e      	movs	r3, #62	; 0x3e
 1002b76:	8103      	strh	r3, [r0, #8]
 1002b78:	230b      	movs	r3, #11
 1002b7a:	7283      	strb	r3, [r0, #10]
 1002b7c:	68c3      	ldr	r3, [r0, #12]
 1002b7e:	4604      	mov	r4, r0

01002b80 <.LVL19>:
 1002b80:	2206      	movs	r2, #6
 1002b82:	701a      	strb	r2, [r3, #0]
 1002b84:	68e3      	ldr	r3, [r4, #12]
 1002b86:	88aa      	ldrh	r2, [r5, #4]
 1002b88:	f8a3 2001 	strh.w	r2, [r3, #1]
 1002b8c:	68e3      	ldr	r3, [r4, #12]
 1002b8e:	88ea      	ldrh	r2, [r5, #6]
 1002b90:	f8a3 2003 	strh.w	r2, [r3, #3]
 1002b94:	68e3      	ldr	r3, [r4, #12]
 1002b96:	892a      	ldrh	r2, [r5, #8]
 1002b98:	f8a3 2005 	strh.w	r2, [r3, #5]
 1002b9c:	68e3      	ldr	r3, [r4, #12]
 1002b9e:	896a      	ldrh	r2, [r5, #10]
 1002ba0:	f8a3 2007 	strh.w	r2, [r3, #7]
 1002ba4:	68e3      	ldr	r3, [r4, #12]
 1002ba6:	89aa      	ldrh	r2, [r5, #12]
 1002ba8:	f8a3 2009 	strh.w	r2, [r3, #9]
 1002bac:	e083      	b.n	1002cb6 <.LVL28+0x6>

01002bae <.LVL20>:
 1002bae:	f241 0210 	movw	r2, #4112	; 0x1010
 1002bb2:	4296      	cmp	r6, r2
 1002bb4:	f000 8231 	beq.w	100301a <.LVL70+0x36>
 1002bb8:	d83d      	bhi.n	1002c36 <.LVL23+0x36>
 1002bba:	f241 020c 	movw	r2, #4108	; 0x100c
 1002bbe:	4296      	cmp	r6, r2
 1002bc0:	f000 81b5 	beq.w	1002f2e <.LVL66+0x28>
 1002bc4:	d80a      	bhi.n	1002bdc <.LVL20+0x2e>
 1002bc6:	f241 020a 	movw	r2, #4106	; 0x100a
 1002bca:	4296      	cmp	r6, r2
 1002bcc:	f000 814b 	beq.w	1002e66 <.LVL53+0x22>
 1002bd0:	f241 030b 	movw	r3, #4107	; 0x100b
 1002bd4:	429e      	cmp	r6, r3
 1002bd6:	f000 818b 	beq.w	1002ef0 <.LVL63+0x6>
 1002bda:	bdf8      	pop	{r3, r4, r5, r6, r7, pc}
 1002bdc:	f241 030e 	movw	r3, #4110	; 0x100e
 1002be0:	429e      	cmp	r6, r3
 1002be2:	f000 81fe 	beq.w	1002fe2 <.LVL69+0x6>
 1002be6:	f240 81b1 	bls.w	1002f4c <.LVL66+0x46>
 1002bea:	7aa8      	ldrb	r0, [r5, #10]
 1002bec:	3008      	adds	r0, #8
 1002bee:	f01b fa03 	bl	101dff8 <HCI_MemPeek>

01002bf2 <.LVL22>:
 1002bf2:	2800      	cmp	r0, #0
 1002bf4:	d098      	beq.n	1002b28 <.LVL13>
 1002bf6:	7aa8      	ldrb	r0, [r5, #10]
 1002bf8:	2104      	movs	r1, #4
 1002bfa:	3008      	adds	r0, #8
 1002bfc:	f012 f9cc 	bl	1014f98 <HCI_TxMalloc>

01002c00 <.LVL23>:
 1002c00:	4604      	mov	r4, r0
 1002c02:	2800      	cmp	r0, #0
 1002c04:	d090      	beq.n	1002b28 <.LVL13>
 1002c06:	233e      	movs	r3, #62	; 0x3e
 1002c08:	8103      	strh	r3, [r0, #8]
 1002c0a:	7aab      	ldrb	r3, [r5, #10]
 1002c0c:	3308      	adds	r3, #8
 1002c0e:	7283      	strb	r3, [r0, #10]
 1002c10:	68c3      	ldr	r3, [r0, #12]
 1002c12:	220f      	movs	r2, #15
 1002c14:	701a      	strb	r2, [r3, #0]
 1002c16:	f01b f810 	bl	101dc3a <__pa_fn_0_a0_01_0>
 1002c1a:	68c3      	ldr	r3, [r0, #12]
 1002c1c:	7a2a      	ldrb	r2, [r5, #8]
 1002c1e:	715a      	strb	r2, [r3, #5]
 1002c20:	68c3      	ldr	r3, [r0, #12]
 1002c22:	7a6a      	ldrb	r2, [r5, #9]
 1002c24:	719a      	strb	r2, [r3, #6]
 1002c26:	68c3      	ldr	r3, [r0, #12]
 1002c28:	7aaa      	ldrb	r2, [r5, #10]
 1002c2a:	71da      	strb	r2, [r3, #7]
 1002c2c:	68c0      	ldr	r0, [r0, #12]
 1002c2e:	7aaa      	ldrb	r2, [r5, #10]
 1002c30:	68e9      	ldr	r1, [r5, #12]
 1002c32:	3008      	adds	r0, #8
 1002c34:	e1d2      	b.n	1002fdc <.LVL69>
 1002c36:	f241 0313 	movw	r3, #4115	; 0x1013
 1002c3a:	429e      	cmp	r6, r3
 1002c3c:	Address 0x01002c3c is out of bounds.


01002c3e <.LVL24>:
 1002c3e:	8225      	strh	r5, [r4, #16]
 1002c40:	d80a      	bhi.n	1002c58 <.LVL25+0x12>
 1002c42:	f241 0311 	movw	r3, #4113	; 0x1011

01002c46 <.LVL25>:
 1002c46:	429e      	cmp	r6, r3
 1002c48:	f000 81f9 	beq.w	100303e <.LVL71+0x4>
 1002c4c:	f241 0312 	movw	r3, #4114	; 0x1012
 1002c50:	429e      	cmp	r6, r3
 1002c52:	f000 8204 	beq.w	100305e <.LVL72+0x1c>
 1002c56:	bdf8      	pop	{r3, r4, r5, r6, r7, pc}
 1002c58:	f5b6 5f81 	cmp.w	r6, #4128	; 0x1020
 1002c5c:	f000 822d 	beq.w	10030ba <.LVL75+0x44>
 1002c60:	f241 0321 	movw	r3, #4129	; 0x1021
 1002c64:	429e      	cmp	r6, r3
 1002c66:	f000 8237 	beq.w	10030d8 <.LVL75+0x62>
 1002c6a:	f241 0314 	movw	r3, #4116	; 0x1014
 1002c6e:	429e      	cmp	r6, r3
 1002c70:	f47f af5a 	bne.w	1002b28 <.LVL13>
 1002c74:	2104      	movs	r1, #4
 1002c76:	4608      	mov	r0, r1
 1002c78:	f012 f98e 	bl	1014f98 <HCI_TxMalloc>
 1002c7c:	4604      	mov	r4, r0
 1002c7e:	2800      	cmp	r0, #0
 1002c80:	f43f af52 	beq.w	1002b28 <.LVL13>
 1002c84:	233e      	movs	r3, #62	; 0x3e
 1002c86:	8103      	strh	r3, [r0, #8]
 1002c88:	2304      	movs	r3, #4
 1002c8a:	7283      	strb	r3, [r0, #10]

01002c8c <.LVL27>:
 1002c8c:	68c3      	ldr	r3, [r0, #12]
 1002c8e:	2214      	movs	r2, #20
 1002c90:	701a      	strb	r2, [r3, #0]
 1002c92:	68c3      	ldr	r3, [r0, #12]
 1002c94:	88aa      	ldrh	r2, [r5, #4]
 1002c96:	f8a3 2001 	strh.w	r2, [r3, #1]
 1002c9a:	68c3      	ldr	r3, [r0, #12]
 1002c9c:	79aa      	ldrb	r2, [r5, #6]
 1002c9e:	e018      	b.n	1002cd2 <.LVL29+0x1a>
 1002ca0:	2104      	movs	r1, #4
 1002ca2:	2005      	movs	r0, #5
 1002ca4:	f012 f978 	bl	1014f98 <HCI_TxMalloc>
 1002ca8:	2305      	movs	r3, #5
 1002caa:	f01a ff6e 	bl	101db8a <__pa_fn_0_27_01_0>
 1002cae:	892a      	ldrh	r2, [r5, #8]

01002cb0 <.LVL28>:
 1002cb0:	f8a3 2003 	strh.w	r2, [r3, #3]
 1002cb4:	4604      	mov	r4, r0
 1002cb6:	4620      	mov	r0, r4

01002cb8 <.LVL29>:
 1002cb8:	e8bd 40f8 	ldmia.w	sp!, {r3, r4, r5, r6, r7, lr}
 1002cbc:	f016 bc4c 	b.w	1019558 <HCI_HalTx>
 1002cc0:	2104      	movs	r1, #4
 1002cc2:	4608      	mov	r0, r1
 1002cc4:	f012 f968 	bl	1014f98 <HCI_TxMalloc>
 1002cc8:	2304      	movs	r3, #4
 1002cca:	f01a ff5e 	bl	101db8a <__pa_fn_0_27_01_0>
 1002cce:	7a2a      	ldrb	r2, [r5, #8]
 1002cd0:	4604      	mov	r4, r0
 1002cd2:	70da      	strb	r2, [r3, #3]
 1002cd4:	e7ef      	b.n	1002cb6 <.LVL28+0x6>

01002cd6 <.LVL30>:
 1002cd6:	2104      	movs	r1, #4
 1002cd8:	2008      	movs	r0, #8
 1002cda:	Address 0x01002cda is out of bounds.


01002cdc <.LCFI1>:
 1002cdc:	f95d 2308 	ldr??.w	r2, [sp, <undefined>]

01002ce0 <.LCFI2>:
 1002ce0:	f01a ff53 	bl	101db8a <__pa_fn_0_27_01_0>
 1002ce4:	7a2a      	ldrb	r2, [r5, #8]
 1002ce6:	70da      	strb	r2, [r3, #3]

01002ce8 <.LVL33>:
 1002ce8:	68c3      	ldr	r3, [r0, #12]
 1002cea:	f8b5 2009 	ldrh.w	r2, [r5, #9]
 1002cee:	809a      	strh	r2, [r3, #4]
 1002cf0:	68c3      	ldr	r3, [r0, #12]
 1002cf2:	f8b5 200b 	ldrh.w	r2, [r5, #11]
 1002cf6:	80da      	strh	r2, [r3, #6]
 1002cf8:	4604      	mov	r4, r0
 1002cfa:	e7dc      	b.n	1002cb6 <.LVL28+0x6>
 1002cfc:	2104      	movs	r1, #4
 1002cfe:	2003      	movs	r0, #3
 1002d00:	Address 0x01002d00 is out of bounds.


01002d02 <.LVL34>:
 1002d02:	f94a 2303 	vst2.8	{d18-d21}, [sl], r3

01002d06 <.LVL35>:
 1002d06:	7283      	strb	r3, [r0, #10]
 1002d08:	8106      	strh	r6, [r0, #8]
 1002d0a:	68c3      	ldr	r3, [r0, #12]
 1002d0c:	792a      	ldrb	r2, [r5, #4]

01002d0e <.LVL36>:
 1002d0e:	701a      	strb	r2, [r3, #0]
 1002d10:	68c3      	ldr	r3, [r0, #12]
 1002d12:	88ea      	ldrh	r2, [r5, #6]
 1002d14:	4604      	mov	r4, r0
 1002d16:	f8a3 2001 	strh.w	r2, [r3, #1]
 1002d1a:	e7cc      	b.n	1002cb6 <.LVL28+0x6>
 1002d1c:	2104      	movs	r1, #4
 1002d1e:	2002      	movs	r0, #2
 1002d20:	f012 f93a 	bl	1014f98 <HCI_TxMalloc>
 1002d24:	2302      	movs	r3, #2
 1002d26:	7283      	strb	r3, [r0, #10]
 1002d28:	8106      	strh	r6, [r0, #8]
 1002d2a:	68c3      	ldr	r3, [r0, #12]
 1002d2c:	88aa      	ldrh	r2, [r5, #4]
 1002d2e:	801a      	strh	r2, [r3, #0]
 1002d30:	4604      	mov	r4, r0
 1002d32:	e7c0      	b.n	1002cb6 <.LVL28+0x6>
 1002d34:	20000410 	.word	0x20000410
 1002d38:	0418      	.short	0x0418

01002d3a <.LVL37>:
 1002d3a:	2000      	.short	0x2000

01002d3c <.LVL38>:
 1002d3c:	20000408 	.word	0x20000408
 1002d40:	2104      	movs	r1, #4
 1002d42:	2013      	movs	r0, #19

01002d44 <.LVL39>:
 1002d44:	f012 f928 	bl	1014f98 <HCI_TxMalloc>
 1002d48:	4604      	mov	r4, r0
 1002d4a:	2800      	cmp	r0, #0
 1002d4c:	f43f aeec 	beq.w	1002b28 <.LVL13>
 1002d50:	f019 feaa 	bl	101caa8 <__pa_fn_0_98_01_0>
 1002d54:	8a2a      	ldrh	r2, [r5, #16]

01002d56 <.LVL40>:
 1002d56:	819a      	strh	r2, [r3, #12]
 1002d58:	68c3      	ldr	r3, [r0, #12]
 1002d5a:	8a6a      	ldrh	r2, [r5, #18]

01002d5c <.LVL41>:
 1002d5c:	81da      	strh	r2, [r3, #14]
 1002d5e:	68c3      	ldr	r3, [r0, #12]
 1002d60:	8aaa      	ldrh	r2, [r5, #20]
 1002d62:	821a      	strh	r2, [r3, #16]

01002d64 <.LVL42>:
 1002d64:	68c3      	ldr	r3, [r0, #12]
 1002d66:	7daa      	ldrb	r2, [r5, #22]
 1002d68:	749a      	strb	r2, [r3, #18]
 1002d6a:	e7a4      	b.n	1002cb6 <.LVL28+0x6>
 1002d6c:	7b6e      	ldrb	r6, [r5, #13]
 1002d6e:	f106 070c 	add.w	r7, r6, #12

01002d72 <.LVL43>:
 1002d72:	2104      	movs	r1, #4
 1002d74:	b2b8      	uxth	r0, r7
 1002d76:	f012 f90f 	bl	1014f98 <HCI_TxMalloc>
 1002d7a:	4604      	mov	r4, r0
 1002d7c:	2800      	cmp	r0, #0
 1002d7e:	Address 0x01002d7e is out of bounds.


01002d80 <.LVL44>:
 1002d80:	aed3      	add	r6, sp, #844	; 0x34c
 1002d82:	233e      	movs	r3, #62	; 0x3e
 1002d84:	8103      	strh	r3, [r0, #8]
 1002d86:	68c3      	ldr	r3, [r0, #12]

01002d88 <.LVL45>:
 1002d88:	7287      	strb	r7, [r0, #10]
 1002d8a:	2202      	movs	r2, #2
 1002d8c:	f018 fca3 	bl	101b6d6 <__pa_fn_0_12_01_0>
 1002d90:	729e      	strb	r6, [r3, #10]
 1002d92:	68c0      	ldr	r0, [r0, #12]
 1002d94:	6929      	ldr	r1, [r5, #16]
 1002d96:	4632      	mov	r2, r6
 1002d98:	300b      	adds	r0, #11
 1002d9a:	f01a ffa6 	bl	101dcea <memcpy>
 1002d9e:	68e3      	ldr	r3, [r4, #12]
 1002da0:	441e      	add	r6, r3
 1002da2:	7d2b      	ldrb	r3, [r5, #20]
 1002da4:	72f3      	strb	r3, [r6, #11]
 1002da6:	e786      	b.n	1002cb6 <.LVL28+0x6>
 1002da8:	2104      	movs	r1, #4
 1002daa:	200a      	movs	r0, #10
 1002dac:	f012 f8f4 	bl	1014f98 <HCI_TxMalloc>
 1002db0:	233e      	movs	r3, #62	; 0x3e
 1002db2:	8103      	strh	r3, [r0, #8]
 1002db4:	230a      	movs	r3, #10
 1002db6:	7283      	strb	r3, [r0, #10]
 1002db8:	68c3      	ldr	r3, [r0, #12]
 1002dba:	2203      	movs	r2, #3
 1002dbc:	701a      	strb	r2, [r3, #0]
 1002dbe:	68c3      	ldr	r3, [r0, #12]
 1002dc0:	792a      	ldrb	r2, [r5, #4]
 1002dc2:	705a      	strb	r2, [r3, #1]
 1002dc4:	68c3      	ldr	r3, [r0, #12]
 1002dc6:	88ea      	ldrh	r2, [r5, #6]
 1002dc8:	805a      	strh	r2, [r3, #2]
 1002dca:	68c3      	ldr	r3, [r0, #12]
 1002dcc:	892a      	ldrh	r2, [r5, #8]
 1002dce:	809a      	strh	r2, [r3, #4]
 1002dd0:	68c3      	ldr	r3, [r0, #12]
 1002dd2:	896a      	ldrh	r2, [r5, #10]
 1002dd4:	80da      	strh	r2, [r3, #6]
 1002dd6:	68c3      	ldr	r3, [r0, #12]
 1002dd8:	89aa      	ldrh	r2, [r5, #12]
 1002dda:	811a      	strh	r2, [r3, #8]
 1002ddc:	4604      	mov	r4, r0
 1002dde:	e76a      	b.n	1002cb6 <.LVL28+0x6>

01002de0 <.LBB5>:
 1002de0:	2104      	movs	r1, #4

01002de2 <.LVL47>:
 1002de2:	200c      	movs	r0, #12
 1002de4:	f012 f8d8 	bl	1014f98 <HCI_TxMalloc>
 1002de8:	233e      	movs	r3, #62	; 0x3e
 1002dea:	8103      	strh	r3, [r0, #8]
 1002dec:	230c      	movs	r3, #12

01002dee <.LVL48>:
 1002dee:	7283      	strb	r3, [r0, #10]
 1002df0:	68c3      	ldr	r3, [r0, #12]
 1002df2:	2204      	movs	r2, #4
 1002df4:	701a      	strb	r2, [r3, #0]
 1002df6:	68c3      	ldr	r3, [r0, #12]
 1002df8:	792a      	ldrb	r2, [r5, #4]
 1002dfa:	705a      	strb	r2, [r3, #1]
 1002dfc:	68c3      	ldr	r3, [r0, #12]
 1002dfe:	88ea      	ldrh	r2, [r5, #6]
 1002e00:	805a      	strh	r2, [r3, #2]
 1002e02:	68c2      	ldr	r2, [r0, #12]
 1002e04:	f855 3f08 	ldr.w	r3, [r5, #8]!
 1002e08:	6053      	str	r3, [r2, #4]
 1002e0a:	686b      	ldr	r3, [r5, #4]
 1002e0c:	6093      	str	r3, [r2, #8]
 1002e0e:	4604      	mov	r4, r0
 1002e10:	e751      	b.n	1002cb6 <.LVL28+0x6>
 1002e12:	2104      	movs	r1, #4
 1002e14:	200d      	movs	r0, #13
 1002e16:	f012 f8bf 	bl	1014f98 <HCI_TxMalloc>
 1002e1a:	233e      	movs	r3, #62	; 0x3e
 1002e1c:	8103      	strh	r3, [r0, #8]
 1002e1e:	230d      	movs	r3, #13
 1002e20:	7283      	strb	r3, [r0, #10]
 1002e22:	68c3      	ldr	r3, [r0, #12]
 1002e24:	2205      	movs	r2, #5
 1002e26:	701a      	strb	r2, [r3, #0]

01002e28 <.LVL49>:
 1002e28:	68c3      	ldr	r3, [r0, #12]
 1002e2a:	88aa      	ldrh	r2, [r5, #4]
 1002e2c:	f8a3 2001 	strh.w	r2, [r3, #1]
 1002e30:	462a      	mov	r2, r5

01002e32 <.LVL50>:
 1002e32:	68c1      	ldr	r1, [r0, #12]
 1002e34:	Address 0x01002e34 is out of bounds.


01002e36 <.LVL51>:
 1002e36:	3f06      	subs	r7, #6
 1002e38:	f8c1 3003 	str.w	r3, [r1, #3]

01002e3c <.LBE5>:
 1002e3c:	6853      	ldr	r3, [r2, #4]
 1002e3e:	f8c1 3007 	str.w	r3, [r1, #7]
 1002e42:	68c3      	ldr	r3, [r0, #12]

01002e44 <.LVL53>:
 1002e44:	89ea      	ldrh	r2, [r5, #14]
 1002e46:	f8a3 200b 	strh.w	r2, [r3, #11]
 1002e4a:	4604      	mov	r4, r0
 1002e4c:	e733      	b.n	1002cb6 <.LVL28+0x6>
 1002e4e:	2104      	movs	r1, #4
 1002e50:	200b      	movs	r0, #11
 1002e52:	f012 f8a1 	bl	1014f98 <HCI_TxMalloc>
 1002e56:	233e      	movs	r3, #62	; 0x3e
 1002e58:	8103      	strh	r3, [r0, #8]
 1002e5a:	230b      	movs	r3, #11
 1002e5c:	7283      	strb	r3, [r0, #10]
 1002e5e:	4604      	mov	r4, r0
 1002e60:	68c3      	ldr	r3, [r0, #12]
 1002e62:	2207      	movs	r2, #7
 1002e64:	e68d      	b.n	1002b82 <.LVL19+0x2>
 1002e66:	2104      	movs	r1, #4
 1002e68:	2b00      	cmp	r3, #0
 1002e6a:	d02c      	beq.n	1002ec6 <.LVL60+0x18>
 1002e6c:	201f      	movs	r0, #31
 1002e6e:	f012 f893 	bl	1014f98 <HCI_TxMalloc>

01002e72 <.LVL54>:
 1002e72:	4604      	mov	r4, r0

01002e74 <.LVL55>:
 1002e74:	2800      	cmp	r0, #0
 1002e76:	f43f ae57 	beq.w	1002b28 <.LVL13>
 1002e7a:	233e      	movs	r3, #62	; 0x3e

01002e7c <.LVL56>:
 1002e7c:	8103      	strh	r3, [r0, #8]
 1002e7e:	231f      	movs	r3, #31
 1002e80:	7283      	strb	r3, [r0, #10]
 1002e82:	68c3      	ldr	r3, [r0, #12]
 1002e84:	220a      	movs	r2, #10
 1002e86:	701a      	strb	r2, [r3, #0]
 1002e88:	f01b fcd4 	bl	101e834 <__pa_fn_0_14_01_0>
 1002e8c:	462b      	mov	r3, r5
 1002e8e:	68c2      	ldr	r2, [r0, #12]
 1002e90:	f853 1f10 	ldr.w	r1, [r3, #16]!
 1002e94:	60d1      	str	r1, [r2, #12]
 1002e96:	889b      	ldrh	r3, [r3, #4]
 1002e98:	8213      	strh	r3, [r2, #16]
 1002e9a:	462b      	mov	r3, r5

01002e9c <.LVL57>:
 1002e9c:	68c2      	ldr	r2, [r0, #12]
 1002e9e:	f853 1f16 	ldr.w	r1, [r3, #22]!
 1002ea2:	Address 0x01002ea2 is out of bounds.


01002ea4 <.LVL58>:
 1002ea4:	1012      	asrs	r2, r2, #32

01002ea6 <.LVL59>:
 1002ea6:	889b      	ldrh	r3, [r3, #4]
 1002ea8:	82d3      	strh	r3, [r2, #22]
 1002eaa:	68c3      	ldr	r3, [r0, #12]
 1002eac:	8baa      	ldrh	r2, [r5, #28]

01002eae <.LVL60>:
 1002eae:	831a      	strh	r2, [r3, #24]
 1002eb0:	68c3      	ldr	r3, [r0, #12]
 1002eb2:	8bea      	ldrh	r2, [r5, #30]
 1002eb4:	835a      	strh	r2, [r3, #26]
 1002eb6:	68c3      	ldr	r3, [r0, #12]
 1002eb8:	8c2a      	ldrh	r2, [r5, #32]
 1002eba:	839a      	strh	r2, [r3, #28]
 1002ebc:	68c3      	ldr	r3, [r0, #12]
 1002ebe:	f895 2022 	ldrb.w	r2, [r5, #34]	; 0x22
 1002ec2:	779a      	strb	r2, [r3, #30]
 1002ec4:	e6f7      	b.n	1002cb6 <.LVL28+0x6>
 1002ec6:	2013      	movs	r0, #19
 1002ec8:	f012 f866 	bl	1014f98 <HCI_TxMalloc>
 1002ecc:	4604      	mov	r4, r0
 1002ece:	2800      	cmp	r0, #0
 1002ed0:	f43f ae2a 	beq.w	1002b28 <.LVL13>
 1002ed4:	f019 fde8 	bl	101caa8 <__pa_fn_0_98_01_0>
 1002ed8:	8baa      	ldrh	r2, [r5, #28]
 1002eda:	819a      	strh	r2, [r3, #12]
 1002edc:	68c3      	ldr	r3, [r0, #12]
 1002ede:	8bea      	ldrh	r2, [r5, #30]

01002ee0 <.LVL61>:
 1002ee0:	81da      	strh	r2, [r3, #14]

01002ee2 <.LVL62>:
 1002ee2:	68c3      	ldr	r3, [r0, #12]
 1002ee4:	8c2a      	ldrh	r2, [r5, #32]
 1002ee6:	821a      	strh	r2, [r3, #16]
 1002ee8:	68c3      	ldr	r3, [r0, #12]

01002eea <.LVL63>:
 1002eea:	f895 2022 	ldrb.w	r2, [r5, #34]	; 0x22
 1002eee:	e73b      	b.n	1002d68 <.LVL42+0x4>
 1002ef0:	2104      	movs	r1, #4
 1002ef2:	2012      	movs	r0, #18

01002ef4 <.LVL64>:
 1002ef4:	f012 f850 	bl	1014f98 <HCI_TxMalloc>
 1002ef8:	4604      	mov	r4, r0

01002efa <.LVL65>:
 1002efa:	2800      	cmp	r0, #0
 1002efc:	f43f ae14 	beq.w	1002b28 <.LVL13>
 1002f00:	233e      	movs	r3, #62	; 0x3e
 1002f02:	8103      	strh	r3, [r0, #8]
 1002f04:	2312      	movs	r3, #18

01002f06 <.LVL66>:
 1002f06:	7283      	strb	r3, [r0, #10]
 1002f08:	68c3      	ldr	r3, [r0, #12]
 1002f0a:	220b      	movs	r2, #11
 1002f0c:	f018 fbe3 	bl	101b6d6 <__pa_fn_0_12_01_0>
 1002f10:	7b6a      	ldrb	r2, [r5, #13]
 1002f12:	729a      	strb	r2, [r3, #10]
 1002f14:	462b      	mov	r3, r5
 1002f16:	68c2      	ldr	r2, [r0, #12]
 1002f18:	f853 1f0e 	ldr.w	r1, [r3, #14]!
 1002f1c:	f8c2 100b 	str.w	r1, [r2, #11]
 1002f20:	889b      	ldrh	r3, [r3, #4]
 1002f22:	f8a2 300f 	strh.w	r3, [r2, #15]
 1002f26:	68c3      	ldr	r3, [r0, #12]
 1002f28:	7d2a      	ldrb	r2, [r5, #20]
 1002f2a:	745a      	strb	r2, [r3, #17]
 1002f2c:	e6c3      	b.n	1002cb6 <.LVL28+0x6>
 1002f2e:	2104      	movs	r1, #4
 1002f30:	2006      	movs	r0, #6
 1002f32:	f012 f831 	bl	1014f98 <HCI_TxMalloc>
 1002f36:	233e      	movs	r3, #62	; 0x3e
 1002f38:	8103      	strh	r3, [r0, #8]
 1002f3a:	2306      	movs	r3, #6
 1002f3c:	7283      	strb	r3, [r0, #10]
 1002f3e:	68c3      	ldr	r3, [r0, #12]
 1002f40:	220c      	movs	r2, #12
 1002f42:	f01a f9a3 	bl	101d28c <__pa_fn_0_15_01_0>
 1002f46:	4604      	mov	r4, r0
 1002f48:	715a      	strb	r2, [r3, #5]
 1002f4a:	e6b4      	b.n	1002cb6 <.LVL28+0x6>
 1002f4c:	7f68      	ldrb	r0, [r5, #29]
 1002f4e:	2104      	movs	r1, #4
 1002f50:	301a      	adds	r0, #26
 1002f52:	f012 f821 	bl	1014f98 <HCI_TxMalloc>
 1002f56:	4604      	mov	r4, r0
 1002f58:	2800      	cmp	r0, #0
 1002f5a:	f43f ade5 	beq.w	1002b28 <.LVL13>
 1002f5e:	233e      	movs	r3, #62	; 0x3e
 1002f60:	8103      	strh	r3, [r0, #8]
 1002f62:	7f6b      	ldrb	r3, [r5, #29]
 1002f64:	331a      	adds	r3, #26
 1002f66:	7283      	strb	r3, [r0, #10]
 1002f68:	68c3      	ldr	r3, [r0, #12]
 1002f6a:	220d      	movs	r2, #13
 1002f6c:	701a      	strb	r2, [r3, #0]
 1002f6e:	68c3      	ldr	r3, [r0, #12]
 1002f70:	792a      	ldrb	r2, [r5, #4]
 1002f72:	705a      	strb	r2, [r3, #1]
 1002f74:	68c3      	ldr	r3, [r0, #12]
 1002f76:	88ea      	ldrh	r2, [r5, #6]
 1002f78:	805a      	strh	r2, [r3, #2]
 1002f7a:	68c3      	ldr	r3, [r0, #12]
 1002f7c:	7a2a      	ldrb	r2, [r5, #8]

01002f7e <.LVL67>:
 1002f7e:	711a      	strb	r2, [r3, #4]
 1002f80:	462b      	mov	r3, r5
 1002f82:	68c2      	ldr	r2, [r0, #12]

01002f84 <.LVL68>:
 1002f84:	f853 1f09 	ldr.w	r1, [r3, #9]!
 1002f88:	f8c2 1005 	str.w	r1, [r2, #5]
 1002f8c:	889b      	ldrh	r3, [r3, #4]
 1002f8e:	f8a2 3009 	strh.w	r3, [r2, #9]
 1002f92:	68c3      	ldr	r3, [r0, #12]
 1002f94:	7bea      	ldrb	r2, [r5, #15]
 1002f96:	72da      	strb	r2, [r3, #11]
 1002f98:	68c3      	ldr	r3, [r0, #12]
 1002f9a:	7c2a      	ldrb	r2, [r5, #16]
 1002f9c:	731a      	strb	r2, [r3, #12]
 1002f9e:	68c3      	ldr	r3, [r0, #12]
 1002fa0:	7c6a      	ldrb	r2, [r5, #17]
 1002fa2:	735a      	strb	r2, [r3, #13]
 1002fa4:	68c3      	ldr	r3, [r0, #12]
 1002fa6:	7caa      	ldrb	r2, [r5, #18]
 1002fa8:	739a      	strb	r2, [r3, #14]
 1002faa:	68c3      	ldr	r3, [r0, #12]
 1002fac:	7cea      	ldrb	r2, [r5, #19]
 1002fae:	73da      	strb	r2, [r3, #15]
 1002fb0:	68c3      	ldr	r3, [r0, #12]
 1002fb2:	8aaa      	ldrh	r2, [r5, #20]
 1002fb4:	821a      	strh	r2, [r3, #16]
 1002fb6:	68c3      	ldr	r3, [r0, #12]
 1002fb8:	7daa      	ldrb	r2, [r5, #22]
 1002fba:	749a      	strb	r2, [r3, #18]
 1002fbc:	462b      	mov	r3, r5
 1002fbe:	68c2      	ldr	r2, [r0, #12]
 1002fc0:	f853 1f17 	ldr.w	r1, [r3, #23]!
 1002fc4:	f8c2 1013 	str.w	r1, [r2, #19]
 1002fc8:	889b      	ldrh	r3, [r3, #4]
 1002fca:	f8a2 3017 	strh.w	r3, [r2, #23]
 1002fce:	68c3      	ldr	r3, [r0, #12]
 1002fd0:	7f6a      	ldrb	r2, [r5, #29]
 1002fd2:	765a      	strb	r2, [r3, #25]
 1002fd4:	68c0      	ldr	r0, [r0, #12]
 1002fd6:	7f6a      	ldrb	r2, [r5, #29]
 1002fd8:	6a29      	ldr	r1, [r5, #32]
 1002fda:	301a      	adds	r0, #26

01002fdc <.LVL69>:
 1002fdc:	f01a fe85 	bl	101dcea <memcpy>
 1002fe0:	e669      	b.n	1002cb6 <.LVL28+0x6>
 1002fe2:	2104      	movs	r1, #4

01002fe4 <.LVL70>:
 1002fe4:	2010      	movs	r0, #16
 1002fe6:	f011 ffd7 	bl	1014f98 <HCI_TxMalloc>
 1002fea:	4604      	mov	r4, r0
 1002fec:	2800      	cmp	r0, #0
 1002fee:	f43f ad9b 	beq.w	1002b28 <.LVL13>
 1002ff2:	233e      	movs	r3, #62	; 0x3e
 1002ff4:	8103      	strh	r3, [r0, #8]
 1002ff6:	2310      	movs	r3, #16
 1002ff8:	7283      	strb	r3, [r0, #10]
 1002ffa:	68c3      	ldr	r3, [r0, #12]
 1002ffc:	220e      	movs	r2, #14
 1002ffe:	701a      	strb	r2, [r3, #0]
 1003000:	f01b fc18 	bl	101e834 <__pa_fn_0_14_01_0>
 1003004:	68c3      	ldr	r3, [r0, #12]
 1003006:	7c2a      	ldrb	r2, [r5, #16]
 1003008:	731a      	strb	r2, [r3, #12]
 100300a:	68c3      	ldr	r3, [r0, #12]
 100300c:	8a6a      	ldrh	r2, [r5, #18]
 100300e:	f8a3 200d 	strh.w	r2, [r3, #13]
 1003012:	68c3      	ldr	r3, [r0, #12]
 1003014:	7d2a      	ldrb	r2, [r5, #20]
 1003016:	73da      	strb	r2, [r3, #15]
 1003018:	e64d      	b.n	1002cb6 <.LVL28+0x6>
 100301a:	2104      	movs	r1, #4
 100301c:	2003      	movs	r0, #3
 100301e:	f011 ffbb 	bl	1014f98 <HCI_TxMalloc>
 1003022:	4604      	mov	r4, r0
 1003024:	2800      	cmp	r0, #0
 1003026:	f43f ad7f 	beq.w	1002b28 <.LVL13>
 100302a:	233e      	movs	r3, #62	; 0x3e
 100302c:	8103      	strh	r3, [r0, #8]
 100302e:	2303      	movs	r3, #3
 1003030:	7283      	strb	r3, [r0, #10]
 1003032:	68c3      	ldr	r3, [r0, #12]
 1003034:	2210      	movs	r2, #16
 1003036:	701a      	strb	r2, [r3, #0]
 1003038:	68c3      	ldr	r3, [r0, #12]

0100303a <.LVL71>:
 100303a:	88aa      	ldrh	r2, [r5, #4]
 100303c:	e66b      	b.n	1002d16 <.LVL36+0x8>
 100303e:	2104      	movs	r1, #4
 1003040:	2001      	movs	r0, #1

01003042 <.LVL72>:
 1003042:	f011 ffa9 	bl	1014f98 <HCI_TxMalloc>
 1003046:	4604      	mov	r4, r0
 1003048:	2800      	cmp	r0, #0
 100304a:	f43f ad6d 	beq.w	1002b28 <.LVL13>
 100304e:	233e      	movs	r3, #62	; 0x3e
 1003050:	8103      	strh	r3, [r0, #8]
 1003052:	2301      	movs	r3, #1
 1003054:	7283      	strb	r3, [r0, #10]
 1003056:	68c3      	ldr	r3, [r0, #12]
 1003058:	2211      	movs	r2, #17
 100305a:	701a      	strb	r2, [r3, #0]
 100305c:	e62b      	b.n	1002cb6 <.LVL28+0x6>
 100305e:	2104      	movs	r1, #4
 1003060:	2006      	movs	r0, #6
 1003062:	f011 ff99 	bl	1014f98 <HCI_TxMalloc>
 1003066:	4604      	mov	r4, r0

01003068 <.LVL73>:
 1003068:	2800      	cmp	r0, #0
 100306a:	Address 0x0100306a is out of bounds.


0100306c <.LVL74>:
 100306c:	ad5d      	add	r5, sp, #372	; 0x174
 100306e:	233e      	movs	r3, #62	; 0x3e
 1003070:	8103      	strh	r3, [r0, #8]
 1003072:	2306      	movs	r3, #6
 1003074:	7283      	strb	r3, [r0, #10]

01003076 <.LVL75>:
 1003076:	68c3      	ldr	r3, [r0, #12]
 1003078:	2212      	movs	r2, #18
 100307a:	f01b f89b 	bl	101e1b4 <__pa_fn_0_13_01_0>
 100307e:	88ea      	ldrh	r2, [r5, #6]
 1003080:	f8a3 2003 	strh.w	r2, [r3, #3]
 1003084:	68c3      	ldr	r3, [r0, #12]
 1003086:	7a2a      	ldrb	r2, [r5, #8]
 1003088:	e75e      	b.n	1002f48 <.LVL66+0x42>
 100308a:	2104      	movs	r1, #4
 100308c:	2009      	movs	r0, #9
 100308e:	f011 ff83 	bl	1014f98 <HCI_TxMalloc>
 1003092:	4604      	mov	r4, r0
 1003094:	2800      	cmp	r0, #0
 1003096:	f43f ad47 	beq.w	1002b28 <.LVL13>
 100309a:	233e      	movs	r3, #62	; 0x3e
 100309c:	8103      	strh	r3, [r0, #8]
 100309e:	2309      	movs	r3, #9
 10030a0:	7283      	strb	r3, [r0, #10]
 10030a2:	68c3      	ldr	r3, [r0, #12]
 10030a4:	2213      	movs	r2, #19
 10030a6:	f01b f885 	bl	101e1b4 <__pa_fn_0_13_01_0>
 10030aa:	f855 2f06 	ldr.w	r2, [r5, #6]!
 10030ae:	f8c3 2003 	str.w	r2, [r3, #3]
 10030b2:	88aa      	ldrh	r2, [r5, #4]
 10030b4:	f8a3 2007 	strh.w	r2, [r3, #7]
 10030b8:	e5fd      	b.n	1002cb6 <.LVL28+0x6>
 10030ba:	2104      	movs	r1, #4
 10030bc:	2005      	movs	r0, #5
 10030be:	f011 ff6b 	bl	1014f98 <HCI_TxMalloc>
 10030c2:	233e      	movs	r3, #62	; 0x3e
 10030c4:	8103      	strh	r3, [r0, #8]
 10030c6:	2305      	movs	r3, #5
 10030c8:	7283      	strb	r3, [r0, #10]
 10030ca:	68c3      	ldr	r3, [r0, #12]
 10030cc:	2220      	movs	r2, #32
 10030ce:	701a      	strb	r2, [r3, #0]
 10030d0:	f01a fdb3 	bl	101dc3a <__pa_fn_0_a0_01_0>
 10030d4:	4604      	mov	r4, r0
 10030d6:	e5ee      	b.n	1002cb6 <.LVL28+0x6>
 10030d8:	2104      	movs	r1, #4
 10030da:	2009      	movs	r0, #9
 10030dc:	f011 ff5c 	bl	1014f98 <HCI_TxMalloc>
 10030e0:	233e      	movs	r3, #62	; 0x3e
 10030e2:	8103      	strh	r3, [r0, #8]
 10030e4:	2309      	movs	r3, #9
 10030e6:	7283      	strb	r3, [r0, #10]
 10030e8:	68c3      	ldr	r3, [r0, #12]
 10030ea:	2221      	movs	r2, #33	; 0x21
 10030ec:	f01a f8ce 	bl	101d28c <__pa_fn_0_15_01_0>
 10030f0:	715a      	strb	r2, [r3, #5]
 10030f2:	68c3      	ldr	r3, [r0, #12]
 10030f4:	7aaa      	ldrb	r2, [r5, #10]

010030f6 <.LVL76>:
 10030f6:	719a      	strb	r2, [r3, #6]
 10030f8:	68c3      	ldr	r3, [r0, #12]
 10030fa:	7aea      	ldrb	r2, [r5, #11]
 10030fc:	71da      	strb	r2, [r3, #7]
 10030fe:	68c3      	ldr	r3, [r0, #12]

01003100 <.LVL77>:
 1003100:	7b2a      	ldrb	r2, [r5, #12]

01003102 <.LVL78>:
 1003102:	721a      	strb	r2, [r3, #8]
 1003104:	4604      	mov	r4, r0
 1003106:	e5d6      	b.n	1002cb6 <.LVL28+0x6>

Disassembly of section .text.ble_lm_AdvExtPrepDescForExtNCNSAdvEvt%91:

01003108 <ble_lm_AdvExtPrepDescForExtNCNSAdvEvt>:
 1003108:	e92d 4ff0 	stmdb	sp!, {r4, r5, r6, r7, r8, r9, sl, fp, lr}

0100310c <.LCFI42>:
 100310c:	b091      	sub	sp, #68	; 0x44

0100310e <.LCFI43>:
 100310e:	f01b ffd7 	bl	101f0c0 <__pa_fn_0_6d_01_0>

01003112 <.LVL677>:
 1003112:	4698      	mov	r8, r3
 1003114:	9305      	str	r3, [sp, #20]
 1003116:	9907      	ldr	r1, [sp, #28]
 1003118:	40d9      	lsrs	r1, r3

0100311a <.LVL678>:
 100311a:	07c9      	lsls	r1, r1, #31
 100311c:	b2da      	uxtb	r2, r3
 100311e:	bf48      	it	mi
 1003120:	Address 0x01003120 is out of bounds.


01003122 <.LVL679>:
 1003122:	0801      	lsrs	r1, r0, #32
 1003124:	f103 0301 	add.w	r3, r3, #1

01003128 <.LVL680>:
 1003128:	bf44      	itt	mi
 100312a:	fa5f f888 	uxtbmi.w	r8, r8
 100312e:	9205      	strmi	r2, [sp, #20]
 1003130:	2b03      	cmp	r3, #3

01003132 <.LVL681>:
 1003132:	d1f0      	bne.n	1003116 <.LVL677+0x4>

01003134 <.LVL682>:
 1003134:	f8b5 306e 	ldrh.w	r3, [r5, #110]	; 0x6e

01003138 <.LVL683>:
 1003138:	f895 20c9 	ldrb.w	r2, [r5, #201]	; 0xc9
 100313c:	b92b      	cbnz	r3, 100314a <.LVL683+0x12>
 100313e:	2a01      	cmp	r2, #1
 1003140:	d003      	beq.n	100314a <.LVL683+0x12>
 1003142:	f895 30cc 	ldrb.w	r3, [r5, #204]	; 0xcc
 1003146:	2b00      	cmp	r3, #0
 1003148:	d060      	beq.n	100320c <.LVL704+0x2>
 100314a:	2301      	movs	r3, #1
 100314c:	2100      	movs	r1, #0

0100314e <.LVL684>:
 100314e:	429a      	cmp	r2, r3
 1003150:	950b      	str	r5, [sp, #44]	; 0x2c
 1003152:	f88d 3032 	strb.w	r3, [sp, #50]	; 0x32
 1003156:	f88d 1031 	strb.w	r1, [sp, #49]	; 0x31
 100315a:	d003      	beq.n	1003164 <.LVL80+0x6>
 100315c:	f895 20cc 	ldrb.w	r2, [r5, #204]	; 0xcc
 1003160:	2a00      	cmp	r2, #0
 1003162:	d050      	beq.n	1003206 <.LVL703+0x4>
 1003164:	f88d 3033 	strb.w	r3, [sp, #51]	; 0x33
 1003168:	230a      	movs	r3, #10
 100316a:	a90b      	add	r1, sp, #44	; 0x2c
 100316c:	a80a      	add	r0, sp, #40	; 0x28
 100316e:	f88d 3030 	strb.w	r3, [sp, #48]	; 0x30

01003172 <.LVL685>:
 1003172:	f003 f888 	bl	1006286 <BLE_LM_AdvExtSetExtHdFlags>
 1003176:	a90b      	add	r1, sp, #44	; 0x2c
 1003178:	a80a      	add	r0, sp, #40	; 0x28

0100317a <.LVL686>:
 100317a:	f011 fd15 	bl	1014ba8 <BLE_LM_AdvExtCalAdvDataLenOfPkt>
 100317e:	2701      	movs	r7, #1
 1003180:	4681      	mov	r9, r0

01003182 <.LVL687>:
 1003182:	a90b      	add	r1, sp, #44	; 0x2c
 1003184:	a80a      	add	r0, sp, #40	; 0x28

01003186 <.LVL688>:
 1003186:	f88d 7031 	strb.w	r7, [sp, #49]	; 0x31
 100318a:	f003 f87c 	bl	1006286 <BLE_LM_AdvExtSetExtHdFlags>
 100318e:	a90b      	add	r1, sp, #44	; 0x2c
 1003190:	a80a      	add	r0, sp, #40	; 0x28

01003192 <.LVL689>:
 1003192:	f011 fd09 	bl	1014ba8 <BLE_LM_AdvExtCalAdvDataLenOfPkt>
 1003196:	f04f 0a00 	mov.w	sl, #0

0100319a <.LVL690>:
 100319a:	230d      	movs	r3, #13
 100319c:	9006      	str	r0, [sp, #24]
 100319e:	a90b      	add	r1, sp, #44	; 0x2c
 10031a0:	a80a      	add	r0, sp, #40	; 0x28

010031a2 <.LVL691>:
 10031a2:	f88d 3030 	strb.w	r3, [sp, #48]	; 0x30
 10031a6:	950b      	str	r5, [sp, #44]	; 0x2c
 10031a8:	f88d 7032 	strb.w	r7, [sp, #50]	; 0x32
 10031ac:	f88d a031 	strb.w	sl, [sp, #49]	; 0x31
 10031b0:	f88d a033 	strb.w	sl, [sp, #51]	; 0x33
 10031b4:	f003 f867 	bl	1006286 <BLE_LM_AdvExtSetExtHdFlags>
 10031b8:	a90b      	add	r1, sp, #44	; 0x2c
 10031ba:	a80a      	add	r0, sp, #40	; 0x28

010031bc <.LVL692>:
 10031bc:	f011 fcf4 	bl	1014ba8 <BLE_LM_AdvExtCalAdvDataLenOfPkt>
 10031c0:	a90b      	add	r1, sp, #44	; 0x2c
 10031c2:	4604      	mov	r4, r0

010031c4 <.LVL693>:
 10031c4:	a80a      	add	r0, sp, #40	; 0x28
 10031c6:	Address 0x010031c6 is out of bounds.


010031c8 <.LVL694>:
 10031c8:	7031      	strb	r1, [r6, #0]
 10031ca:	f003 f85c 	bl	1006286 <BLE_LM_AdvExtSetExtHdFlags>
 10031ce:	a90b      	add	r1, sp, #44	; 0x2c
 10031d0:	a80a      	add	r0, sp, #40	; 0x28

010031d2 <.LVL695>:
 10031d2:	f011 fce9 	bl	1014ba8 <BLE_LM_AdvExtCalAdvDataLenOfPkt>
 10031d6:	f8b5 206e 	ldrh.w	r2, [r5, #110]	; 0x6e

010031da <.LVL696>:
 10031da:	9002      	str	r0, [sp, #8]
 10031dc:	fa1f f989 	uxth.w	r9, r9

010031e0 <.LVL697>:
 10031e0:	454a      	cmp	r2, r9
 10031e2:	d916      	bls.n	1003212 <.LVL705+0x2>

010031e4 <.LVL698>:
 10031e4:	9b06      	ldr	r3, [sp, #24]
 10031e6:	1ad2      	subs	r2, r2, r3
 10031e8:	b292      	uxth	r2, r2
 10031ea:	b2a4      	uxth	r4, r4
 10031ec:	Address 0x010031ec is out of bounds.


010031ee <.LVL699>:
 10031ee:	0301      	lsls	r1, r0, #12

010031f0 <.LVL700>:
 10031f0:	42a2      	cmp	r2, r4
 10031f2:	fa5f fa83 	uxtb.w	sl, r3
 10031f6:	d904      	bls.n	1003202 <.LVL703>
 10031f8:	9b02      	ldr	r3, [sp, #8]
 10031fa:	1ad2      	subs	r2, r2, r3
 10031fc:	b292      	uxth	r2, r2
 10031fe:	2a00      	cmp	r2, #0

01003200 <.LVL702>:
 1003200:	d1f4      	bne.n	10031ec <.LVL698+0x8>

01003202 <.LVL703>:
 1003202:	2701      	movs	r7, #1
 1003204:	e005      	b.n	1003212 <.LVL705+0x2>
 1003206:	f88d 2033 	strb.w	r2, [sp, #51]	; 0x33

0100320a <.LVL704>:
 100320a:	e7ad      	b.n	1003168 <.LVL81+0x2>
 100320c:	9302      	str	r3, [sp, #8]
 100320e:	469a      	mov	sl, r3

01003210 <.LVL705>:
 1003210:	461f      	mov	r7, r3
 1003212:	eb08 0607 	add.w	r6, r8, r7

01003216 <.LVL706>:
 1003216:	4456      	add	r6, sl
 1003218:	0130      	lsls	r0, r6, #4
 100321a:	3004      	adds	r0, #4
 100321c:	f008 ff4c 	bl	100c0b8 <BT_SYS_CmMemAlloc>
 1003220:	b282      	uxth	r2, r0
 1003222:	4604      	mov	r4, r0

01003224 <.LVL707>:
 1003224:	b902      	cbnz	r2, 1003228 <.LVL708>
 1003226:	3404      	adds	r4, #4

01003228 <.LVL708>:
 1003228:	2042      	movs	r0, #66	; 0x42
 100322a:	4370      	muls	r0, r6

0100322c <.LVL709>:
 100322c:	f008 ff44 	bl	100c0b8 <BT_SYS_CmMemAlloc>
 1003230:	f8c5 00b0 	str.w	r0, [r5, #176]	; 0xb0

01003234 <.LVL710>:
 1003234:	2028      	movs	r0, #40	; 0x28
 1003236:	4370      	muls	r0, r6
 1003238:	f01c f817 	bl	101f26a <BT_SYS_MemAlloc>
 100323c:	4606      	mov	r6, r0
 100323e:	b12c      	cbz	r4, 100324c <.LVL93>

01003240 <.LVL711>:
 1003240:	Address 0x01003240 is out of bounds.


01003242 <.LVL712>:
 1003242:	20b0      	movs	r0, #176	; 0xb0
 1003244:	b112      	cbz	r2, 100324c <.LVL93>
 1003246:	2800      	cmp	r0, #0
 1003248:	f040 81ea 	bne.w	1003620 <.LVL762+0xc>
 100324c:	4620      	mov	r0, r4
 100324e:	f011 fefd 	bl	101504c <BT_SYS_CmMemFree>

01003252 <.LVL713>:
 1003252:	f8d5 00b0 	ldr.w	r0, [r5, #176]	; 0xb0

01003256 <.LVL714>:
 1003256:	f011 fef9 	bl	101504c <BT_SYS_CmMemFree>
 100325a:	4630      	mov	r0, r6
 100325c:	Address 0x0100325c is out of bounds.


0100325e <.LVL715>:
 100325e:	f807 2007 	strb.w	r2, [r7, r7]
 1003262:	b011      	add	sp, #68	; 0x44

01003264 <.LVL716>:
 1003264:	Address 0x01003264 is out of bounds.


01003266 <.LVL717>:
 1003266:	8ff0      	ldrh	r0, [r6, #62]	; 0x3e

01003268 <.LCFI44>:
 1003268:	eb08 1b48 	add.w	fp, r8, r8, lsl #5

0100326c <.LCFI45>:
 100326c:	eb02 034b 	add.w	r3, r2, fp, lsl #1
 1003270:	9304      	str	r3, [sp, #16]
 1003272:	f1ba 0f00 	cmp.w	sl, #0

01003276 <.LVL719>:
 1003276:	f000 8127 	beq.w	10034c8 <.LVL743+0xe>
 100327a:	9b04      	ldr	r3, [sp, #16]
 100327c:	3342      	adds	r3, #66	; 0x42
 100327e:	9301      	str	r3, [sp, #4]
 1003280:	6f2b      	ldr	r3, [r5, #112]	; 0x70
 1003282:	9300      	str	r3, [sp, #0]

01003284 <.LVL720>:
 1003284:	f04f 0900 	mov.w	r9, #0

01003288 <.LVL721>:
 1003288:	9203      	str	r2, [sp, #12]
 100328a:	46cb      	mov	fp, r9
 100328c:	464b      	mov	r3, r9
 100328e:	9a07      	ldr	r2, [sp, #28]
 1003290:	Address 0x01003290 is out of bounds.


01003292 <.LVL722>:
 1003292:	f209 07d2 	addw	r7, r9, #210	; 0xd2
 1003296:	f140 807f 	bpl.w	1003398 <.LVL729+0x28>
 100329a:	f01a ff79 	bl	101e190 <__pa_fn_0_b_01_0>
 100329e:	f108 38ff 	add.w	r8, r8, #4294967295
 10032a2:	f361 22ce 	bfi	r2, r1, #11, #4

010032a6 <.LVL723>:
 10032a6:	fa5f f888 	uxtb.w	r8, r8
 10032aa:	6022      	str	r2, [r4, #0]
 10032ac:	2f00      	cmp	r7, #0
 10032ae:	f040 810e 	bne.w	10034ce <.LVL743+0x14>
 10032b2:	9905      	ldr	r1, [sp, #20]
 10032b4:	fa5f f289 	uxtb.w	r2, r9
 10032b8:	4291      	cmp	r1, r2
 10032ba:	f040 8108 	bne.w	10034ce <.LVL743+0x14>
 10032be:	6822      	ldr	r2, [r4, #0]
 10032c0:	Address 0x010032c0 is out of bounds.


010032c2 <.LVL724>:
 10032c2:	32de      	adds	r2, #222	; 0xde
 10032c4:	6022      	str	r2, [r4, #0]
 10032c6:	f019 ffd4 	bl	101d272 <__pa_fn_0_d_01_0>

010032ca <.LVL725>:
 10032ca:	6861      	ldr	r1, [r4, #4]
 10032cc:	f8bd 200c 	ldrh.w	r2, [sp, #12]
 10032d0:	f01b fafd 	bl	101e8ce <__pa_fn_0_5c_01_0>
 10032d4:	6062      	str	r2, [r4, #4]
 10032d6:	950b      	str	r5, [sp, #44]	; 0x2c
 10032d8:	2f00      	cmp	r7, #0
 10032da:	f000 8100 	beq.w	10034de <.LVL744+0x8>
 10032de:	2201      	movs	r2, #1
 10032e0:	f88d 2032 	strb.w	r2, [sp, #50]	; 0x32
 10032e4:	f88d 2031 	strb.w	r2, [sp, #49]	; 0x31
 10032e8:	f04f 0209 	mov.w	r2, #9
 10032ec:	9903      	ldr	r1, [sp, #12]
 10032ee:	f88d 3033 	strb.w	r3, [sp, #51]	; 0x33
 10032f2:	a80b      	add	r0, sp, #44	; 0x2c
 10032f4:	f88d 2030 	strb.w	r2, [sp, #48]	; 0x30
 10032f8:	f88d 3034 	strb.w	r3, [sp, #52]	; 0x34
 10032fc:	9308      	str	r3, [sp, #32]
 10032fe:	f002 f97b 	bl	10055f8 <BLE_LM_AdvExtPrepAdvPduHd>
 1003302:	9b03      	ldr	r3, [sp, #12]
 1003304:	f895 103b 	ldrb.w	r1, [r5, #59]	; 0x3b
 1003308:	785a      	ldrb	r2, [r3, #1]
 100330a:	f895 0027 	ldrb.w	r0, [r5, #39]	; 0x27
 100330e:	f016 fab1 	bl	1019874 <BLE_LM_AdvMainCalPktBw>
 1003312:	9b08      	ldr	r3, [sp, #32]
 1003314:	9903      	ldr	r1, [sp, #12]
 1003316:	7233      	strb	r3, [r6, #8]
 1003318:	6131      	str	r1, [r6, #16]
 100331a:	6173      	str	r3, [r6, #20]
 100331c:	61b0      	str	r0, [r6, #24]
 100331e:	9009      	str	r0, [sp, #36]	; 0x24
 1003320:	f886 3024 	strb.w	r3, [r6, #36]	; 0x24
 1003324:	4631      	mov	r1, r6
 1003326:	60f4      	str	r4, [r6, #12]
 1003328:	f8c6 b01c 	str.w	fp, [r6, #28]
 100332c:	f505 70b0 	add.w	r0, r5, #352	; 0x160
 1003330:	f01b ff89 	bl	101f246 <BLE_LM_AdvMainInsertDescToDescList>
 1003334:	f89d 1031 	ldrb.w	r1, [sp, #49]	; 0x31
 1003338:	9b08      	ldr	r3, [sp, #32]
 100333a:	9a09      	ldr	r2, [sp, #36]	; 0x24
 100333c:	b1e1      	cbz	r1, 1003378 <.LVL729+0x8>

0100333e <.LVL726>:
 100333e:	f895 1029 	ldrb.w	r1, [r5, #41]	; 0x29
 1003342:	f88d 3038 	strb.w	r3, [sp, #56]	; 0x38
 1003346:	3901      	subs	r1, #1
 1003348:	f1b8 0f01 	cmp.w	r8, #1
 100334c:	Address 0x0100334c is out of bounds.


0100334e <.LVL727>:
 100334e:	1039      	asrs	r1, r7, #32
 1003350:	f000 80ca 	beq.w	10034e8 <.LVL744+0x12>
 1003354:	f0c0 80cc 	bcc.w	10034f0 <.LVL746+0x2>
 1003358:	f1b8 0f02 	cmp.w	r8, #2
 100335c:	d104      	bne.n	1003368 <.LVL727+0x1a>
 100335e:	eb02 0142 	add.w	r1, r2, r2, lsl #1
 1003362:	f501 712e 	add.w	r1, r1, #696	; 0x2b8
 1003366:	910f      	str	r1, [sp, #60]	; 0x3c
 1003368:	4631      	mov	r1, r6
 100336a:	a80e      	add	r0, sp, #56	; 0x38

0100336c <.LVL728>:
 100336c:	9309      	str	r3, [sp, #36]	; 0x24
 100336e:	9208      	str	r2, [sp, #32]

01003370 <.LVL729>:
 1003370:	f00e fde8 	bl	1011f44 <BLE_LM_AdvExtPrepAuxPtr>
 1003374:	9b09      	ldr	r3, [sp, #36]	; 0x24
 1003376:	9a08      	ldr	r2, [sp, #32]
 1003378:	9805      	ldr	r0, [sp, #20]
 100337a:	fa5f f189 	uxtb.w	r1, r9
 100337e:	4288      	cmp	r0, r1
 1003380:	bf0c      	ite	eq
 1003382:	f50b 71d8 	addeq.w	r1, fp, #432	; 0x1b0
 1003386:	f10b 0184 	addne.w	r1, fp, #132	; 0x84
 100338a:	eb02 0b01 	add.w	fp, r2, r1
 100338e:	9a03      	ldr	r2, [sp, #12]
 1003390:	3242      	adds	r2, #66	; 0x42
 1003392:	3628      	adds	r6, #40	; 0x28
 1003394:	9203      	str	r2, [sp, #12]
 1003396:	3410      	adds	r4, #16
 1003398:	f109 0901 	add.w	r9, r9, #1
 100339c:	f1b9 0f03 	cmp.w	r9, #3
 10033a0:	f47f af75 	bne.w	100328e <.LVL721+0x6>
 10033a4:	2f00      	cmp	r7, #0
 10033a6:	f000 8084 	beq.w	10034b2 <.LVL742+0x8>

010033aa <.LVL730>:
 10033aa:	f01a fefa 	bl	101e1a2 <__pa_fn_0_c_01_0>
 10033ae:	46a0      	mov	r8, r4

010033b0 <.LVL731>:
 10033b0:	f361 22ce 	bfi	r2, r1, #11, #4
 10033b4:	f848 2b10 	str.w	r2, [r8], #16
 10033b8:	f1ba 0f00 	cmp.w	sl, #0
 10033bc:	f000 809b 	beq.w	10034f6 <.LVL746+0x8>
 10033c0:	6821      	ldr	r1, [r4, #0]
 10033c2:	fa1f f288 	uxth.w	r2, r8
 10033c6:	f362 31de 	bfi	r1, r2, #15, #16

010033ca <.LVL732>:
 10033ca:	6021      	str	r1, [r4, #0]
 10033cc:	6822      	ldr	r2, [r4, #0]
 10033ce:	Address 0x010033ce is out of bounds.


010033d0 <.LVL733>:
 10033d0:	Address 0x010033d0 is out of bounds.


010033d2 <.LVL734>:
 10033d2:	Address 0x010033d2 is out of bounds.


010033d4 <.LVL735>:
 10033d4:	2010      	movs	r0, #16
 10033d6:	Address 0x010033d6 is out of bounds.


010033d8 <.LVL736>:
 10033d8:	fa81 f362 	uhadd8	r3, r1, r2
 10033dc:	411f      	asrs	r7, r3
 10033de:	2201      	movs	r2, #1
 10033e0:	6061      	str	r1, [r4, #4]
 10033e2:	950b      	str	r5, [sp, #44]	; 0x2c
 10033e4:	Address 0x010033e4 is out of bounds.


010033e6 <.LVL737>:
 10033e6:	2032      	movs	r0, #50	; 0x32
 10033e8:	f1ba 0f00 	cmp.w	sl, #0
 10033ec:	Address 0x010033ec is out of bounds.


010033ee <.LVL738>:
 10033ee:	8088      	strh	r0, [r1, #4]
 10033f0:	f89d 3018 	ldrb.w	r3, [sp, #24]
 10033f4:	f88d 2031 	strb.w	r2, [sp, #49]	; 0x31
 10033f8:	f88d 3034 	strb.w	r3, [sp, #52]	; 0x34
 10033fc:	f895 20c9 	ldrb.w	r2, [r5, #201]	; 0xc9
 1003400:	2a01      	cmp	r2, #1
 1003402:	d002      	beq.n	100340a <.LVL739+0x2>
 1003404:	f895 20cc 	ldrb.w	r2, [r5, #204]	; 0xcc

01003408 <.LVL739>:
 1003408:	b102      	cbz	r2, 100340c <.LVL739+0x4>
 100340a:	2201      	movs	r2, #1
 100340c:	f88d 2033 	strb.w	r2, [sp, #51]	; 0x33
 1003410:	9904      	ldr	r1, [sp, #16]
 1003412:	220a      	movs	r2, #10
 1003414:	a80b      	add	r0, sp, #44	; 0x2c
 1003416:	f88d 2030 	strb.w	r2, [sp, #48]	; 0x30
 100341a:	f002 f8ed 	bl	10055f8 <BLE_LM_AdvExtPrepAdvPduHd>
 100341e:	f1ba 0f00 	cmp.w	sl, #0
 1003422:	d074      	beq.n	100350e <.LVL746+0x20>
 1003424:	f8b5 706e 	ldrh.w	r7, [r5, #110]	; 0x6e
 1003428:	9b06      	ldr	r3, [sp, #24]
 100342a:	1aff      	subs	r7, r7, r3
 100342c:	b2bf      	uxth	r7, r7
 100342e:	9b04      	ldr	r3, [sp, #16]
 1003430:	f895 103b 	ldrb.w	r1, [r5, #59]	; 0x3b
 1003434:	785a      	ldrb	r2, [r3, #1]
 1003436:	f895 0029 	ldrb.w	r0, [r5, #41]	; 0x29
 100343a:	f016 fa1b 	bl	1019874 <BLE_LM_AdvMainCalPktBw>
 100343e:	9b04      	ldr	r3, [sp, #16]
 1003440:	6133      	str	r3, [r6, #16]
 1003442:	2200      	movs	r2, #0
 1003444:	9b00      	ldr	r3, [sp, #0]
 1003446:	60f4      	str	r4, [r6, #12]
 1003448:	7232      	strb	r2, [r6, #8]
 100344a:	6173      	str	r3, [r6, #20]
 100344c:	61b0      	str	r0, [r6, #24]
 100344e:	f8c6 b01c 	str.w	fp, [r6, #28]
 1003452:	f895 20c9 	ldrb.w	r2, [r5, #201]	; 0xc9
 1003456:	2a01      	cmp	r2, #1
 1003458:	4681      	mov	r9, r0
 100345a:	d002      	beq.n	1003462 <.LVL739+0x5a>
 100345c:	f895 20cc 	ldrb.w	r2, [r5, #204]	; 0xcc
 1003460:	b102      	cbz	r2, 1003464 <.LVL739+0x5c>
 1003462:	2201      	movs	r2, #1
 1003464:	f886 2024 	strb.w	r2, [r6, #36]	; 0x24
 1003468:	4631      	mov	r1, r6
 100346a:	f505 70b0 	add.w	r0, r5, #352	; 0x160
 100346e:	f01b feea 	bl	101f246 <BLE_LM_AdvMainInsertDescToDescList>
 1003472:	f89d 2031 	ldrb.w	r2, [sp, #49]	; 0x31
 1003476:	b172      	cbz	r2, 1003496 <.LVL739+0x8e>
 1003478:	2200      	movs	r2, #0
 100347a:	f88d 2038 	strb.w	r2, [sp, #56]	; 0x38
 100347e:	f895 2029 	ldrb.w	r2, [r5, #41]	; 0x29
 1003482:	3a01      	subs	r2, #1
 1003484:	f88d 2039 	strb.w	r2, [sp, #57]	; 0x39
 1003488:	4631      	mov	r1, r6
 100348a:	f509 7296 	add.w	r2, r9, #300	; 0x12c
 100348e:	a80e      	add	r0, sp, #56	; 0x38
 1003490:	920f      	str	r2, [sp, #60]	; 0x3c
 1003492:	f00e fd57 	bl	1011f44 <BLE_LM_AdvExtPrepAuxPtr>
 1003496:	f89d 2034 	ldrb.w	r2, [sp, #52]	; 0x34

0100349a <.LVL740>:
 100349a:	9b00      	ldr	r3, [sp, #0]
 100349c:	4413      	add	r3, r2
 100349e:	f89d 2031 	ldrb.w	r2, [sp, #49]	; 0x31
 10034a2:	9300      	str	r3, [sp, #0]

010034a4 <.LVL741>:
 10034a4:	3628      	adds	r6, #40	; 0x28
 10034a6:	b3a2      	cbz	r2, 1003512 <.LVL747>
 10034a8:	Address 0x010034a8 is out of bounds.


010034aa <.LVL742>:
 10034aa:	7296      	strb	r6, [r2, #10]
 10034ac:	eb09 0b02 	add.w	fp, r9, r2
 10034b0:	4644      	mov	r4, r8
 10034b2:	f04f 0800 	mov.w	r8, #0
 10034b6:	f1ba 0f00 	cmp.w	sl, #0

010034ba <.LVL743>:
 10034ba:	d12d      	bne.n	1003518 <.LVL747+0x6>
 10034bc:	f8c5 b0f8 	str.w	fp, [r5, #248]	; 0xf8
 10034c0:	f8c5 b0f4 	str.w	fp, [r5, #244]	; 0xf4
 10034c4:	4650      	mov	r0, sl
 10034c6:	e6cc      	b.n	1003262 <.LVL715+0x4>
 10034c8:	f8cd a004 	str.w	sl, [sp, #4]
 10034cc:	e6d8      	b.n	1003280 <.LVL719+0xa>
 10034ce:	6821      	ldr	r1, [r4, #0]
 10034d0:	f104 0210 	add.w	r2, r4, #16
 10034d4:	b292      	uxth	r2, r2

010034d6 <.LVL744>:
 10034d6:	f362 31de 	bfi	r1, r2, #15, #16
 10034da:	6021      	str	r1, [r4, #0]
 10034dc:	e6f3      	b.n	10032c6 <.LVL724+0x4>
 10034de:	f88d 7032 	strb.w	r7, [sp, #50]	; 0x32
 10034e2:	f88d 7031 	strb.w	r7, [sp, #49]	; 0x31
 10034e6:	e6ff      	b.n	10032e8 <.LVL725+0x1e>
 10034e8:	0051      	lsls	r1, r2, #1

010034ea <.LVL745>:
 10034ea:	f501 710d 	add.w	r1, r1, #564	; 0x234

010034ee <.LVL746>:
 10034ee:	e73a      	b.n	1003366 <.LVL727+0x18>
 10034f0:	f502 71d8 	add.w	r1, r2, #432	; 0x1b0
 10034f4:	e737      	b.n	1003366 <.LVL727+0x18>
 10034f6:	6822      	ldr	r2, [r4, #0]
 10034f8:	f36a 32de 	bfi	r2, sl, #15, #16
 10034fc:	6022      	str	r2, [r4, #0]
 10034fe:	e765      	b.n	10033cc <.LVL732+0x2>
 1003500:	f8b5 206e 	ldrh.w	r2, [r5, #110]	; 0x6e
 1003504:	f88d a031 	strb.w	sl, [sp, #49]	; 0x31
 1003508:	f88d 2034 	strb.w	r2, [sp, #52]	; 0x34
 100350c:	e776      	b.n	10033fc <.LVL738+0xe>
 100350e:	4657      	mov	r7, sl
 1003510:	e78d      	b.n	100342e <.LVL739+0x26>

01003512 <.LVL747>:
 1003512:	f10b 0270 	add.w	r2, fp, #112	; 0x70
 1003516:	e7c9      	b.n	10034ac <.LVL742+0x2>
 1003518:	f01a fe43 	bl	101e1a2 <__pa_fn_0_c_01_0>
 100351c:	46a1      	mov	r9, r4
 100351e:	f361 22ce 	bfi	r2, r1, #11, #4

01003522 <.LVL748>:
 1003522:	f849 2b10 	str.w	r2, [r9], #16
 1003526:	Address 0x01003526 is out of bounds.


01003528 <.LVL749>:
 1003528:	33ff      	adds	r3, #255	; 0xff
 100352a:	f013 0aff 	ands.w	sl, r3, #255	; 0xff

0100352e <.LVL751>:
 100352e:	bf17      	itett	ne
 1003530:	6821      	ldrne	r1, [r4, #0]

01003532 <.LVL752>:
 1003532:	6822      	ldreq	r2, [r4, #0]
 1003534:	fa1f f289 	uxthne.w	r2, r9
 1003538:	f362 31de 	bfine	r1, r2, #15, #16
 100353c:	bf0a      	itet	eq
 100353e:	f36a 32de 	bfieq	r2, sl, #15, #16
 1003542:	6021      	strne	r1, [r4, #0]

01003544 <.LVL753>:
 1003544:	6022      	streq	r2, [r4, #0]
 1003546:	6822      	ldr	r2, [r4, #0]
 1003548:	Address 0x01003548 is out of bounds.


0100354a <.LVL754>:
 100354a:	fdf9 f8bd 	ldc2l	8, cr15, [r9, #756]!	; 0x2f4
 100354e:	2004      	movs	r0, #4
 1003550:	f01b f9c4 	bl	101e8dc <__pa_fn_0_5d_01_0>
 1003554:	f04f 0301 	mov.w	r3, #1
 1003558:	f362 411f 	bfi	r1, r2, #16, #16
 100355c:	6061      	str	r1, [r4, #4]
 100355e:	950b      	str	r5, [sp, #44]	; 0x2c
 1003560:	f88d 3032 	strb.w	r3, [sp, #50]	; 0x32

01003564 <.LVL755>:
 1003564:	f1ba 0f00 	cmp.w	sl, #0
 1003568:	d050      	beq.n	100360c <.LVL761+0x4a>
 100356a:	f88d 3031 	strb.w	r3, [sp, #49]	; 0x31
 100356e:	f89d 3008 	ldrb.w	r3, [sp, #8]

01003572 <.LVL756>:
 1003572:	f88d 3034 	strb.w	r3, [sp, #52]	; 0x34
 1003576:	220d      	movs	r2, #13
 1003578:	9901      	ldr	r1, [sp, #4]
 100357a:	f88d 2030 	strb.w	r2, [sp, #48]	; 0x30
 100357e:	a80b      	add	r0, sp, #44	; 0x2c
 1003580:	f88d 8033 	strb.w	r8, [sp, #51]	; 0x33
 1003584:	f002 f838 	bl	10055f8 <BLE_LM_AdvExtPrepAdvPduHd>
 1003588:	f89d 2031 	ldrb.w	r2, [sp, #49]	; 0x31

0100358c <.LVL757>:
 100358c:	2a00      	cmp	r2, #0

0100358e <.LVL758>:
 100358e:	d042      	beq.n	1003616 <.LVL762+0x2>
 1003590:	9b02      	ldr	r3, [sp, #8]
 1003592:	1aff      	subs	r7, r7, r3

01003594 <.LVL759>:
 1003594:	b2bf      	uxth	r7, r7
 1003596:	f01b f969 	bl	101e86c <__pa_fn_0_2a_01_0>
 100359a:	Address 0x0100359a is out of bounds.


0100359c <.LVL760>:
 100359c:	f96b 9b01 			; <UNDEFINED> instruction: 0xf96b9b01
 10035a0:	6133      	str	r3, [r6, #16]
 10035a2:	9b00      	ldr	r3, [sp, #0]
 10035a4:	61b0      	str	r0, [r6, #24]
 10035a6:	9003      	str	r0, [sp, #12]
 10035a8:	4631      	mov	r1, r6
 10035aa:	60f4      	str	r4, [r6, #12]
 10035ac:	f886 8008 	strb.w	r8, [r6, #8]
 10035b0:	6173      	str	r3, [r6, #20]
 10035b2:	f8c6 b01c 	str.w	fp, [r6, #28]
 10035b6:	f886 8024 	strb.w	r8, [r6, #36]	; 0x24
 10035ba:	f505 70b0 	add.w	r0, r5, #352	; 0x160
 10035be:	f01b fe42 	bl	101f246 <BLE_LM_AdvMainInsertDescToDescList>

010035c2 <.LVL761>:
 10035c2:	f89d 1031 	ldrb.w	r1, [sp, #49]	; 0x31
 10035c6:	9a03      	ldr	r2, [sp, #12]
 10035c8:	b171      	cbz	r1, 10035e8 <.LVL761+0x26>
 10035ca:	f895 1029 	ldrb.w	r1, [r5, #41]	; 0x29
 10035ce:	f88d 8038 	strb.w	r8, [sp, #56]	; 0x38
 10035d2:	3901      	subs	r1, #1
 10035d4:	f88d 1039 	strb.w	r1, [sp, #57]	; 0x39
 10035d8:	f502 7196 	add.w	r1, r2, #300	; 0x12c
 10035dc:	910f      	str	r1, [sp, #60]	; 0x3c
 10035de:	a80e      	add	r0, sp, #56	; 0x38
 10035e0:	4631      	mov	r1, r6
 10035e2:	f00e fcaf 	bl	1011f44 <BLE_LM_AdvExtPrepAuxPtr>
 10035e6:	9a03      	ldr	r2, [sp, #12]
 10035e8:	9b00      	ldr	r3, [sp, #0]
 10035ea:	f89d 1034 	ldrb.w	r1, [sp, #52]	; 0x34
 10035ee:	440b      	add	r3, r1
 10035f0:	9300      	str	r3, [sp, #0]
 10035f2:	9b01      	ldr	r3, [sp, #4]
 10035f4:	3342      	adds	r3, #66	; 0x42
 10035f6:	3628      	adds	r6, #40	; 0x28
 10035f8:	9301      	str	r3, [sp, #4]
 10035fa:	f1ba 0f00 	cmp.w	sl, #0
 10035fe:	d00c      	beq.n	100361a <.LVL762+0x6>
 1003600:	f50b 7196 	add.w	r1, fp, #300	; 0x12c
 1003604:	eb01 0b02 	add.w	fp, r1, r2
 1003608:	464c      	mov	r4, r9
 100360a:	e754      	b.n	10034b6 <.LVL742+0xc>
 100360c:	f88d a031 	strb.w	sl, [sp, #49]	; 0x31
 1003610:	f88d 7034 	strb.w	r7, [sp, #52]	; 0x34

01003614 <.LVL762>:
 1003614:	e7af      	b.n	1003576 <.LVL756+0x4>
 1003616:	4617      	mov	r7, r2
 1003618:	e7bd      	b.n	1003596 <.LVL759+0x2>
 100361a:	f10b 0170 	add.w	r1, fp, #112	; 0x70
 100361e:	e7f1      	b.n	1003604 <.LVL761+0x42>
 1003620:	2f00      	cmp	r7, #0
 1003622:	f47f ae21 	bne.w	1003268 <.LCFI44>
 1003626:	9704      	str	r7, [sp, #16]
 1003628:	e623      	b.n	1003272 <.LCFI45+0x6>

Disassembly of section .text.BLE_LM_AdvExtSetAdvEnableCmd%92:

0100362c <BLE_LM_AdvExtSetAdvEnableCmd>:
 100362c:	e92d 4ff0 	stmdb	sp!, {r4, r5, r6, r7, r8, r9, sl, fp, lr}

01003630 <.LCFI14>:
 1003630:	b09b      	sub	sp, #108	; 0x6c

01003632 <.LCFI15>:
 1003632:	4688      	mov	r8, r1

01003634 <.LVL82>:
 1003634:	9000      	str	r0, [sp, #0]

01003636 <.LBB30>:
 1003636:	2100      	movs	r1, #0

01003638 <.LBE30>:
 1003638:	4616      	mov	r6, r2

0100363a <.LBB45>:
 100363a:	a806      	add	r0, sp, #24

0100363c <.LVL85>:
 100363c:	2210      	movs	r2, #16

0100363e <.LVL86>:
 100363e:	f01b f8a3 	bl	101e788 <memset>

01003642 <.LVL87>:
 1003642:	2210      	movs	r2, #16
 1003644:	2100      	movs	r1, #0
 1003646:	a80a      	add	r0, sp, #40	; 0x28
 1003648:	f01b f89e 	bl	101e788 <memset>

0100364c <.LVL88>:
 100364c:	2210      	movs	r2, #16
 100364e:	2100      	movs	r1, #0
 1003650:	a80e      	add	r0, sp, #56	; 0x38
 1003652:	f01b f899 	bl	101e788 <memset>

01003656 <.LVL89>:
 1003656:	2210      	movs	r2, #16
 1003658:	2100      	movs	r1, #0
 100365a:	a812      	add	r0, sp, #72	; 0x48
 100365c:	f01b f894 	bl	101e788 <memset>

01003660 <.LVL90>:
 1003660:	2210      	movs	r2, #16
 1003662:	2100      	movs	r1, #0
 1003664:	a816      	add	r0, sp, #88	; 0x58
 1003666:	f01b f88f 	bl	101e788 <memset>

0100366a <.LVL91>:
 100366a:	f01b faab 	bl	101ebc4 <BLE_LM_CmnIsLegacyAdvCmdRxed>

0100366e <.LVL92>:
 100366e:	2800      	cmp	r0, #0
 1003670:	d138      	bne.n	10036e4 <.LVL99>
 1003672:	9b00      	ldr	r3, [sp, #0]
 1003674:	2b01      	cmp	r3, #1
 1003676:	d102      	bne.n	100367e <.LVL92+0x10>
 1003678:	f1b8 0f00 	cmp.w	r8, #0
 100367c:	d043      	beq.n	1003706 <.LBB36>
 100367e:	2506      	movs	r5, #6
 1003680:	1db4      	adds	r4, r6, #6
 1003682:	fb08 5505 	mla	r5, r8, r5, r5
 1003686:	f8df 9408 	ldr.w	r9, [pc, #1032]	; 1003a90 <.LVL189+0x8>
 100368a:	4435      	add	r5, r6

0100368c <.LBE45>:
 100368c:	4627      	mov	r7, r4

0100368e <.LBB32>:
 100368e:	f04f 0a00 	mov.w	sl, #0

01003692 <.LBE32>:
 1003692:	42af      	cmp	r7, r5
 1003694:	d10e      	bne.n	10036b4 <.LVL97>
 1003696:	f8df a3f8 	ldr.w	sl, [pc, #1016]	; 1003a90 <.LVL189+0x8>
 100369a:	2500      	movs	r5, #0
 100369c:	f04f 0906 	mov.w	r9, #6

010036a0 <.LVL94>:
 10036a0:	4545      	cmp	r5, r8
 10036a2:	d179      	bne.n	1003798 <.LBE34>
 10036a4:	f00b ff46 	bl	100f534 <RC_ApiGetRequestAddressList>

010036a8 <.LVL95>:
 10036a8:	4681      	mov	r9, r0
 10036aa:	2800      	cmp	r0, #0
 10036ac:	bf0c      	ite	eq
 10036ae:	2507      	moveq	r5, #7
 10036b0:	2500      	movne	r5, #0

010036b2 <.LVL96>:
 10036b2:	e083      	b.n	10037bc <.LVL122>

010036b4 <.LVL97>:
 10036b4:	f817 1c06 	ldrb.w	r1, [r7, #-6]
 10036b8:	4648      	mov	r0, r9
 10036ba:	f01b faef 	bl	101ec9c <BLE_LM_AdvMainGetDevFromDevList>

010036be <.LVL98>:
 10036be:	4683      	mov	fp, r0
 10036c0:	2800      	cmp	r0, #0
 10036c2:	f000 81e3 	beq.w	1003a8c <.LVL189+0x4>
 10036c6:	9b00      	ldr	r3, [sp, #0]
 10036c8:	2b01      	cmp	r3, #1
 10036ca:	d155      	bne.n	1003778 <.LVL111>
 10036cc:	f890 3076 	ldrb.w	r3, [r0, #118]	; 0x76
 10036d0:	b143      	cbz	r3, 10036e4 <.LVL99>
 10036d2:	f890 3063 	ldrb.w	r3, [r0, #99]	; 0x63
 10036d6:	f1a3 020a 	sub.w	r2, r3, #10
 10036da:	2a01      	cmp	r2, #1
 10036dc:	d804      	bhi.n	10036e8 <.LVL100>
 10036de:	f8b0 307a 	ldrh.w	r3, [r0, #122]	; 0x7a
 10036e2:	b93b      	cbnz	r3, 10036f4 <.LFE184+0x6>

010036e4 <.LVL99>:
 10036e4:	250c      	movs	r5, #12
 10036e6:	e00f      	b.n	1003708 <.LBE36>

010036e8 <.LVL100>:
 10036e8:	2b06      	cmp	r3, #6
 10036ea:	d111      	bne.n	1003710 <.LBB47>
 10036ec:	f8b0 306e 	ldrh.w	r3, [r0, #110]	; 0x6e
 10036f0:	2bf5      	cmp	r3, #245	; 0xf5
 10036f2:	d808      	bhi.n	1003706 <.LBB36>
 10036f4:	f89b 101d 	ldrb.w	r1, [fp, #29]
 10036f8:	b981      	cbnz	r1, 100371c <.LVL106>

010036fa <.LBB35>:
 10036fa:	a804      	add	r0, sp, #16

010036fc <.LVL101>:
 10036fc:	f019 f898 	bl	101c830 <BT_SYS_GetDevAddr>

01003700 <.LVL102>:
 1003700:	f89d 3010 	ldrb.w	r3, [sp, #16]
 1003704:	b153      	cbz	r3, 100371c <.LVL106>

01003706 <.LBB36>:
 1003706:	2512      	movs	r5, #18

01003708 <.LBE36>:
 1003708:	4628      	mov	r0, r5
 100370a:	b01b      	add	sp, #108	; 0x6c

0100370c <.LCFI16>:
 100370c:	e8bd 8ff0 	ldmia.w	sp!, {r4, r5, r6, r7, r8, r9, sl, fp, pc}

01003710 <.LBB47>:
 1003710:	2b07      	cmp	r3, #7
 1003712:	d1ef      	bne.n	10036f4 <.LFE184+0x6>
 1003714:	f8b0 306e 	ldrh.w	r3, [r0, #110]	; 0x6e
 1003718:	2bef      	cmp	r3, #239	; 0xef
 100371a:	e7ea      	b.n	10036f2 <.LFE184+0x4>

0100371c <.LVL106>:
 100371c:	f89b 301d 	ldrb.w	r3, [fp, #29]
 1003720:	2b01      	cmp	r3, #1
 1003722:	d02b      	beq.n	100377c <.LBB38>
 1003724:	f89b 301d 	ldrb.w	r3, [fp, #29]
 1003728:	3b02      	subs	r3, #2
 100372a:	2b01      	cmp	r3, #1
 100372c:	d824      	bhi.n	1003778 <.LVL111>

0100372e <.LBB37>:
 100372e:	f89b 201e 	ldrb.w	r2, [fp, #30]
 1003732:	f89d 3010 	ldrb.w	r3, [sp, #16]
 1003736:	f88d a00e 	strb.w	sl, [sp, #14]
 100373a:	f362 0300 	bfi	r3, r2, #0, #1
 100373e:	f88d 3010 	strb.w	r3, [sp, #16]
 1003742:	465b      	mov	r3, fp
 1003744:	f10d 010e 	add.w	r1, sp, #14
 1003748:	f853 2f1f 	ldr.w	r2, [r3, #31]!
 100374c:	f8cd 2011 	str.w	r2, [sp, #17]
 1003750:	889b      	ldrh	r3, [r3, #4]
 1003752:	f8ad 3015 	strh.w	r3, [sp, #21]
 1003756:	a804      	add	r0, sp, #16
 1003758:	f014 feaa 	bl	10184b0 <hal_bt_privacy_find_device_in_rl>

0100375c <.LVL108>:
 100375c:	b160      	cbz	r0, 1003778 <.LVL111>
 100375e:	f89b 301d 	ldrb.w	r3, [fp, #29]
 1003762:	2b02      	cmp	r3, #2
 1003764:	d110      	bne.n	1003788 <.LBB39>

01003766 <.LBB33>:
 1003766:	2100      	movs	r1, #0
 1003768:	f10d 000f 	add.w	r0, sp, #15

0100376c <.LVL109>:
 100376c:	f019 f860 	bl	101c830 <BT_SYS_GetDevAddr>

01003770 <.LVL110>:
 1003770:	f89d 300f 	ldrb.w	r3, [sp, #15]
 1003774:	2b00      	cmp	r3, #0
 1003776:	d1c6      	bne.n	1003706 <.LBB36>

01003778 <.LVL111>:
 1003778:	3706      	adds	r7, #6

0100377a <.LVL112>:
 100377a:	e78a      	b.n	1003692 <.LBE32>

0100377c <.LBB38>:
 100377c:	4658      	mov	r0, fp
 100377e:	f01a febb 	bl	101e4f8 <BLE_LM_AdvMainIsRandomAddrInit>

01003782 <.LVL114>:
 1003782:	2800      	cmp	r0, #0
 1003784:	d1ce      	bne.n	1003724 <.LVL106+0x8>
 1003786:	e7be      	b.n	1003706 <.LBB36>

01003788 <.LBB39>:
 1003788:	2b03      	cmp	r3, #3
 100378a:	d1f5      	bne.n	1003778 <.LVL111>

0100378c <.LBB34>:
 100378c:	4658      	mov	r0, fp

0100378e <.LVL117>:
 100378e:	f01a feb3 	bl	101e4f8 <BLE_LM_AdvMainIsRandomAddrInit>

01003792 <.LVL118>:
 1003792:	2800      	cmp	r0, #0
 1003794:	d1f0      	bne.n	1003778 <.LVL111>
 1003796:	e7b6      	b.n	1003706 <.LBB36>

01003798 <.LBE34>:
 1003798:	f019 fe21 	bl	101d3de <RC_ApiGetRequest>

0100379c <.LVL120>:
 100379c:	ab06      	add	r3, sp, #24
 100379e:	4683      	mov	fp, r0
 10037a0:	f843 0025 	str.w	r0, [r3, r5, lsl #2]
 10037a4:	2001      	movs	r0, #1
 10037a6:	f013 ffd5 	bl	1017754 <RC_ApiGetRequestAddress>

010037aa <.LVL121>:
 10037aa:	ab0a      	add	r3, sp, #40	; 0x28
 10037ac:	f843 0025 	str.w	r0, [r3, r5, lsl #2]
 10037b0:	f1bb 0f00 	cmp.w	fp, #0
 10037b4:	d12f      	bne.n	1003816 <.LBB48>
 10037b6:	f04f 0900 	mov.w	r9, #0
 10037ba:	2507      	movs	r5, #7

010037bc <.LVL122>:
 10037bc:	2600      	movs	r6, #0

010037be <.LVL123>:
 10037be:	f10d 0a48 	add.w	sl, sp, #72	; 0x48
 10037c2:	f10d 0b58 	add.w	fp, sp, #88	; 0x58

010037c6 <.LVL124>:
 10037c6:	4546      	cmp	r6, r8
 10037c8:	d14d      	bne.n	1003866 <.LVL141>
 10037ca:	f1b9 0f00 	cmp.w	r9, #0
 10037ce:	d002      	beq.n	10037d6 <.LBE47>
 10037d0:	4648      	mov	r0, r9
 10037d2:	f00d fd75 	bl	10112c0 <RC_ApiFreeRequestAddressList>

010037d6 <.LBE47>:
 10037d6:	2d00      	cmp	r5, #0
 10037d8:	d196      	bne.n	1003708 <.LBE36>
 10037da:	ab1a      	add	r3, sp, #104	; 0x68
 10037dc:	f843 5d10 	str.w	r5, [r3, #-16]!
 10037e0:	9317      	str	r3, [sp, #92]	; 0x5c
 10037e2:	9b00      	ldr	r3, [sp, #0]
 10037e4:	2b00      	cmp	r3, #0
 10037e6:	f040 809b 	bne.w	1003920 <.LVL160>
 10037ea:	f1b8 0f00 	cmp.w	r8, #0
 10037ee:	d16f      	bne.n	10038d0 <.LVL150+0x4>
 10037f0:	f00b fea0 	bl	100f534 <RC_ApiGetRequestAddressList>

010037f4 <.LVL126>:
 10037f4:	4ba6      	ldr	r3, [pc, #664]	; (1003a90 <.LVL189+0x8>)
 10037f6:	681c      	ldr	r4, [r3, #0]

010037f8 <.LVL127>:
 10037f8:	4606      	mov	r6, r0

010037fa <.LVL128>:
 10037fa:	2c00      	cmp	r4, #0
 10037fc:	d151      	bne.n	10038a2 <.LBE48>

010037fe <.LVL129>:
 10037fe:	b136      	cbz	r6, 100380e <.LVL130>
 1003800:	6833      	ldr	r3, [r6, #0]
 1003802:	4630      	mov	r0, r6
 1003804:	2b00      	cmp	r3, #0
 1003806:	f000 813e 	beq.w	1003a86 <.LVL188>
 100380a:	f01b fbe1 	bl	101efd0 <BLE_LM_AdvMainClrSchReq>

0100380e <.LVL130>:
 100380e:	2001      	movs	r0, #1
 1003810:	f01b f9d2 	bl	101ebb8 <BLE_LM_CmnSetExtAdvCmdRxed>

01003814 <.LVL131>:
 1003814:	e778      	b.n	1003708 <.LBE36>

01003816 <.LBB48>:
 1003816:	2800      	cmp	r0, #0
 1003818:	d0cd      	beq.n	10037b6 <.LVL121+0xc>

0100381a <.LVL133>:
 100381a:	fb09 f305 	mul.w	r3, r9, r5
 100381e:	4650      	mov	r0, sl
 1003820:	5cf1      	ldrb	r1, [r6, r3]
 1003822:	f01b fa3b 	bl	101ec9c <BLE_LM_AdvMainGetDevFromDevList>

01003826 <.LVL134>:
 1003826:	f890 30cc 	ldrb.w	r3, [r0, #204]	; 0xcc
 100382a:	b90b      	cbnz	r3, 1003830 <.LVL137>

0100382c <.LVL135>:
 100382c:	3501      	adds	r5, #1

0100382e <.LVL136>:
 100382e:	e737      	b.n	10036a0 <.LVL94>

01003830 <.LVL137>:
 1003830:	f019 fdd5 	bl	101d3de <RC_ApiGetRequest>

01003834 <.LVL138>:
 1003834:	aa0e      	add	r2, sp, #56	; 0x38
 1003836:	9001      	str	r0, [sp, #4]
 1003838:	f842 0025 	str.w	r0, [r2, r5, lsl #2]
 100383c:	2001      	movs	r0, #1
 100383e:	f013 ff89 	bl	1017754 <RC_ApiGetRequestAddress>

01003842 <.LVL139>:
 1003842:	aa12      	add	r2, sp, #72	; 0x48
 1003844:	4683      	mov	fp, r0
 1003846:	f842 0025 	str.w	r0, [r2, r5, lsl #2]
 100384a:	f00b fe73 	bl	100f534 <RC_ApiGetRequestAddressList>

0100384e <.LVL140>:
 100384e:	aa16      	add	r2, sp, #88	; 0x58
 1003850:	9b01      	ldr	r3, [sp, #4]
 1003852:	f842 0025 	str.w	r0, [r2, r5, lsl #2]
 1003856:	2b00      	cmp	r3, #0
 1003858:	d0ad      	beq.n	10037b6 <.LVL121+0xc>
 100385a:	f1bb 0f00 	cmp.w	fp, #0
 100385e:	d0aa      	beq.n	10037b6 <.LVL121+0xc>
 1003860:	2800      	cmp	r0, #0
 1003862:	d1e3      	bne.n	100382c <.LVL135>
 1003864:	e7a7      	b.n	10037b6 <.LVL121+0xc>

01003866 <.LVL141>:
 1003866:	ab06      	add	r3, sp, #24
 1003868:	f853 0026 	ldr.w	r0, [r3, r6, lsl #2]
 100386c:	b108      	cbz	r0, 1003872 <.LVL142>
 100386e:	f00c fbed 	bl	101004c <RC_ApiFreeRequest>

01003872 <.LVL142>:
 1003872:	ab0a      	add	r3, sp, #40	; 0x28
 1003874:	f853 0026 	ldr.w	r0, [r3, r6, lsl #2]
 1003878:	b108      	cbz	r0, 100387e <.LVL143>
 100387a:	f018 fcf9 	bl	101c270 <RC_ApiFreeRequestAddress>

0100387e <.LVL143>:
 100387e:	ab0e      	add	r3, sp, #56	; 0x38
 1003880:	f853 0026 	ldr.w	r0, [r3, r6, lsl #2]
 1003884:	b108      	cbz	r0, 100388a <.LVL144>
 1003886:	f00c fbe1 	bl	101004c <RC_ApiFreeRequest>

0100388a <.LVL144>:
 100388a:	f85a 0026 	ldr.w	r0, [sl, r6, lsl #2]
 100388e:	b108      	cbz	r0, 1003894 <.LVL145>
 1003890:	f018 fcee 	bl	101c270 <RC_ApiFreeRequestAddress>

01003894 <.LVL145>:
 1003894:	f85b 0026 	ldr.w	r0, [fp, r6, lsl #2]
 1003898:	b108      	cbz	r0, 100389e <.LVL146>
 100389a:	f00d fd11 	bl	10112c0 <RC_ApiFreeRequestAddressList>

0100389e <.LVL146>:
 100389e:	3601      	adds	r6, #1

010038a0 <.LVL147>:
 10038a0:	e791      	b.n	10037c6 <.LVL124>

010038a2 <.LBE48>:
 10038a2:	7c63      	ldrb	r3, [r4, #17]
 10038a4:	2bf0      	cmp	r3, #240	; 0xf0
 10038a6:	d011      	beq.n	10038cc <.LVL150>
 10038a8:	f894 00c8 	ldrb.w	r0, [r4, #200]	; 0xc8
 10038ac:	2801      	cmp	r0, #1
 10038ae:	d10d      	bne.n	10038cc <.LVL150>
 10038b0:	f894 70cd 	ldrb.w	r7, [r4, #205]	; 0xcd
 10038b4:	b947      	cbnz	r7, 10038c8 <.LVL149+0xe>
 10038b6:	f013 ff4d 	bl	1017754 <RC_ApiGetRequestAddress>

010038ba <.LVL149>:
 10038ba:	f8d4 3154 	ldr.w	r3, [r4, #340]	; 0x154
 10038be:	6083      	str	r3, [r0, #8]
 10038c0:	6007      	str	r7, [r0, #0]
 10038c2:	f01b fbee 	bl	101f0a2 <__pa_fn_0_53_01_0>
 10038c6:	6070      	str	r0, [r6, #4]
 10038c8:	f01b f824 	bl	101e914 <__pa_fn_0_65_01_0>

010038cc <.LVL150>:
 10038cc:	6824      	ldr	r4, [r4, #0]
 10038ce:	e794      	b.n	10037fa <.LVL128>
 10038d0:	f00b fe30 	bl	100f534 <RC_ApiGetRequestAddressList>
 10038d4:	f8df 91b8 	ldr.w	r9, [pc, #440]	; 1003a90 <.LVL189+0x8>
 10038d8:	4606      	mov	r6, r0
 10038da:	42a7      	cmp	r7, r4

010038dc <.LVL152>:
 10038dc:	d08f      	beq.n	10037fe <.LVL129>
 10038de:	Address 0x010038de is out of bounds.


010038e0 <.LVL153>:
 10038e0:	1c06      	adds	r6, r0, #0
 10038e2:	4648      	mov	r0, r9
 10038e4:	Address 0x010038e4 is out of bounds.


010038e6 <.LVL154>:
 10038e6:	f9da 4680 	ldr??.w	r4, [sl, #1664]	; 0x680

010038ea <.LVL155>:
 10038ea:	f890 00c8 	ldrb.w	r0, [r0, #200]	; 0xc8
 10038ee:	2801      	cmp	r0, #1
 10038f0:	d114      	bne.n	100391c <.LVL159+0x10>
 10038f2:	Address 0x010038f2 is out of bounds.


010038f4 <.LVL156>:
 10038f4:	a0cd      	add	r0, pc, #820	; (adr r0, 1003c2c <.LVL817+0x92>)

010038f6 <.LVL157>:
 10038f6:	f1ba 0f00 	cmp.w	sl, #0

010038fa <.LVL158>:
 10038fa:	d109      	bne.n	1003910 <.LVL159+0x4>
 10038fc:	f013 ff2a 	bl	1017754 <RC_ApiGetRequestAddress>
 1003900:	f8d8 3154 	ldr.w	r3, [r8, #340]	; 0x154
 1003904:	6083      	str	r3, [r0, #8]
 1003906:	f8c0 a000 	str.w	sl, [r0]
 100390a:	Address 0x0100390a is out of bounds.


0100390c <.LVL159>:
 100390c:	fbca 6070 			; <UNDEFINED> instruction: 0xfbca6070
 1003910:	f898 30cd 	ldrb.w	r3, [r8, #205]	; 0xcd
 1003914:	f043 0301 	orr.w	r3, r3, #1
 1003918:	f888 30cd 	strb.w	r3, [r8, #205]	; 0xcd
 100391c:	3406      	adds	r4, #6
 100391e:	e7dc      	b.n	10038da <.LVL150+0xe>

01003920 <.LVL160>:
 1003920:	2101      	movs	r1, #1
 1003922:	4608      	mov	r0, r1
 1003924:	f010 f8f0 	bl	1013b08 <BLE_LM_CmnSetRPATimer>
 1003928:	f8df 9164 	ldr.w	r9, [pc, #356]	; 1003a90 <.LVL189+0x8>

0100392c <.LVL161>:
 100392c:	46a0      	mov	r8, r4

0100392e <.LVL162>:
 100392e:	4547      	cmp	r7, r8

01003930 <.LVL163>:
 1003930:	d105      	bne.n	100393e <.LVL165>
 1003932:	f00b fdff 	bl	100f534 <RC_ApiGetRequestAddressList>
 1003936:	Address 0x01003936 is out of bounds.


01003938 <.LVL164>:
 1003938:	a158      	add	r1, pc, #352	; (adr r1, 1003a9c <.LBB50>)
 100393a:	4683      	mov	fp, r0
 100393c:	e08e      	b.n	1003a5c <.LVL185+0x12>

0100393e <.LVL165>:
 100393e:	f818 1c06 	ldrb.w	r1, [r8, #-6]
 1003942:	4648      	mov	r0, r9
 1003944:	Address 0x01003944 is out of bounds.


01003946 <.LVL166>:
 1003946:	f9aa f890 	vld1.32			; <UNDEFINED> instruction: 0xf9aaf890
 100394a:	20c8      	movs	r0, #200	; 0xc8

0100394c <.LVL167>:
 100394c:	b112      	cbz	r2, 1003954 <.LVL168+0x6>

0100394e <.LVL168>:
 100394e:	f108 0806 	add.w	r8, r8, #6
 1003952:	e7ec      	b.n	100392e <.LVL162>
 1003954:	f890 1063 	ldrb.w	r1, [r0, #99]	; 0x63

01003958 <.LVL169>:
 1003958:	f009 fb2c 	bl	100cfb4 <BLE_LM_AdvMainPrepDesc>
 100395c:	4606      	mov	r6, r0

0100395e <.LVL170>:
 100395e:	2800      	cmp	r0, #0
 1003960:	d0f5      	beq.n	100394e <.LVL168>

01003962 <.LVL171>:
 1003962:	4d4b      	ldr	r5, [pc, #300]	; (1003a90 <.LVL189+0x8>)

01003964 <.LVL172>:
 1003964:	e00a      	b.n	100397c <.LVL174+0x6>
 1003966:	f814 1c06 	ldrb.w	r1, [r4, #-6]
 100396a:	4628      	mov	r0, r5

0100396c <.LVL173>:
 100396c:	f01b f996 	bl	101ec9c <BLE_LM_AdvMainGetDevFromDevList>
 1003970:	f890 10c8 	ldrb.w	r1, [r0, #200]	; 0xc8
 1003974:	b909      	cbnz	r1, 100397a <.LVL174+0x4>

01003976 <.LVL174>:
 1003976:	f00f fa61 	bl	1012e3c <BLE_LM_AdvMainFreeAllDescFromDescList>
 100397a:	3406      	adds	r4, #6
 100397c:	42bc      	cmp	r4, r7
 100397e:	d1f2      	bne.n	1003966 <.LVL172+0x2>

01003980 <.LVL175>:
 1003980:	2101      	movs	r1, #1
 1003982:	2002      	movs	r0, #2
 1003984:	f010 f8c0 	bl	1013b08 <BLE_LM_CmnSetRPATimer>
 1003988:	4635      	mov	r5, r6

0100398a <.LVL176>:
 100398a:	e740      	b.n	100380e <.LVL130>

0100398c <.LVL177>:
 100398c:	f814 1c06 	ldrb.w	r1, [r4, #-6]
 1003990:	4650      	mov	r0, sl
 1003992:	f01b f983 	bl	101ec9c <BLE_LM_AdvMainGetDevFromDevList>
 1003996:	Address 0x01003996 is out of bounds.


01003998 <.LVL178>:
 1003998:	30c8      	adds	r0, #200	; 0xc8
 100399a:	4606      	mov	r6, r0

0100399c <.LVL179>:
 100399c:	2b00      	cmp	r3, #0
 100399e:	d14c      	bne.n	1003a3a <.LVL184+0x8>
 10039a0:	f890 20cc 	ldrb.w	r2, [r0, #204]	; 0xcc
 10039a4:	b122      	cbz	r2, 10039b0 <.LVL181+0x4>

010039a6 <.LVL180>:
 10039a6:	f880 30cc 	strb.w	r3, [r0, #204]	; 0xcc
 10039aa:	4b3a      	ldr	r3, [pc, #232]	; (1003a94 <.LVL191>)

010039ac <.LVL181>:
 10039ac:	681b      	ldr	r3, [r3, #0]
 10039ae:	4798      	blx	r3
 10039b0:	f896 1063 	ldrb.w	r1, [r6, #99]	; 0x63
 10039b4:	Address 0x010039b4 is out of bounds.


010039b6 <.LBB49>:
 10039b6:	0901      	lsrs	r1, r0, #4
 10039b8:	4549      	cmp	r1, r9
 10039ba:	f04f 0700 	mov.w	r7, #0
 10039be:	bf14      	ite	ne

010039c0 <.LBE49>:
 10039c0:	4649      	movne	r1, r9
 10039c2:	4639      	moveq	r1, r7
 10039c4:	f886 10f2 	strb.w	r1, [r6, #242]	; 0xf2
 10039c8:	2104      	movs	r1, #4
 10039ca:	f886 10f3 	strb.w	r1, [r6, #243]	; 0xf3
 10039ce:	69b1      	ldr	r1, [r6, #24]
 10039d0:	f886 70f0 	strb.w	r7, [r6, #240]	; 0xf0
 10039d4:	f240 2071 	movw	r0, #625	; 0x271
 10039d8:	4341      	muls	r1, r0
 10039da:	f8c6 1108 	str.w	r1, [r6, #264]	; 0x108
 10039de:	f242 7110 	movw	r1, #10000	; 0x2710
 10039e2:	f8c6 110c 	str.w	r1, [r6, #268]	; 0x10c
 10039e6:	f886 90f1 	strb.w	r9, [r6, #241]	; 0xf1
 10039ea:	f886 900c 	strb.w	r9, [r6, #12]
 10039ee:	f886 90c8 	strb.w	r9, [r6, #200]	; 0xc8
 10039f2:	f019 fcf4 	bl	101d3de <RC_ApiGetRequest>
 10039f6:	68b1      	ldr	r1, [r6, #8]
 10039f8:	f8c6 0154 	str.w	r0, [r6, #340]	; 0x154
 10039fc:	62c1      	str	r1, [r0, #44]	; 0x2c
 10039fe:	f8d6 1154 	ldr.w	r1, [r6, #340]	; 0x154
 1003a02:	4b25      	ldr	r3, [pc, #148]	; (1003a98 <.LVL192+0x2>)
 1003a04:	630b      	str	r3, [r1, #48]	; 0x30

01003a06 <.LVL183>:
 1003a06:	f8d6 1154 	ldr.w	r1, [r6, #340]	; 0x154
 1003a0a:	4b24      	ldr	r3, [pc, #144]	; (1003a9c <.LBB50>)
 1003a0c:	634f      	str	r7, [r1, #52]	; 0x34
 1003a0e:	f8d6 1154 	ldr.w	r1, [r6, #340]	; 0x154
 1003a12:	4823      	ldr	r0, [pc, #140]	; (1003aa0 <.LBE50+0x2>)
 1003a14:	638b      	str	r3, [r1, #56]	; 0x38
 1003a16:	f8d6 1154 	ldr.w	r1, [r6, #340]	; 0x154
 1003a1a:	63c8      	str	r0, [r1, #60]	; 0x3c
 1003a1c:	4648      	mov	r0, r9
 1003a1e:	f013 fe99 	bl	1017754 <RC_ApiGetRequestAddress>
 1003a22:	f8d6 3154 	ldr.w	r3, [r6, #340]	; 0x154
 1003a26:	6083      	str	r3, [r0, #8]
 1003a28:	6007      	str	r7, [r0, #0]
 1003a2a:	f8db 3004 	ldr.w	r3, [fp, #4]
 1003a2e:	6043      	str	r3, [r0, #4]
 1003a30:	Address 0x01003a30 is out of bounds.


01003a32 <.LVL184>:
 1003a32:	3004      	adds	r0, #4
 1003a34:	6018      	str	r0, [r3, #0]
 1003a36:	f8cb 0004 	str.w	r0, [fp, #4]
 1003a3a:	f834 3c04 	ldrh.w	r3, [r4, #-4]
 1003a3e:	f8a6 3066 	strh.w	r3, [r6, #102]	; 0x66
 1003a42:	f814 2c02 	ldrb.w	r2, [r4, #-2]
 1003a46:	f886 2065 	strb.w	r2, [r6, #101]	; 0x65

01003a4a <.LVL185>:
 1003a4a:	2200      	movs	r2, #0
 1003a4c:	f886 2064 	strb.w	r2, [r6, #100]	; 0x64
 1003a50:	f506 70cc 	add.w	r0, r6, #408	; 0x198
 1003a54:	b983      	cbnz	r3, 1003a78 <.LVL187+0xc>
 1003a56:	f00a fc93 	bl	100e380 <BT_SYS_TimerStop>
 1003a5a:	3406      	adds	r4, #6
 1003a5c:	45a0      	cmp	r8, r4
 1003a5e:	d195      	bne.n	100398c <.LVL177>
 1003a60:	f1bb 0f00 	cmp.w	fp, #0
 1003a64:	f43f aed3 	beq.w	100380e <.LVL130>
 1003a68:	Address 0x01003a68 is out of bounds.


01003a6a <.LVL186>:
 1003a6a:	3000      	adds	r0, #0

01003a6c <.LVL187>:
 1003a6c:	b153      	cbz	r3, 1003a84 <.LVL187+0x18>
 1003a6e:	2100      	movs	r1, #0
 1003a70:	4658      	mov	r0, fp
 1003a72:	f00b fcbb 	bl	100f3ec <BLE_LM_AdvMainAddSchReq>
 1003a76:	e6ca      	b.n	100380e <.LVL130>
 1003a78:	f242 7110 	movw	r1, #10000	; 0x2710
 1003a7c:	4359      	muls	r1, r3
 1003a7e:	f00a f9eb 	bl	100de58 <BT_SYS_TimerStart>
 1003a82:	e7ea      	b.n	1003a5a <.LVL185+0x10>
 1003a84:	4658      	mov	r0, fp

01003a86 <.LVL188>:
 1003a86:	Address 0x01003a86 is out of bounds.


01003a88 <.LVL189>:
 1003a88:	fc1b e6c0 	ldc2	6, cr14, [fp], {192}	; 0xc0
 1003a8c:	2542      	movs	r5, #66	; 0x42
 1003a8e:	e63b      	b.n	1003708 <.LBE36>
 1003a90:	0544      	.short	0x0544

01003a92 <.LVL190>:
 1003a92:	2000      	.short	0x2000

01003a94 <.LVL191>:
 1003a94:	b658      	.short	0xb658

01003a96 <.LVL192>:
 1003a96:	2000      	.short	0x2000
 1003a98:	0d6d      	.short	0x0d6d

01003a9a <.LVL193>:
 1003a9a:	0101      	.short	0x0101

01003a9c <.LBB50>:
 1003a9c:	31c5      	.short	0x31c5

01003a9e <.LBE50>:
 1003a9e:	0101      	.short	0x0101
 1003aa0:	010092c1 	.word	0x010092c1

Disassembly of section .text.ble_lm_AdvExtPrepDescForExtCAdvEvt%93:

01003aa4 <ble_lm_AdvExtPrepDescForExtCAdvEvt>:
 1003aa4:	e92d 4ff0 	stmdb	sp!, {r4, r5, r6, r7, r8, r9, sl, fp, lr}

01003aa8 <.LCFI46>:
 1003aa8:	b08d      	sub	sp, #52	; 0x34

01003aaa <.LCFI47>:
 1003aaa:	7f03      	ldrb	r3, [r0, #28]
 1003aac:	9303      	str	r3, [sp, #12]

01003aae <.LVL779>:
 1003aae:	2300      	movs	r3, #0
 1003ab0:	4605      	mov	r5, r0
 1003ab2:	461f      	mov	r7, r3
 1003ab4:	9302      	str	r3, [sp, #8]

01003ab6 <.LVL780>:
 1003ab6:	9903      	ldr	r1, [sp, #12]
 1003ab8:	40d9      	lsrs	r1, r3
 1003aba:	07c9      	lsls	r1, r1, #31
 1003abc:	b2da      	uxtb	r2, r3

01003abe <.LVL781>:
 1003abe:	bf48      	it	mi
 1003ac0:	3701      	addmi	r7, #1

01003ac2 <.LVL782>:
 1003ac2:	f103 0301 	add.w	r3, r3, #1
 1003ac6:	bf44      	itt	mi
 1003ac8:	b2ff      	uxtbmi	r7, r7

01003aca <.LVL783>:
 1003aca:	9202      	strmi	r2, [sp, #8]

01003acc <.LVL784>:
 1003acc:	2b03      	cmp	r3, #3
 1003ace:	d1f2      	bne.n	1003ab6 <.LVL780>

01003ad0 <.LVL785>:
 1003ad0:	f107 0803 	add.w	r8, r7, #3
 1003ad4:	ea4f 1008 	mov.w	r0, r8, lsl #4

01003ad8 <.LVL786>:
 1003ad8:	3004      	adds	r0, #4
 1003ada:	f008 faed 	bl	100c0b8 <BT_SYS_CmMemAlloc>

01003ade <.LVL787>:
 1003ade:	b283      	uxth	r3, r0
 1003ae0:	4604      	mov	r4, r0

01003ae2 <.LVL788>:
 1003ae2:	b903      	cbnz	r3, 1003ae6 <.LVL789>
 1003ae4:	3404      	adds	r4, #4

01003ae6 <.LVL789>:
 1003ae6:	2642      	movs	r6, #66	; 0x42
 1003ae8:	fb07 6006 	mla	r0, r7, r6, r6
 1003aec:	f008 fae4 	bl	100c0b8 <BT_SYS_CmMemAlloc>

01003af0 <.LVL790>:
 1003af0:	f8c5 00b0 	str.w	r0, [r5, #176]	; 0xb0
 1003af4:	4630      	mov	r0, r6
 1003af6:	f008 fadf 	bl	100c0b8 <BT_SYS_CmMemAlloc>

01003afa <.LVL791>:
 1003afa:	f8c5 00ac 	str.w	r0, [r5, #172]	; 0xac
 1003afe:	20ff      	movs	r0, #255	; 0xff
 1003b00:	f008 fada 	bl	100c0b8 <BT_SYS_CmMemAlloc>

01003b04 <.LVL792>:
 1003b04:	f8c5 00a8 	str.w	r0, [r5, #168]	; 0xa8
 1003b08:	2028      	movs	r0, #40	; 0x28
 1003b0a:	fb00 f008 	mul.w	r0, r0, r8
 1003b0e:	f01b fbac 	bl	101f26a <BT_SYS_MemAlloc>

01003b12 <.LVL793>:
 1003b12:	4682      	mov	sl, r0

01003b14 <.LVL794>:
 1003b14:	b14c      	cbz	r4, 1003b2a <.LVL794+0x16>
 1003b16:	f8d5 30b0 	ldr.w	r3, [r5, #176]	; 0xb0
 1003b1a:	b133      	cbz	r3, 1003b2a <.LVL794+0x16>
 1003b1c:	f8d5 20ac 	ldr.w	r2, [r5, #172]	; 0xac
 1003b20:	b11a      	cbz	r2, 1003b2a <.LVL794+0x16>
 1003b22:	f8d5 20a8 	ldr.w	r2, [r5, #168]	; 0xa8
 1003b26:	b102      	cbz	r2, 1003b2a <.LVL794+0x16>
 1003b28:	bb60      	cbnz	r0, 1003b84 <.LVL813>
 1003b2a:	4620      	mov	r0, r4

01003b2c <.LVL795>:
 1003b2c:	f011 fa8e 	bl	101504c <BT_SYS_CmMemFree>

01003b30 <.LVL796>:
 1003b30:	f8d5 00b0 	ldr.w	r0, [r5, #176]	; 0xb0
 1003b34:	f011 fa8a 	bl	101504c <BT_SYS_CmMemFree>

01003b38 <.LVL797>:
 1003b38:	f8d5 00ac 	ldr.w	r0, [r5, #172]	; 0xac
 1003b3c:	f011 fa86 	bl	101504c <BT_SYS_CmMemFree>

01003b40 <.LVL798>:
 1003b40:	f8d5 00a8 	ldr.w	r0, [r5, #168]	; 0xa8
 1003b44:	f011 fa82 	bl	101504c <BT_SYS_CmMemFree>

01003b48 <.LVL799>:
 1003b48:	4650      	mov	r0, sl
 1003b4a:	f01b fb90 	bl	101f26e <BT_SYS_MemFree>

01003b4e <.LVL800>:
 1003b4e:	2007      	movs	r0, #7

01003b50 <.LVL801>:
