
./ble_controller_app.X.production.elf:     file format elf32-littlearm


Disassembly of section .config_00045F88:

00045f88 <__config_00045F88>:
   45f88:	ff ff 00 00                                         ....

Disassembly of section .config_00045F8C:

00045f8c <__config_00045F8C>:
   45f8c:	00 40 0e 84                                         .@..

Disassembly of section .config_00045F90:

00045f90 <__config_00045F90>:
   45f90:	38 fc 74 5f                                         8.t_

Disassembly of section .config_00045F94:

00045f94 <__config_00045F94>:
   45f94:	3b 44 10 14                                         ;D..

Disassembly of section .config_00045F98:

00045f98 <__config_00045F98>:
   45f98:	0b 00 00 71                                         ...q

Disassembly of section .vectors:

00000000 <exception_table>:
   0:	f8 ff 01 20 dd 52 02 01 97 ba 00 01 53 c9 00 01     ... .R......S...
  10:	5b fa 00 01 c3 0b 01 01 27 1d 01 01 00 00 00 00     [.......'.......
	...
  2c:	11 d8 02 01 f7 cd 00 01 00 00 00 00 91 42 02 01     .............B..
  3c:	c9 c3 02 01 73 6e 00 01 73 6e 00 01 73 6e 00 01     ....sn..sn..sn..
  4c:	73 6e 00 01 73 6e 00 01 73 6e 00 01 2d e3 02 01     sn..sn..sn..-...
  5c:	73 6e 00 01 73 6e 00 01 73 6e 00 01 73 6e 00 01     sn..sn..sn..sn..
  6c:	73 6e 00 01 a9 b1 02 01 05 f7 02 01 73 6e 00 01     sn..........sn..
  7c:	73 6e 00 01 73 6e 00 01 73 6e 00 01 73 6e 00 01     sn..sn..sn..sn..
  8c:	73 6e 00 01 73 6e 00 01 73 6e 00 01 73 6e 00 01     sn..sn..sn..sn..
  9c:	73 6e 00 01 73 6e 00 01 73 6e 00 01 73 6e 00 01     sn..sn..sn..sn..
  ac:	73 6e 00 01 73 6e 00 01 73 6e 00 01 73 6e 00 01     sn..sn..sn..sn..
  bc:	bd be 01 01 95 4b 01 01 73 6e 00 01 73 6e 00 01     .....K..sn..sn..
  cc:	73 6e 00 01 73 6e 00 01 73 6e 00 01 99 d0 01 01     sn..sn..sn......
  dc:	73 6e 00 01                                         sn..

Disassembly of section .text:

01000000 <_init>:
 1000000:	b5f8      	push	{r3, r4, r5, r6, r7, lr}
 1000002:	bf00      	nop
 1000004:	bcf8      	pop	{r3, r4, r5, r6, r7}
 1000006:	bc08      	pop	{r3}
 1000008:	469e      	mov	lr, r3
 100000a:	4770      	bx	lr

0100000c <__frame_dummy_init_array_entry>:
 100000c:	92fd 0102                                   ....

01000010 <_fini>:
 1000010:	b5f8      	push	{r3, r4, r5, r6, r7, lr}
 1000012:	bf00      	nop
 1000014:	bcf8      	pop	{r3, r4, r5, r6, r7}
 1000016:	bc08      	pop	{r3}
 1000018:	469e      	mov	lr, r3
 100001a:	4770      	bx	lr

0100001c <__do_global_dtors_aux_fini_array_entry>:
 100001c:	92d9 0102                                   ....

Disassembly of section .text.BLE_DTM_TestEndCmd%86:

01000020 <BLE_DTM_TestEndCmd>:
 1000020:	b580      	push	{r7, lr}

01000022 <.LCFI83>:
 1000022:	b082      	sub	sp, #8

01000024 <.LCFI84>:
 1000024:	af00      	add	r7, sp, #0

01000026 <.LCFI85>:
 1000026:	6078      	str	r0, [r7, #4]
 1000028:	f02c ff2a 	bl	102ce80 <_LE_DTM_UnInitTestBuffer>
 100002c:	4b90      	ldr	r3, [pc, #576]	; (1000270 <.LCFI85+0x24a>)
 100002e:	88da      	ldrh	r2, [r3, #6]
 1000030:	687b      	ldr	r3, [r7, #4]
 1000032:	801a      	strh	r2, [r3, #0]
 1000034:	220c      	movs	r2, #12
 1000036:	2100      	movs	r1, #0
 1000038:	488d      	ldr	r0, [pc, #564]	; (1000270 <.LCFI85+0x24a>)
 100003a:	f030 ff45 	bl	1030ec8 <memset>
 100003e:	4b8d      	ldr	r3, [pc, #564]	; (1000274 <.LCFI85+0x24e>)
 1000040:	f503 52b1 	add.w	r2, r3, #5664	; 0x1620
 1000044:	6813      	ldr	r3, [r2, #0]
 1000046:	f36f 0300 	bfc	r3, #0, #1
 100004a:	6013      	str	r3, [r2, #0]
 100004c:	4b89      	ldr	r3, [pc, #548]	; (1000274 <.LCFI85+0x24e>)
 100004e:	f503 52b1 	add.w	r2, r3, #5664	; 0x1620
 1000052:	6813      	ldr	r3, [r2, #0]
 1000054:	f36f 0341 	bfc	r3, #1, #1
 1000058:	6013      	str	r3, [r2, #0]
 100005a:	4b86      	ldr	r3, [pc, #536]	; (1000274 <.LCFI85+0x24e>)
 100005c:	f503 52b1 	add.w	r2, r3, #5664	; 0x1620
 1000060:	6813      	ldr	r3, [r2, #0]
 1000062:	f36f 1304 	bfc	r3, #4, #1
 1000066:	6013      	str	r3, [r2, #0]
 1000068:	4b82      	ldr	r3, [pc, #520]	; (1000274 <.LCFI85+0x24e>)
 100006a:	f503 52b1 	add.w	r2, r3, #5664	; 0x1620
 100006e:	6813      	ldr	r3, [r2, #0]
 1000070:	f36f 1345 	bfc	r3, #5, #1
 1000074:	6013      	str	r3, [r2, #0]
 1000076:	4b7f      	ldr	r3, [pc, #508]	; (1000274 <.LCFI85+0x24e>)
 1000078:	f503 52b1 	add.w	r2, r3, #5664	; 0x1620
 100007c:	6813      	ldr	r3, [r2, #0]
 100007e:	f36f 1386 	bfc	r3, #6, #1
 1000082:	6013      	str	r3, [r2, #0]
 1000084:	4b7c      	ldr	r3, [pc, #496]	; (1000278 <.LCFI85+0x252>)
 1000086:	681b      	ldr	r3, [r3, #0]
 1000088:	3301      	adds	r3, #1
 100008a:	4a7b      	ldr	r2, [pc, #492]	; (1000278 <.LCFI85+0x252>)
 100008c:	6013      	str	r3, [r2, #0]
 100008e:	4b7a      	ldr	r3, [pc, #488]	; (1000278 <.LCFI85+0x252>)
 1000090:	681b      	ldr	r3, [r3, #0]
 1000092:	3301      	adds	r3, #1
 1000094:	4a78      	ldr	r2, [pc, #480]	; (1000278 <.LCFI85+0x252>)
 1000096:	6013      	str	r3, [r2, #0]
 1000098:	4b77      	ldr	r3, [pc, #476]	; (1000278 <.LCFI85+0x252>)
 100009a:	681b      	ldr	r3, [r3, #0]
 100009c:	3301      	adds	r3, #1
 100009e:	4a76      	ldr	r2, [pc, #472]	; (1000278 <.LCFI85+0x252>)
 10000a0:	6013      	str	r3, [r2, #0]
 10000a2:	4b75      	ldr	r3, [pc, #468]	; (1000278 <.LCFI85+0x252>)
 10000a4:	681b      	ldr	r3, [r3, #0]
 10000a6:	3301      	adds	r3, #1
 10000a8:	4a73      	ldr	r2, [pc, #460]	; (1000278 <.LCFI85+0x252>)
 10000aa:	6013      	str	r3, [r2, #0]
 10000ac:	4b72      	ldr	r3, [pc, #456]	; (1000278 <.LCFI85+0x252>)
 10000ae:	681b      	ldr	r3, [r3, #0]
 10000b0:	3301      	adds	r3, #1
 10000b2:	4a71      	ldr	r2, [pc, #452]	; (1000278 <.LCFI85+0x252>)
 10000b4:	6013      	str	r3, [r2, #0]
 10000b6:	4b70      	ldr	r3, [pc, #448]	; (1000278 <.LCFI85+0x252>)
 10000b8:	681b      	ldr	r3, [r3, #0]
 10000ba:	3301      	adds	r3, #1
 10000bc:	4a6e      	ldr	r2, [pc, #440]	; (1000278 <.LCFI85+0x252>)
 10000be:	6013      	str	r3, [r2, #0]
 10000c0:	4b6d      	ldr	r3, [pc, #436]	; (1000278 <.LCFI85+0x252>)
 10000c2:	681b      	ldr	r3, [r3, #0]
 10000c4:	3301      	adds	r3, #1
 10000c6:	4a6c      	ldr	r2, [pc, #432]	; (1000278 <.LCFI85+0x252>)
 10000c8:	6013      	str	r3, [r2, #0]
 10000ca:	4b6b      	ldr	r3, [pc, #428]	; (1000278 <.LCFI85+0x252>)
 10000cc:	681b      	ldr	r3, [r3, #0]
 10000ce:	3301      	adds	r3, #1
 10000d0:	4a69      	ldr	r2, [pc, #420]	; (1000278 <.LCFI85+0x252>)
 10000d2:	6013      	str	r3, [r2, #0]
 10000d4:	4b68      	ldr	r3, [pc, #416]	; (1000278 <.LCFI85+0x252>)
 10000d6:	681b      	ldr	r3, [r3, #0]
 10000d8:	3301      	adds	r3, #1
 10000da:	4a67      	ldr	r2, [pc, #412]	; (1000278 <.LCFI85+0x252>)
 10000dc:	6013      	str	r3, [r2, #0]
 10000de:	4b66      	ldr	r3, [pc, #408]	; (1000278 <.LCFI85+0x252>)
 10000e0:	681b      	ldr	r3, [r3, #0]
 10000e2:	3301      	adds	r3, #1
 10000e4:	4a64      	ldr	r2, [pc, #400]	; (1000278 <.LCFI85+0x252>)
 10000e6:	6013      	str	r3, [r2, #0]
 10000e8:	4b63      	ldr	r3, [pc, #396]	; (1000278 <.LCFI85+0x252>)
 10000ea:	681b      	ldr	r3, [r3, #0]
 10000ec:	3301      	adds	r3, #1
 10000ee:	4a62      	ldr	r2, [pc, #392]	; (1000278 <.LCFI85+0x252>)
 10000f0:	6013      	str	r3, [r2, #0]
 10000f2:	4b61      	ldr	r3, [pc, #388]	; (1000278 <.LCFI85+0x252>)
 10000f4:	681b      	ldr	r3, [r3, #0]
 10000f6:	3301      	adds	r3, #1
 10000f8:	4a5f      	ldr	r2, [pc, #380]	; (1000278 <.LCFI85+0x252>)
 10000fa:	6013      	str	r3, [r2, #0]
 10000fc:	4b5e      	ldr	r3, [pc, #376]	; (1000278 <.LCFI85+0x252>)
 10000fe:	681b      	ldr	r3, [r3, #0]
 1000100:	3301      	adds	r3, #1
 1000102:	4a5d      	ldr	r2, [pc, #372]	; (1000278 <.LCFI85+0x252>)
 1000104:	6013      	str	r3, [r2, #0]
 1000106:	4b5c      	ldr	r3, [pc, #368]	; (1000278 <.LCFI85+0x252>)
 1000108:	681b      	ldr	r3, [r3, #0]
 100010a:	3301      	adds	r3, #1
 100010c:	4a5a      	ldr	r2, [pc, #360]	; (1000278 <.LCFI85+0x252>)
 100010e:	6013      	str	r3, [r2, #0]
 1000110:	4b59      	ldr	r3, [pc, #356]	; (1000278 <.LCFI85+0x252>)
 1000112:	681b      	ldr	r3, [r3, #0]
 1000114:	3301      	adds	r3, #1
 1000116:	4a58      	ldr	r2, [pc, #352]	; (1000278 <.LCFI85+0x252>)
 1000118:	6013      	str	r3, [r2, #0]
 100011a:	4b57      	ldr	r3, [pc, #348]	; (1000278 <.LCFI85+0x252>)
 100011c:	681b      	ldr	r3, [r3, #0]
 100011e:	3301      	adds	r3, #1
 1000120:	4a55      	ldr	r2, [pc, #340]	; (1000278 <.LCFI85+0x252>)
 1000122:	6013      	str	r3, [r2, #0]
 1000124:	4b54      	ldr	r3, [pc, #336]	; (1000278 <.LCFI85+0x252>)
 1000126:	681b      	ldr	r3, [r3, #0]
 1000128:	3301      	adds	r3, #1
 100012a:	4a53      	ldr	r2, [pc, #332]	; (1000278 <.LCFI85+0x252>)
 100012c:	6013      	str	r3, [r2, #0]
 100012e:	4b52      	ldr	r3, [pc, #328]	; (1000278 <.LCFI85+0x252>)
 1000130:	681b      	ldr	r3, [r3, #0]
 1000132:	3301      	adds	r3, #1
 1000134:	4a50      	ldr	r2, [pc, #320]	; (1000278 <.LCFI85+0x252>)
 1000136:	6013      	str	r3, [r2, #0]
 1000138:	4b4f      	ldr	r3, [pc, #316]	; (1000278 <.LCFI85+0x252>)
 100013a:	681b      	ldr	r3, [r3, #0]
 100013c:	3301      	adds	r3, #1
 100013e:	4a4e      	ldr	r2, [pc, #312]	; (1000278 <.LCFI85+0x252>)
 1000140:	6013      	str	r3, [r2, #0]
 1000142:	4b4d      	ldr	r3, [pc, #308]	; (1000278 <.LCFI85+0x252>)
 1000144:	681b      	ldr	r3, [r3, #0]
 1000146:	3301      	adds	r3, #1
 1000148:	4a4b      	ldr	r2, [pc, #300]	; (1000278 <.LCFI85+0x252>)
 100014a:	6013      	str	r3, [r2, #0]
 100014c:	4b4a      	ldr	r3, [pc, #296]	; (1000278 <.LCFI85+0x252>)
 100014e:	681b      	ldr	r3, [r3, #0]
 1000150:	3301      	adds	r3, #1
 1000152:	4a49      	ldr	r2, [pc, #292]	; (1000278 <.LCFI85+0x252>)
 1000154:	6013      	str	r3, [r2, #0]
 1000156:	4b48      	ldr	r3, [pc, #288]	; (1000278 <.LCFI85+0x252>)
 1000158:	681b      	ldr	r3, [r3, #0]
 100015a:	3301      	adds	r3, #1
 100015c:	4a46      	ldr	r2, [pc, #280]	; (1000278 <.LCFI85+0x252>)
 100015e:	6013      	str	r3, [r2, #0]
 1000160:	4b45      	ldr	r3, [pc, #276]	; (1000278 <.LCFI85+0x252>)
 1000162:	681b      	ldr	r3, [r3, #0]
 1000164:	3301      	adds	r3, #1
 1000166:	4a44      	ldr	r2, [pc, #272]	; (1000278 <.LCFI85+0x252>)
 1000168:	6013      	str	r3, [r2, #0]
 100016a:	4b43      	ldr	r3, [pc, #268]	; (1000278 <.LCFI85+0x252>)
 100016c:	681b      	ldr	r3, [r3, #0]
 100016e:	3301      	adds	r3, #1
 1000170:	4a41      	ldr	r2, [pc, #260]	; (1000278 <.LCFI85+0x252>)
 1000172:	6013      	str	r3, [r2, #0]
 1000174:	4b40      	ldr	r3, [pc, #256]	; (1000278 <.LCFI85+0x252>)
 1000176:	681b      	ldr	r3, [r3, #0]
 1000178:	3301      	adds	r3, #1
 100017a:	4a3f      	ldr	r2, [pc, #252]	; (1000278 <.LCFI85+0x252>)
 100017c:	6013      	str	r3, [r2, #0]
 100017e:	4b3e      	ldr	r3, [pc, #248]	; (1000278 <.LCFI85+0x252>)
 1000180:	681b      	ldr	r3, [r3, #0]
 1000182:	3301      	adds	r3, #1
 1000184:	4a3c      	ldr	r2, [pc, #240]	; (1000278 <.LCFI85+0x252>)
 1000186:	6013      	str	r3, [r2, #0]
 1000188:	4b3b      	ldr	r3, [pc, #236]	; (1000278 <.LCFI85+0x252>)
 100018a:	681b      	ldr	r3, [r3, #0]
 100018c:	3301      	adds	r3, #1
 100018e:	4a3a      	ldr	r2, [pc, #232]	; (1000278 <.LCFI85+0x252>)
 1000190:	6013      	str	r3, [r2, #0]
 1000192:	4b39      	ldr	r3, [pc, #228]	; (1000278 <.LCFI85+0x252>)
 1000194:	681b      	ldr	r3, [r3, #0]
 1000196:	3301      	adds	r3, #1
 1000198:	4a37      	ldr	r2, [pc, #220]	; (1000278 <.LCFI85+0x252>)
 100019a:	6013      	str	r3, [r2, #0]
 100019c:	4b36      	ldr	r3, [pc, #216]	; (1000278 <.LCFI85+0x252>)
 100019e:	681b      	ldr	r3, [r3, #0]
 10001a0:	3301      	adds	r3, #1
 10001a2:	4a35      	ldr	r2, [pc, #212]	; (1000278 <.LCFI85+0x252>)
 10001a4:	6013      	str	r3, [r2, #0]
 10001a6:	4b34      	ldr	r3, [pc, #208]	; (1000278 <.LCFI85+0x252>)
 10001a8:	681b      	ldr	r3, [r3, #0]
 10001aa:	3301      	adds	r3, #1
 10001ac:	4a32      	ldr	r2, [pc, #200]	; (1000278 <.LCFI85+0x252>)
 10001ae:	6013      	str	r3, [r2, #0]
 10001b0:	4b31      	ldr	r3, [pc, #196]	; (1000278 <.LCFI85+0x252>)
 10001b2:	681b      	ldr	r3, [r3, #0]
 10001b4:	3301      	adds	r3, #1
 10001b6:	4a30      	ldr	r2, [pc, #192]	; (1000278 <.LCFI85+0x252>)
 10001b8:	6013      	str	r3, [r2, #0]
 10001ba:	4b2f      	ldr	r3, [pc, #188]	; (1000278 <.LCFI85+0x252>)
 10001bc:	681b      	ldr	r3, [r3, #0]
 10001be:	3301      	adds	r3, #1
 10001c0:	4a2d      	ldr	r2, [pc, #180]	; (1000278 <.LCFI85+0x252>)
 10001c2:	6013      	str	r3, [r2, #0]
 10001c4:	4b2c      	ldr	r3, [pc, #176]	; (1000278 <.LCFI85+0x252>)
 10001c6:	681b      	ldr	r3, [r3, #0]
 10001c8:	3301      	adds	r3, #1
 10001ca:	4a2b      	ldr	r2, [pc, #172]	; (1000278 <.LCFI85+0x252>)
 10001cc:	6013      	str	r3, [r2, #0]
 10001ce:	4b2a      	ldr	r3, [pc, #168]	; (1000278 <.LCFI85+0x252>)
 10001d0:	681b      	ldr	r3, [r3, #0]
 10001d2:	3301      	adds	r3, #1
 10001d4:	4a28      	ldr	r2, [pc, #160]	; (1000278 <.LCFI85+0x252>)
 10001d6:	6013      	str	r3, [r2, #0]
 10001d8:	4b27      	ldr	r3, [pc, #156]	; (1000278 <.LCFI85+0x252>)
 10001da:	681b      	ldr	r3, [r3, #0]
 10001dc:	3301      	adds	r3, #1
 10001de:	4a26      	ldr	r2, [pc, #152]	; (1000278 <.LCFI85+0x252>)
 10001e0:	6013      	str	r3, [r2, #0]
 10001e2:	4b25      	ldr	r3, [pc, #148]	; (1000278 <.LCFI85+0x252>)
 10001e4:	681b      	ldr	r3, [r3, #0]
 10001e6:	3301      	adds	r3, #1
 10001e8:	4a23      	ldr	r2, [pc, #140]	; (1000278 <.LCFI85+0x252>)
 10001ea:	6013      	str	r3, [r2, #0]
 10001ec:	4b22      	ldr	r3, [pc, #136]	; (1000278 <.LCFI85+0x252>)
 10001ee:	681b      	ldr	r3, [r3, #0]
 10001f0:	3301      	adds	r3, #1
 10001f2:	4a21      	ldr	r2, [pc, #132]	; (1000278 <.LCFI85+0x252>)
 10001f4:	6013      	str	r3, [r2, #0]
 10001f6:	4b20      	ldr	r3, [pc, #128]	; (1000278 <.LCFI85+0x252>)
 10001f8:	681b      	ldr	r3, [r3, #0]
 10001fa:	3301      	adds	r3, #1
 10001fc:	4a1e      	ldr	r2, [pc, #120]	; (1000278 <.LCFI85+0x252>)
 10001fe:	6013      	str	r3, [r2, #0]
 1000200:	4b1d      	ldr	r3, [pc, #116]	; (1000278 <.LCFI85+0x252>)
 1000202:	681b      	ldr	r3, [r3, #0]
 1000204:	3301      	adds	r3, #1
 1000206:	4a1c      	ldr	r2, [pc, #112]	; (1000278 <.LCFI85+0x252>)
 1000208:	6013      	str	r3, [r2, #0]
 100020a:	4b1b      	ldr	r3, [pc, #108]	; (1000278 <.LCFI85+0x252>)
 100020c:	681b      	ldr	r3, [r3, #0]
 100020e:	3301      	adds	r3, #1
 1000210:	4a19      	ldr	r2, [pc, #100]	; (1000278 <.LCFI85+0x252>)
 1000212:	6013      	str	r3, [r2, #0]
 1000214:	4b18      	ldr	r3, [pc, #96]	; (1000278 <.LCFI85+0x252>)
 1000216:	681b      	ldr	r3, [r3, #0]
 1000218:	3301      	adds	r3, #1
 100021a:	4a17      	ldr	r2, [pc, #92]	; (1000278 <.LCFI85+0x252>)
 100021c:	6013      	str	r3, [r2, #0]
 100021e:	4b16      	ldr	r3, [pc, #88]	; (1000278 <.LCFI85+0x252>)
 1000220:	681b      	ldr	r3, [r3, #0]
 1000222:	3301      	adds	r3, #1
 1000224:	4a14      	ldr	r2, [pc, #80]	; (1000278 <.LCFI85+0x252>)
 1000226:	6013      	str	r3, [r2, #0]
 1000228:	4b13      	ldr	r3, [pc, #76]	; (1000278 <.LCFI85+0x252>)
 100022a:	681b      	ldr	r3, [r3, #0]
 100022c:	3301      	adds	r3, #1
 100022e:	4a12      	ldr	r2, [pc, #72]	; (1000278 <.LCFI85+0x252>)
 1000230:	6013      	str	r3, [r2, #0]
 1000232:	4b11      	ldr	r3, [pc, #68]	; (1000278 <.LCFI85+0x252>)
 1000234:	681b      	ldr	r3, [r3, #0]
 1000236:	3301      	adds	r3, #1
 1000238:	4a0f      	ldr	r2, [pc, #60]	; (1000278 <.LCFI85+0x252>)
 100023a:	6013      	str	r3, [r2, #0]
 100023c:	4b0e      	ldr	r3, [pc, #56]	; (1000278 <.LCFI85+0x252>)
 100023e:	681b      	ldr	r3, [r3, #0]
 1000240:	3301      	adds	r3, #1
 1000242:	4a0d      	ldr	r2, [pc, #52]	; (1000278 <.LCFI85+0x252>)
 1000244:	6013      	str	r3, [r2, #0]
 1000246:	4b0c      	ldr	r3, [pc, #48]	; (1000278 <.LCFI85+0x252>)
 1000248:	681b      	ldr	r3, [r3, #0]
 100024a:	3301      	adds	r3, #1
 100024c:	4a0a      	ldr	r2, [pc, #40]	; (1000278 <.LCFI85+0x252>)
 100024e:	6013      	str	r3, [r2, #0]
 1000250:	4b09      	ldr	r3, [pc, #36]	; (1000278 <.LCFI85+0x252>)
 1000252:	681b      	ldr	r3, [r3, #0]
 1000254:	3301      	adds	r3, #1
 1000256:	4a08      	ldr	r2, [pc, #32]	; (1000278 <.LCFI85+0x252>)
 1000258:	6013      	str	r3, [r2, #0]
 100025a:	4b07      	ldr	r3, [pc, #28]	; (1000278 <.LCFI85+0x252>)
 100025c:	681b      	ldr	r3, [r3, #0]
 100025e:	3301      	adds	r3, #1
 1000260:	4a05      	ldr	r2, [pc, #20]	; (1000278 <.LCFI85+0x252>)
 1000262:	6013      	str	r3, [r2, #0]
 1000264:	4b04      	ldr	r3, [pc, #16]	; (1000278 <.LCFI85+0x252>)
 1000266:	681b      	ldr	r3, [r3, #0]
 1000268:	3301      	adds	r3, #1
 100026a:	4a03      	ldr	r2, [pc, #12]	; (1000278 <.LCFI85+0x252>)
 100026c:	6013      	str	r3, [r2, #0]
 100026e:	e005      	b.n	100027c <.LCFI85+0x256>
 1000270:	20000754 	.word	0x20000754
 1000274:	41012400 	.word	0x41012400
 1000278:	2000b5d4 	.word	0x2000b5d4
 100027c:	4b8d      	ldr	r3, [pc, #564]	; (10004b4 <.LCFI85+0x48e>)
 100027e:	681b      	ldr	r3, [r3, #0]
 1000280:	3301      	adds	r3, #1
 1000282:	4a8c      	ldr	r2, [pc, #560]	; (10004b4 <.LCFI85+0x48e>)
 1000284:	6013      	str	r3, [r2, #0]
 1000286:	4b8b      	ldr	r3, [pc, #556]	; (10004b4 <.LCFI85+0x48e>)
 1000288:	681b      	ldr	r3, [r3, #0]
 100028a:	3301      	adds	r3, #1
 100028c:	4a89      	ldr	r2, [pc, #548]	; (10004b4 <.LCFI85+0x48e>)
 100028e:	6013      	str	r3, [r2, #0]
 1000290:	4b88      	ldr	r3, [pc, #544]	; (10004b4 <.LCFI85+0x48e>)
 1000292:	681b      	ldr	r3, [r3, #0]
 1000294:	3301      	adds	r3, #1
 1000296:	4a87      	ldr	r2, [pc, #540]	; (10004b4 <.LCFI85+0x48e>)
 1000298:	6013      	str	r3, [r2, #0]
 100029a:	4b86      	ldr	r3, [pc, #536]	; (10004b4 <.LCFI85+0x48e>)
 100029c:	681b      	ldr	r3, [r3, #0]
 100029e:	3301      	adds	r3, #1
 10002a0:	4a84      	ldr	r2, [pc, #528]	; (10004b4 <.LCFI85+0x48e>)
 10002a2:	6013      	str	r3, [r2, #0]
 10002a4:	4b83      	ldr	r3, [pc, #524]	; (10004b4 <.LCFI85+0x48e>)
 10002a6:	681b      	ldr	r3, [r3, #0]
 10002a8:	3301      	adds	r3, #1
 10002aa:	4a82      	ldr	r2, [pc, #520]	; (10004b4 <.LCFI85+0x48e>)
 10002ac:	6013      	str	r3, [r2, #0]
 10002ae:	4b81      	ldr	r3, [pc, #516]	; (10004b4 <.LCFI85+0x48e>)
 10002b0:	681b      	ldr	r3, [r3, #0]
 10002b2:	3301      	adds	r3, #1
 10002b4:	4a7f      	ldr	r2, [pc, #508]	; (10004b4 <.LCFI85+0x48e>)
 10002b6:	6013      	str	r3, [r2, #0]
 10002b8:	4b7e      	ldr	r3, [pc, #504]	; (10004b4 <.LCFI85+0x48e>)
 10002ba:	681b      	ldr	r3, [r3, #0]
 10002bc:	3301      	adds	r3, #1
 10002be:	4a7d      	ldr	r2, [pc, #500]	; (10004b4 <.LCFI85+0x48e>)
 10002c0:	6013      	str	r3, [r2, #0]
 10002c2:	4b7c      	ldr	r3, [pc, #496]	; (10004b4 <.LCFI85+0x48e>)
 10002c4:	681b      	ldr	r3, [r3, #0]
 10002c6:	3301      	adds	r3, #1
 10002c8:	4a7a      	ldr	r2, [pc, #488]	; (10004b4 <.LCFI85+0x48e>)
 10002ca:	6013      	str	r3, [r2, #0]
 10002cc:	4b79      	ldr	r3, [pc, #484]	; (10004b4 <.LCFI85+0x48e>)
 10002ce:	681b      	ldr	r3, [r3, #0]
 10002d0:	3301      	adds	r3, #1
 10002d2:	4a78      	ldr	r2, [pc, #480]	; (10004b4 <.LCFI85+0x48e>)
 10002d4:	6013      	str	r3, [r2, #0]
 10002d6:	4b77      	ldr	r3, [pc, #476]	; (10004b4 <.LCFI85+0x48e>)
 10002d8:	681b      	ldr	r3, [r3, #0]
 10002da:	3301      	adds	r3, #1
 10002dc:	4a75      	ldr	r2, [pc, #468]	; (10004b4 <.LCFI85+0x48e>)
 10002de:	6013      	str	r3, [r2, #0]
 10002e0:	4b74      	ldr	r3, [pc, #464]	; (10004b4 <.LCFI85+0x48e>)
 10002e2:	681b      	ldr	r3, [r3, #0]
 10002e4:	3301      	adds	r3, #1
 10002e6:	4a73      	ldr	r2, [pc, #460]	; (10004b4 <.LCFI85+0x48e>)
 10002e8:	6013      	str	r3, [r2, #0]
 10002ea:	4b72      	ldr	r3, [pc, #456]	; (10004b4 <.LCFI85+0x48e>)
 10002ec:	681b      	ldr	r3, [r3, #0]
 10002ee:	3301      	adds	r3, #1
 10002f0:	4a70      	ldr	r2, [pc, #448]	; (10004b4 <.LCFI85+0x48e>)
 10002f2:	6013      	str	r3, [r2, #0]
 10002f4:	4b6f      	ldr	r3, [pc, #444]	; (10004b4 <.LCFI85+0x48e>)
 10002f6:	681b      	ldr	r3, [r3, #0]
 10002f8:	3301      	adds	r3, #1
 10002fa:	4a6e      	ldr	r2, [pc, #440]	; (10004b4 <.LCFI85+0x48e>)
 10002fc:	6013      	str	r3, [r2, #0]
 10002fe:	4b6d      	ldr	r3, [pc, #436]	; (10004b4 <.LCFI85+0x48e>)
 1000300:	681b      	ldr	r3, [r3, #0]
 1000302:	3301      	adds	r3, #1
 1000304:	4a6b      	ldr	r2, [pc, #428]	; (10004b4 <.LCFI85+0x48e>)
 1000306:	6013      	str	r3, [r2, #0]
 1000308:	4b6a      	ldr	r3, [pc, #424]	; (10004b4 <.LCFI85+0x48e>)
 100030a:	681b      	ldr	r3, [r3, #0]
 100030c:	3301      	adds	r3, #1
 100030e:	4a69      	ldr	r2, [pc, #420]	; (10004b4 <.LCFI85+0x48e>)
 1000310:	6013      	str	r3, [r2, #0]
 1000312:	4b68      	ldr	r3, [pc, #416]	; (10004b4 <.LCFI85+0x48e>)
 1000314:	681b      	ldr	r3, [r3, #0]
 1000316:	3301      	adds	r3, #1
 1000318:	4a66      	ldr	r2, [pc, #408]	; (10004b4 <.LCFI85+0x48e>)
 100031a:	6013      	str	r3, [r2, #0]
 100031c:	4b65      	ldr	r3, [pc, #404]	; (10004b4 <.LCFI85+0x48e>)
 100031e:	681b      	ldr	r3, [r3, #0]
 1000320:	3301      	adds	r3, #1
 1000322:	4a64      	ldr	r2, [pc, #400]	; (10004b4 <.LCFI85+0x48e>)
 1000324:	6013      	str	r3, [r2, #0]
 1000326:	4b63      	ldr	r3, [pc, #396]	; (10004b4 <.LCFI85+0x48e>)
 1000328:	681b      	ldr	r3, [r3, #0]
 100032a:	3301      	adds	r3, #1
 100032c:	4a61      	ldr	r2, [pc, #388]	; (10004b4 <.LCFI85+0x48e>)
 100032e:	6013      	str	r3, [r2, #0]
 1000330:	4b60      	ldr	r3, [pc, #384]	; (10004b4 <.LCFI85+0x48e>)
 1000332:	681b      	ldr	r3, [r3, #0]
 1000334:	3301      	adds	r3, #1
 1000336:	4a5f      	ldr	r2, [pc, #380]	; (10004b4 <.LCFI85+0x48e>)
 1000338:	6013      	str	r3, [r2, #0]
 100033a:	4b5e      	ldr	r3, [pc, #376]	; (10004b4 <.LCFI85+0x48e>)
 100033c:	681b      	ldr	r3, [r3, #0]
 100033e:	3301      	adds	r3, #1
 1000340:	4a5c      	ldr	r2, [pc, #368]	; (10004b4 <.LCFI85+0x48e>)
 1000342:	6013      	str	r3, [r2, #0]
 1000344:	4b5b      	ldr	r3, [pc, #364]	; (10004b4 <.LCFI85+0x48e>)
 1000346:	681b      	ldr	r3, [r3, #0]
 1000348:	3301      	adds	r3, #1
 100034a:	4a5a      	ldr	r2, [pc, #360]	; (10004b4 <.LCFI85+0x48e>)
 100034c:	6013      	str	r3, [r2, #0]
 100034e:	4b59      	ldr	r3, [pc, #356]	; (10004b4 <.LCFI85+0x48e>)
 1000350:	681b      	ldr	r3, [r3, #0]
 1000352:	3301      	adds	r3, #1
 1000354:	4a57      	ldr	r2, [pc, #348]	; (10004b4 <.LCFI85+0x48e>)
 1000356:	6013      	str	r3, [r2, #0]
 1000358:	4b56      	ldr	r3, [pc, #344]	; (10004b4 <.LCFI85+0x48e>)
 100035a:	681b      	ldr	r3, [r3, #0]
 100035c:	3301      	adds	r3, #1
 100035e:	4a55      	ldr	r2, [pc, #340]	; (10004b4 <.LCFI85+0x48e>)
 1000360:	6013      	str	r3, [r2, #0]
 1000362:	4b54      	ldr	r3, [pc, #336]	; (10004b4 <.LCFI85+0x48e>)
 1000364:	681b      	ldr	r3, [r3, #0]
 1000366:	3301      	adds	r3, #1
 1000368:	4a52      	ldr	r2, [pc, #328]	; (10004b4 <.LCFI85+0x48e>)
 100036a:	6013      	str	r3, [r2, #0]
 100036c:	4b51      	ldr	r3, [pc, #324]	; (10004b4 <.LCFI85+0x48e>)
 100036e:	681b      	ldr	r3, [r3, #0]
 1000370:	3301      	adds	r3, #1
 1000372:	4a50      	ldr	r2, [pc, #320]	; (10004b4 <.LCFI85+0x48e>)
 1000374:	6013      	str	r3, [r2, #0]
 1000376:	4b4f      	ldr	r3, [pc, #316]	; (10004b4 <.LCFI85+0x48e>)
 1000378:	681b      	ldr	r3, [r3, #0]
 100037a:	3301      	adds	r3, #1
 100037c:	4a4d      	ldr	r2, [pc, #308]	; (10004b4 <.LCFI85+0x48e>)
 100037e:	6013      	str	r3, [r2, #0]
 1000380:	4b4c      	ldr	r3, [pc, #304]	; (10004b4 <.LCFI85+0x48e>)
 1000382:	681b      	ldr	r3, [r3, #0]
 1000384:	3301      	adds	r3, #1
 1000386:	4a4b      	ldr	r2, [pc, #300]	; (10004b4 <.LCFI85+0x48e>)
 1000388:	6013      	str	r3, [r2, #0]
 100038a:	4b4a      	ldr	r3, [pc, #296]	; (10004b4 <.LCFI85+0x48e>)
 100038c:	681b      	ldr	r3, [r3, #0]
 100038e:	3301      	adds	r3, #1
 1000390:	4a48      	ldr	r2, [pc, #288]	; (10004b4 <.LCFI85+0x48e>)
 1000392:	6013      	str	r3, [r2, #0]
 1000394:	4b47      	ldr	r3, [pc, #284]	; (10004b4 <.LCFI85+0x48e>)
 1000396:	681b      	ldr	r3, [r3, #0]
 1000398:	3301      	adds	r3, #1
 100039a:	4a46      	ldr	r2, [pc, #280]	; (10004b4 <.LCFI85+0x48e>)
 100039c:	6013      	str	r3, [r2, #0]
 100039e:	4b45      	ldr	r3, [pc, #276]	; (10004b4 <.LCFI85+0x48e>)
 10003a0:	681b      	ldr	r3, [r3, #0]
 10003a2:	3301      	adds	r3, #1
 10003a4:	4a43      	ldr	r2, [pc, #268]	; (10004b4 <.LCFI85+0x48e>)
 10003a6:	6013      	str	r3, [r2, #0]
 10003a8:	4b42      	ldr	r3, [pc, #264]	; (10004b4 <.LCFI85+0x48e>)
 10003aa:	681b      	ldr	r3, [r3, #0]
 10003ac:	3301      	adds	r3, #1
 10003ae:	4a41      	ldr	r2, [pc, #260]	; (10004b4 <.LCFI85+0x48e>)
 10003b0:	6013      	str	r3, [r2, #0]
 10003b2:	4b40      	ldr	r3, [pc, #256]	; (10004b4 <.LCFI85+0x48e>)
 10003b4:	681b      	ldr	r3, [r3, #0]
 10003b6:	3301      	adds	r3, #1
 10003b8:	4a3e      	ldr	r2, [pc, #248]	; (10004b4 <.LCFI85+0x48e>)
 10003ba:	6013      	str	r3, [r2, #0]
 10003bc:	4b3d      	ldr	r3, [pc, #244]	; (10004b4 <.LCFI85+0x48e>)
 10003be:	681b      	ldr	r3, [r3, #0]
 10003c0:	3301      	adds	r3, #1
 10003c2:	4a3c      	ldr	r2, [pc, #240]	; (10004b4 <.LCFI85+0x48e>)
 10003c4:	6013      	str	r3, [r2, #0]
 10003c6:	4b3b      	ldr	r3, [pc, #236]	; (10004b4 <.LCFI85+0x48e>)
 10003c8:	681b      	ldr	r3, [r3, #0]
 10003ca:	3301      	adds	r3, #1
 10003cc:	4a39      	ldr	r2, [pc, #228]	; (10004b4 <.LCFI85+0x48e>)
 10003ce:	6013      	str	r3, [r2, #0]
 10003d0:	4b38      	ldr	r3, [pc, #224]	; (10004b4 <.LCFI85+0x48e>)
 10003d2:	681b      	ldr	r3, [r3, #0]
 10003d4:	3301      	adds	r3, #1
 10003d6:	4a37      	ldr	r2, [pc, #220]	; (10004b4 <.LCFI85+0x48e>)
 10003d8:	6013      	str	r3, [r2, #0]
 10003da:	4b36      	ldr	r3, [pc, #216]	; (10004b4 <.LCFI85+0x48e>)
 10003dc:	681b      	ldr	r3, [r3, #0]
 10003de:	3301      	adds	r3, #1
 10003e0:	4a34      	ldr	r2, [pc, #208]	; (10004b4 <.LCFI85+0x48e>)
 10003e2:	6013      	str	r3, [r2, #0]
 10003e4:	4b33      	ldr	r3, [pc, #204]	; (10004b4 <.LCFI85+0x48e>)
 10003e6:	681b      	ldr	r3, [r3, #0]
 10003e8:	3301      	adds	r3, #1
 10003ea:	4a32      	ldr	r2, [pc, #200]	; (10004b4 <.LCFI85+0x48e>)
 10003ec:	6013      	str	r3, [r2, #0]
 10003ee:	4b31      	ldr	r3, [pc, #196]	; (10004b4 <.LCFI85+0x48e>)
 10003f0:	681b      	ldr	r3, [r3, #0]
 10003f2:	3301      	adds	r3, #1
 10003f4:	4a2f      	ldr	r2, [pc, #188]	; (10004b4 <.LCFI85+0x48e>)
 10003f6:	6013      	str	r3, [r2, #0]
 10003f8:	4b2e      	ldr	r3, [pc, #184]	; (10004b4 <.LCFI85+0x48e>)
 10003fa:	681b      	ldr	r3, [r3, #0]
 10003fc:	3301      	adds	r3, #1
 10003fe:	4a2d      	ldr	r2, [pc, #180]	; (10004b4 <.LCFI85+0x48e>)
 1000400:	6013      	str	r3, [r2, #0]
 1000402:	4b2c      	ldr	r3, [pc, #176]	; (10004b4 <.LCFI85+0x48e>)
 1000404:	681b      	ldr	r3, [r3, #0]
 1000406:	3301      	adds	r3, #1
 1000408:	4a2a      	ldr	r2, [pc, #168]	; (10004b4 <.LCFI85+0x48e>)
 100040a:	6013      	str	r3, [r2, #0]
 100040c:	4b29      	ldr	r3, [pc, #164]	; (10004b4 <.LCFI85+0x48e>)
 100040e:	681b      	ldr	r3, [r3, #0]
 1000410:	3301      	adds	r3, #1
 1000412:	4a28      	ldr	r2, [pc, #160]	; (10004b4 <.LCFI85+0x48e>)
 1000414:	6013      	str	r3, [r2, #0]
 1000416:	4b27      	ldr	r3, [pc, #156]	; (10004b4 <.LCFI85+0x48e>)
 1000418:	681b      	ldr	r3, [r3, #0]
 100041a:	3301      	adds	r3, #1
 100041c:	4a25      	ldr	r2, [pc, #148]	; (10004b4 <.LCFI85+0x48e>)
 100041e:	6013      	str	r3, [r2, #0]
 1000420:	4b24      	ldr	r3, [pc, #144]	; (10004b4 <.LCFI85+0x48e>)
 1000422:	681b      	ldr	r3, [r3, #0]
 1000424:	3301      	adds	r3, #1
 1000426:	4a23      	ldr	r2, [pc, #140]	; (10004b4 <.LCFI85+0x48e>)
 1000428:	6013      	str	r3, [r2, #0]
 100042a:	4b22      	ldr	r3, [pc, #136]	; (10004b4 <.LCFI85+0x48e>)
 100042c:	681b      	ldr	r3, [r3, #0]
 100042e:	3301      	adds	r3, #1
 1000430:	4a20      	ldr	r2, [pc, #128]	; (10004b4 <.LCFI85+0x48e>)
 1000432:	6013      	str	r3, [r2, #0]
 1000434:	4b1f      	ldr	r3, [pc, #124]	; (10004b4 <.LCFI85+0x48e>)
 1000436:	681b      	ldr	r3, [r3, #0]
 1000438:	3301      	adds	r3, #1
 100043a:	4a1e      	ldr	r2, [pc, #120]	; (10004b4 <.LCFI85+0x48e>)
 100043c:	6013      	str	r3, [r2, #0]
 100043e:	4b1d      	ldr	r3, [pc, #116]	; (10004b4 <.LCFI85+0x48e>)
 1000440:	681b      	ldr	r3, [r3, #0]
 1000442:	3301      	adds	r3, #1
 1000444:	4a1b      	ldr	r2, [pc, #108]	; (10004b4 <.LCFI85+0x48e>)
 1000446:	6013      	str	r3, [r2, #0]
 1000448:	4b1a      	ldr	r3, [pc, #104]	; (10004b4 <.LCFI85+0x48e>)
 100044a:	681b      	ldr	r3, [r3, #0]
 100044c:	3301      	adds	r3, #1
 100044e:	4a19      	ldr	r2, [pc, #100]	; (10004b4 <.LCFI85+0x48e>)
 1000450:	6013      	str	r3, [r2, #0]
 1000452:	4b18      	ldr	r3, [pc, #96]	; (10004b4 <.LCFI85+0x48e>)
 1000454:	681b      	ldr	r3, [r3, #0]
 1000456:	3301      	adds	r3, #1
 1000458:	4a16      	ldr	r2, [pc, #88]	; (10004b4 <.LCFI85+0x48e>)
 100045a:	6013      	str	r3, [r2, #0]
 100045c:	4b15      	ldr	r3, [pc, #84]	; (10004b4 <.LCFI85+0x48e>)
 100045e:	681b      	ldr	r3, [r3, #0]
 1000460:	3301      	adds	r3, #1
 1000462:	4a14      	ldr	r2, [pc, #80]	; (10004b4 <.LCFI85+0x48e>)
 1000464:	6013      	str	r3, [r2, #0]
 1000466:	4b13      	ldr	r3, [pc, #76]	; (10004b4 <.LCFI85+0x48e>)
 1000468:	681b      	ldr	r3, [r3, #0]
 100046a:	3301      	adds	r3, #1
 100046c:	4a11      	ldr	r2, [pc, #68]	; (10004b4 <.LCFI85+0x48e>)
 100046e:	6013      	str	r3, [r2, #0]
 1000470:	4b10      	ldr	r3, [pc, #64]	; (10004b4 <.LCFI85+0x48e>)
 1000472:	681b      	ldr	r3, [r3, #0]
 1000474:	3301      	adds	r3, #1
 1000476:	4a0f      	ldr	r2, [pc, #60]	; (10004b4 <.LCFI85+0x48e>)
 1000478:	6013      	str	r3, [r2, #0]
 100047a:	4b0e      	ldr	r3, [pc, #56]	; (10004b4 <.LCFI85+0x48e>)
 100047c:	681b      	ldr	r3, [r3, #0]
 100047e:	3301      	adds	r3, #1
 1000480:	4a0c      	ldr	r2, [pc, #48]	; (10004b4 <.LCFI85+0x48e>)
 1000482:	6013      	str	r3, [r2, #0]
 1000484:	4b0b      	ldr	r3, [pc, #44]	; (10004b4 <.LCFI85+0x48e>)
 1000486:	681b      	ldr	r3, [r3, #0]
 1000488:	3301      	adds	r3, #1
 100048a:	4a0a      	ldr	r2, [pc, #40]	; (10004b4 <.LCFI85+0x48e>)
 100048c:	6013      	str	r3, [r2, #0]
 100048e:	4b09      	ldr	r3, [pc, #36]	; (10004b4 <.LCFI85+0x48e>)
 1000490:	681b      	ldr	r3, [r3, #0]
 1000492:	3301      	adds	r3, #1
 1000494:	4a07      	ldr	r2, [pc, #28]	; (10004b4 <.LCFI85+0x48e>)
 1000496:	6013      	str	r3, [r2, #0]
 1000498:	4b06      	ldr	r3, [pc, #24]	; (10004b4 <.LCFI85+0x48e>)
 100049a:	681b      	ldr	r3, [r3, #0]
 100049c:	3301      	adds	r3, #1
 100049e:	4a05      	ldr	r2, [pc, #20]	; (10004b4 <.LCFI85+0x48e>)
 10004a0:	6013      	str	r3, [r2, #0]
 10004a2:	4b04      	ldr	r3, [pc, #16]	; (10004b4 <.LCFI85+0x48e>)
 10004a4:	681b      	ldr	r3, [r3, #0]
 10004a6:	3301      	adds	r3, #1
 10004a8:	4a02      	ldr	r2, [pc, #8]	; (10004b4 <.LCFI85+0x48e>)
 10004aa:	6013      	str	r3, [r2, #0]
 10004ac:	4b01      	ldr	r3, [pc, #4]	; (10004b4 <.LCFI85+0x48e>)
 10004ae:	681b      	ldr	r3, [r3, #0]
 10004b0:	e002      	b.n	10004b8 <.LCFI85+0x492>
 10004b2:	bf00      	nop
 10004b4:	2000b5d4 	.word	0x2000b5d4
 10004b8:	3301      	adds	r3, #1
 10004ba:	4a91      	ldr	r2, [pc, #580]	; (1000700 <.LCFI85+0x6da>)
 10004bc:	6013      	str	r3, [r2, #0]
 10004be:	4b90      	ldr	r3, [pc, #576]	; (1000700 <.LCFI85+0x6da>)
 10004c0:	681b      	ldr	r3, [r3, #0]
 10004c2:	3301      	adds	r3, #1
 10004c4:	4a8e      	ldr	r2, [pc, #568]	; (1000700 <.LCFI85+0x6da>)
 10004c6:	6013      	str	r3, [r2, #0]
 10004c8:	4b8d      	ldr	r3, [pc, #564]	; (1000700 <.LCFI85+0x6da>)
 10004ca:	681b      	ldr	r3, [r3, #0]
 10004cc:	3301      	adds	r3, #1
 10004ce:	4a8c      	ldr	r2, [pc, #560]	; (1000700 <.LCFI85+0x6da>)
 10004d0:	6013      	str	r3, [r2, #0]
 10004d2:	4b8b      	ldr	r3, [pc, #556]	; (1000700 <.LCFI85+0x6da>)
 10004d4:	681b      	ldr	r3, [r3, #0]
 10004d6:	3301      	adds	r3, #1
 10004d8:	4a89      	ldr	r2, [pc, #548]	; (1000700 <.LCFI85+0x6da>)
 10004da:	6013      	str	r3, [r2, #0]
 10004dc:	4b88      	ldr	r3, [pc, #544]	; (1000700 <.LCFI85+0x6da>)
 10004de:	681b      	ldr	r3, [r3, #0]
 10004e0:	3301      	adds	r3, #1
 10004e2:	4a87      	ldr	r2, [pc, #540]	; (1000700 <.LCFI85+0x6da>)
 10004e4:	6013      	str	r3, [r2, #0]
 10004e6:	4b86      	ldr	r3, [pc, #536]	; (1000700 <.LCFI85+0x6da>)
 10004e8:	681b      	ldr	r3, [r3, #0]
 10004ea:	3301      	adds	r3, #1
 10004ec:	4a84      	ldr	r2, [pc, #528]	; (1000700 <.LCFI85+0x6da>)
 10004ee:	6013      	str	r3, [r2, #0]
 10004f0:	4b83      	ldr	r3, [pc, #524]	; (1000700 <.LCFI85+0x6da>)
 10004f2:	681b      	ldr	r3, [r3, #0]
 10004f4:	3301      	adds	r3, #1
 10004f6:	4a82      	ldr	r2, [pc, #520]	; (1000700 <.LCFI85+0x6da>)
 10004f8:	6013      	str	r3, [r2, #0]
 10004fa:	4b81      	ldr	r3, [pc, #516]	; (1000700 <.LCFI85+0x6da>)
 10004fc:	681b      	ldr	r3, [r3, #0]
 10004fe:	3301      	adds	r3, #1
 1000500:	4a7f      	ldr	r2, [pc, #508]	; (1000700 <.LCFI85+0x6da>)
 1000502:	6013      	str	r3, [r2, #0]
 1000504:	4b7e      	ldr	r3, [pc, #504]	; (1000700 <.LCFI85+0x6da>)
 1000506:	681b      	ldr	r3, [r3, #0]
 1000508:	3301      	adds	r3, #1
 100050a:	4a7d      	ldr	r2, [pc, #500]	; (1000700 <.LCFI85+0x6da>)
 100050c:	6013      	str	r3, [r2, #0]
 100050e:	4b7c      	ldr	r3, [pc, #496]	; (1000700 <.LCFI85+0x6da>)
 1000510:	681b      	ldr	r3, [r3, #0]
 1000512:	3301      	adds	r3, #1
 1000514:	4a7a      	ldr	r2, [pc, #488]	; (1000700 <.LCFI85+0x6da>)
 1000516:	6013      	str	r3, [r2, #0]
 1000518:	4b79      	ldr	r3, [pc, #484]	; (1000700 <.LCFI85+0x6da>)
 100051a:	681b      	ldr	r3, [r3, #0]
 100051c:	3301      	adds	r3, #1
 100051e:	4a78      	ldr	r2, [pc, #480]	; (1000700 <.LCFI85+0x6da>)
 1000520:	6013      	str	r3, [r2, #0]
 1000522:	4b77      	ldr	r3, [pc, #476]	; (1000700 <.LCFI85+0x6da>)
 1000524:	681b      	ldr	r3, [r3, #0]
 1000526:	3301      	adds	r3, #1
 1000528:	4a75      	ldr	r2, [pc, #468]	; (1000700 <.LCFI85+0x6da>)
 100052a:	6013      	str	r3, [r2, #0]
 100052c:	4b74      	ldr	r3, [pc, #464]	; (1000700 <.LCFI85+0x6da>)
 100052e:	681b      	ldr	r3, [r3, #0]
 1000530:	3301      	adds	r3, #1
 1000532:	4a73      	ldr	r2, [pc, #460]	; (1000700 <.LCFI85+0x6da>)
 1000534:	6013      	str	r3, [r2, #0]
 1000536:	4b72      	ldr	r3, [pc, #456]	; (1000700 <.LCFI85+0x6da>)
 1000538:	681b      	ldr	r3, [r3, #0]
 100053a:	3301      	adds	r3, #1
 100053c:	4a70      	ldr	r2, [pc, #448]	; (1000700 <.LCFI85+0x6da>)
 100053e:	6013      	str	r3, [r2, #0]
 1000540:	4b6f      	ldr	r3, [pc, #444]	; (1000700 <.LCFI85+0x6da>)
 1000542:	681b      	ldr	r3, [r3, #0]
 1000544:	3301      	adds	r3, #1
 1000546:	4a6e      	ldr	r2, [pc, #440]	; (1000700 <.LCFI85+0x6da>)
 1000548:	6013      	str	r3, [r2, #0]
 100054a:	4b6d      	ldr	r3, [pc, #436]	; (1000700 <.LCFI85+0x6da>)
 100054c:	681b      	ldr	r3, [r3, #0]
 100054e:	3301      	adds	r3, #1
 1000550:	4a6b      	ldr	r2, [pc, #428]	; (1000700 <.LCFI85+0x6da>)
 1000552:	6013      	str	r3, [r2, #0]
 1000554:	4b6a      	ldr	r3, [pc, #424]	; (1000700 <.LCFI85+0x6da>)
 1000556:	681b      	ldr	r3, [r3, #0]
 1000558:	3301      	adds	r3, #1
 100055a:	4a69      	ldr	r2, [pc, #420]	; (1000700 <.LCFI85+0x6da>)
 100055c:	6013      	str	r3, [r2, #0]
 100055e:	4b68      	ldr	r3, [pc, #416]	; (1000700 <.LCFI85+0x6da>)
 1000560:	681b      	ldr	r3, [r3, #0]
 1000562:	3301      	adds	r3, #1
 1000564:	4a66      	ldr	r2, [pc, #408]	; (1000700 <.LCFI85+0x6da>)
 1000566:	6013      	str	r3, [r2, #0]
 1000568:	4b65      	ldr	r3, [pc, #404]	; (1000700 <.LCFI85+0x6da>)
 100056a:	681b      	ldr	r3, [r3, #0]
 100056c:	3301      	adds	r3, #1
 100056e:	4a64      	ldr	r2, [pc, #400]	; (1000700 <.LCFI85+0x6da>)
 1000570:	6013      	str	r3, [r2, #0]
 1000572:	4b63      	ldr	r3, [pc, #396]	; (1000700 <.LCFI85+0x6da>)
 1000574:	681b      	ldr	r3, [r3, #0]
 1000576:	3301      	adds	r3, #1
 1000578:	4a61      	ldr	r2, [pc, #388]	; (1000700 <.LCFI85+0x6da>)
 100057a:	6013      	str	r3, [r2, #0]
 100057c:	4b61      	ldr	r3, [pc, #388]	; (1000704 <.LCFI85+0x6de>)
 100057e:	f503 53b1 	add.w	r3, r3, #5664	; 0x1620
 1000582:	3308      	adds	r3, #8
 1000584:	881a      	ldrh	r2, [r3, #0]
 1000586:	f36f 0200 	bfc	r2, #0, #1
 100058a:	801a      	strh	r2, [r3, #0]
 100058c:	4b5d      	ldr	r3, [pc, #372]	; (1000704 <.LCFI85+0x6de>)
 100058e:	f503 53b1 	add.w	r3, r3, #5664	; 0x1620
 1000592:	3308      	adds	r3, #8
 1000594:	881a      	ldrh	r2, [r3, #0]
 1000596:	f36f 0241 	bfc	r2, #1, #1
 100059a:	801a      	strh	r2, [r3, #0]
 100059c:	4b59      	ldr	r3, [pc, #356]	; (1000704 <.LCFI85+0x6de>)
 100059e:	f503 53b1 	add.w	r3, r3, #5664	; 0x1620
 10005a2:	3308      	adds	r3, #8
 10005a4:	881a      	ldrh	r2, [r3, #0]
 10005a6:	f36f 1204 	bfc	r2, #4, #1
 10005aa:	801a      	strh	r2, [r3, #0]
 10005ac:	4b55      	ldr	r3, [pc, #340]	; (1000704 <.LCFI85+0x6de>)
 10005ae:	f503 53b1 	add.w	r3, r3, #5664	; 0x1620
 10005b2:	3308      	adds	r3, #8
 10005b4:	881a      	ldrh	r2, [r3, #0]
 10005b6:	f36f 1245 	bfc	r2, #5, #1
 10005ba:	801a      	strh	r2, [r3, #0]
 10005bc:	4b51      	ldr	r3, [pc, #324]	; (1000704 <.LCFI85+0x6de>)
 10005be:	f503 53b1 	add.w	r3, r3, #5664	; 0x1620
 10005c2:	3308      	adds	r3, #8
 10005c4:	881a      	ldrh	r2, [r3, #0]
 10005c6:	f36f 1286 	bfc	r2, #6, #1
 10005ca:	801a      	strh	r2, [r3, #0]
 10005cc:	4b4c      	ldr	r3, [pc, #304]	; (1000700 <.LCFI85+0x6da>)
 10005ce:	681b      	ldr	r3, [r3, #0]
 10005d0:	3301      	adds	r3, #1
 10005d2:	4a4b      	ldr	r2, [pc, #300]	; (1000700 <.LCFI85+0x6da>)
 10005d4:	6013      	str	r3, [r2, #0]
 10005d6:	4b4a      	ldr	r3, [pc, #296]	; (1000700 <.LCFI85+0x6da>)
 10005d8:	681b      	ldr	r3, [r3, #0]
 10005da:	3301      	adds	r3, #1
 10005dc:	4a48      	ldr	r2, [pc, #288]	; (1000700 <.LCFI85+0x6da>)
 10005de:	6013      	str	r3, [r2, #0]
 10005e0:	4b47      	ldr	r3, [pc, #284]	; (1000700 <.LCFI85+0x6da>)
 10005e2:	681b      	ldr	r3, [r3, #0]
 10005e4:	3301      	adds	r3, #1
 10005e6:	4a46      	ldr	r2, [pc, #280]	; (1000700 <.LCFI85+0x6da>)
 10005e8:	6013      	str	r3, [r2, #0]
 10005ea:	4b45      	ldr	r3, [pc, #276]	; (1000700 <.LCFI85+0x6da>)
 10005ec:	681b      	ldr	r3, [r3, #0]
 10005ee:	3301      	adds	r3, #1
 10005f0:	4a43      	ldr	r2, [pc, #268]	; (1000700 <.LCFI85+0x6da>)
 10005f2:	6013      	str	r3, [r2, #0]
 10005f4:	4b42      	ldr	r3, [pc, #264]	; (1000700 <.LCFI85+0x6da>)
 10005f6:	681b      	ldr	r3, [r3, #0]
 10005f8:	3301      	adds	r3, #1
 10005fa:	4a41      	ldr	r2, [pc, #260]	; (1000700 <.LCFI85+0x6da>)
 10005fc:	6013      	str	r3, [r2, #0]
 10005fe:	4b40      	ldr	r3, [pc, #256]	; (1000700 <.LCFI85+0x6da>)
 1000600:	681b      	ldr	r3, [r3, #0]
 1000602:	3301      	adds	r3, #1
 1000604:	4a3e      	ldr	r2, [pc, #248]	; (1000700 <.LCFI85+0x6da>)
 1000606:	6013      	str	r3, [r2, #0]
 1000608:	4b3d      	ldr	r3, [pc, #244]	; (1000700 <.LCFI85+0x6da>)
 100060a:	681b      	ldr	r3, [r3, #0]
 100060c:	3301      	adds	r3, #1
 100060e:	4a3c      	ldr	r2, [pc, #240]	; (1000700 <.LCFI85+0x6da>)
 1000610:	6013      	str	r3, [r2, #0]
 1000612:	4b3b      	ldr	r3, [pc, #236]	; (1000700 <.LCFI85+0x6da>)
 1000614:	681b      	ldr	r3, [r3, #0]
 1000616:	3301      	adds	r3, #1
 1000618:	4a39      	ldr	r2, [pc, #228]	; (1000700 <.LCFI85+0x6da>)
 100061a:	6013      	str	r3, [r2, #0]
 100061c:	4b38      	ldr	r3, [pc, #224]	; (1000700 <.LCFI85+0x6da>)
 100061e:	681b      	ldr	r3, [r3, #0]
 1000620:	3301      	adds	r3, #1
 1000622:	4a37      	ldr	r2, [pc, #220]	; (1000700 <.LCFI85+0x6da>)
 1000624:	6013      	str	r3, [r2, #0]
 1000626:	4b36      	ldr	r3, [pc, #216]	; (1000700 <.LCFI85+0x6da>)
 1000628:	681b      	ldr	r3, [r3, #0]
 100062a:	3301      	adds	r3, #1
 100062c:	4a34      	ldr	r2, [pc, #208]	; (1000700 <.LCFI85+0x6da>)
 100062e:	6013      	str	r3, [r2, #0]
 1000630:	4b33      	ldr	r3, [pc, #204]	; (1000700 <.LCFI85+0x6da>)
 1000632:	681b      	ldr	r3, [r3, #0]
 1000634:	3301      	adds	r3, #1
 1000636:	4a32      	ldr	r2, [pc, #200]	; (1000700 <.LCFI85+0x6da>)
 1000638:	6013      	str	r3, [r2, #0]
 100063a:	4b31      	ldr	r3, [pc, #196]	; (1000700 <.LCFI85+0x6da>)
 100063c:	681b      	ldr	r3, [r3, #0]
 100063e:	3301      	adds	r3, #1
 1000640:	4a2f      	ldr	r2, [pc, #188]	; (1000700 <.LCFI85+0x6da>)
 1000642:	6013      	str	r3, [r2, #0]
 1000644:	4b2e      	ldr	r3, [pc, #184]	; (1000700 <.LCFI85+0x6da>)
 1000646:	681b      	ldr	r3, [r3, #0]
 1000648:	3301      	adds	r3, #1
 100064a:	4a2d      	ldr	r2, [pc, #180]	; (1000700 <.LCFI85+0x6da>)
 100064c:	6013      	str	r3, [r2, #0]
 100064e:	4b2c      	ldr	r3, [pc, #176]	; (1000700 <.LCFI85+0x6da>)
 1000650:	681b      	ldr	r3, [r3, #0]
 1000652:	3301      	adds	r3, #1
 1000654:	4a2a      	ldr	r2, [pc, #168]	; (1000700 <.LCFI85+0x6da>)
 1000656:	6013      	str	r3, [r2, #0]
 1000658:	4b29      	ldr	r3, [pc, #164]	; (1000700 <.LCFI85+0x6da>)
 100065a:	681b      	ldr	r3, [r3, #0]
 100065c:	3301      	adds	r3, #1
 100065e:	4a28      	ldr	r2, [pc, #160]	; (1000700 <.LCFI85+0x6da>)
 1000660:	6013      	str	r3, [r2, #0]
 1000662:	4b27      	ldr	r3, [pc, #156]	; (1000700 <.LCFI85+0x6da>)
 1000664:	681b      	ldr	r3, [r3, #0]
 1000666:	3301      	adds	r3, #1
 1000668:	4a25      	ldr	r2, [pc, #148]	; (1000700 <.LCFI85+0x6da>)
 100066a:	6013      	str	r3, [r2, #0]
 100066c:	4b24      	ldr	r3, [pc, #144]	; (1000700 <.LCFI85+0x6da>)
 100066e:	681b      	ldr	r3, [r3, #0]
 1000670:	3301      	adds	r3, #1
 1000672:	4a23      	ldr	r2, [pc, #140]	; (1000700 <.LCFI85+0x6da>)
 1000674:	6013      	str	r3, [r2, #0]
 1000676:	4b22      	ldr	r3, [pc, #136]	; (1000700 <.LCFI85+0x6da>)
 1000678:	681b      	ldr	r3, [r3, #0]
 100067a:	3301      	adds	r3, #1
 100067c:	4a20      	ldr	r2, [pc, #128]	; (1000700 <.LCFI85+0x6da>)
 100067e:	6013      	str	r3, [r2, #0]
 1000680:	4b1f      	ldr	r3, [pc, #124]	; (1000700 <.LCFI85+0x6da>)
 1000682:	681b      	ldr	r3, [r3, #0]
 1000684:	3301      	adds	r3, #1
 1000686:	4a1e      	ldr	r2, [pc, #120]	; (1000700 <.LCFI85+0x6da>)
 1000688:	6013      	str	r3, [r2, #0]
 100068a:	4b1d      	ldr	r3, [pc, #116]	; (1000700 <.LCFI85+0x6da>)
 100068c:	681b      	ldr	r3, [r3, #0]
 100068e:	3301      	adds	r3, #1
 1000690:	4a1b      	ldr	r2, [pc, #108]	; (1000700 <.LCFI85+0x6da>)
 1000692:	6013      	str	r3, [r2, #0]
 1000694:	4b1a      	ldr	r3, [pc, #104]	; (1000700 <.LCFI85+0x6da>)
 1000696:	681b      	ldr	r3, [r3, #0]
 1000698:	3301      	adds	r3, #1
 100069a:	4a19      	ldr	r2, [pc, #100]	; (1000700 <.LCFI85+0x6da>)
 100069c:	6013      	str	r3, [r2, #0]
 100069e:	4b18      	ldr	r3, [pc, #96]	; (1000700 <.LCFI85+0x6da>)
 10006a0:	681b      	ldr	r3, [r3, #0]
 10006a2:	3301      	adds	r3, #1
 10006a4:	4a16      	ldr	r2, [pc, #88]	; (1000700 <.LCFI85+0x6da>)
 10006a6:	6013      	str	r3, [r2, #0]
 10006a8:	4b15      	ldr	r3, [pc, #84]	; (1000700 <.LCFI85+0x6da>)
 10006aa:	681b      	ldr	r3, [r3, #0]
 10006ac:	3301      	adds	r3, #1
 10006ae:	4a14      	ldr	r2, [pc, #80]	; (1000700 <.LCFI85+0x6da>)
 10006b0:	6013      	str	r3, [r2, #0]
 10006b2:	4b13      	ldr	r3, [pc, #76]	; (1000700 <.LCFI85+0x6da>)
 10006b4:	681b      	ldr	r3, [r3, #0]
 10006b6:	3301      	adds	r3, #1
 10006b8:	4a11      	ldr	r2, [pc, #68]	; (1000700 <.LCFI85+0x6da>)
 10006ba:	6013      	str	r3, [r2, #0]
 10006bc:	4b10      	ldr	r3, [pc, #64]	; (1000700 <.LCFI85+0x6da>)
 10006be:	681b      	ldr	r3, [r3, #0]
 10006c0:	3301      	adds	r3, #1
 10006c2:	4a0f      	ldr	r2, [pc, #60]	; (1000700 <.LCFI85+0x6da>)
 10006c4:	6013      	str	r3, [r2, #0]
 10006c6:	4b0e      	ldr	r3, [pc, #56]	; (1000700 <.LCFI85+0x6da>)
 10006c8:	681b      	ldr	r3, [r3, #0]
 10006ca:	3301      	adds	r3, #1
 10006cc:	4a0c      	ldr	r2, [pc, #48]	; (1000700 <.LCFI85+0x6da>)
 10006ce:	6013      	str	r3, [r2, #0]
 10006d0:	4b0b      	ldr	r3, [pc, #44]	; (1000700 <.LCFI85+0x6da>)
 10006d2:	681b      	ldr	r3, [r3, #0]
 10006d4:	3301      	adds	r3, #1
 10006d6:	4a0a      	ldr	r2, [pc, #40]	; (1000700 <.LCFI85+0x6da>)
 10006d8:	6013      	str	r3, [r2, #0]
 10006da:	4b09      	ldr	r3, [pc, #36]	; (1000700 <.LCFI85+0x6da>)
 10006dc:	681b      	ldr	r3, [r3, #0]
 10006de:	3301      	adds	r3, #1
 10006e0:	4a07      	ldr	r2, [pc, #28]	; (1000700 <.LCFI85+0x6da>)
 10006e2:	6013      	str	r3, [r2, #0]
 10006e4:	4b06      	ldr	r3, [pc, #24]	; (1000700 <.LCFI85+0x6da>)
 10006e6:	681b      	ldr	r3, [r3, #0]
 10006e8:	3301      	adds	r3, #1
 10006ea:	4a05      	ldr	r2, [pc, #20]	; (1000700 <.LCFI85+0x6da>)
 10006ec:	6013      	str	r3, [r2, #0]
 10006ee:	4b04      	ldr	r3, [pc, #16]	; (1000700 <.LCFI85+0x6da>)
 10006f0:	681b      	ldr	r3, [r3, #0]
 10006f2:	3301      	adds	r3, #1
 10006f4:	4a02      	ldr	r2, [pc, #8]	; (1000700 <.LCFI85+0x6da>)
 10006f6:	6013      	str	r3, [r2, #0]
 10006f8:	4b01      	ldr	r3, [pc, #4]	; (1000700 <.LCFI85+0x6da>)
 10006fa:	681b      	ldr	r3, [r3, #0]
 10006fc:	3301      	adds	r3, #1
 10006fe:	e003      	b.n	1000708 <.LCFI85+0x6e2>
 1000700:	2000b5d4 	.word	0x2000b5d4
 1000704:	41012400 	.word	0x41012400
 1000708:	4a8d      	ldr	r2, [pc, #564]	; (1000940 <.LCFI85+0x91a>)
 100070a:	6013      	str	r3, [r2, #0]
 100070c:	4b8c      	ldr	r3, [pc, #560]	; (1000940 <.LCFI85+0x91a>)
 100070e:	681b      	ldr	r3, [r3, #0]
 1000710:	3301      	adds	r3, #1
 1000712:	4a8b      	ldr	r2, [pc, #556]	; (1000940 <.LCFI85+0x91a>)
 1000714:	6013      	str	r3, [r2, #0]
 1000716:	4b8a      	ldr	r3, [pc, #552]	; (1000940 <.LCFI85+0x91a>)
 1000718:	681b      	ldr	r3, [r3, #0]
 100071a:	3301      	adds	r3, #1
 100071c:	4a88      	ldr	r2, [pc, #544]	; (1000940 <.LCFI85+0x91a>)
 100071e:	6013      	str	r3, [r2, #0]
 1000720:	4b87      	ldr	r3, [pc, #540]	; (1000940 <.LCFI85+0x91a>)
 1000722:	681b      	ldr	r3, [r3, #0]
 1000724:	3301      	adds	r3, #1
 1000726:	4a86      	ldr	r2, [pc, #536]	; (1000940 <.LCFI85+0x91a>)
 1000728:	6013      	str	r3, [r2, #0]
 100072a:	4b85      	ldr	r3, [pc, #532]	; (1000940 <.LCFI85+0x91a>)
 100072c:	681b      	ldr	r3, [r3, #0]
 100072e:	3301      	adds	r3, #1
 1000730:	4a83      	ldr	r2, [pc, #524]	; (1000940 <.LCFI85+0x91a>)
 1000732:	6013      	str	r3, [r2, #0]
 1000734:	4b82      	ldr	r3, [pc, #520]	; (1000940 <.LCFI85+0x91a>)
 1000736:	681b      	ldr	r3, [r3, #0]
 1000738:	3301      	adds	r3, #1
 100073a:	4a81      	ldr	r2, [pc, #516]	; (1000940 <.LCFI85+0x91a>)
 100073c:	6013      	str	r3, [r2, #0]
 100073e:	4b80      	ldr	r3, [pc, #512]	; (1000940 <.LCFI85+0x91a>)
 1000740:	681b      	ldr	r3, [r3, #0]
 1000742:	3301      	adds	r3, #1
 1000744:	4a7e      	ldr	r2, [pc, #504]	; (1000940 <.LCFI85+0x91a>)
 1000746:	6013      	str	r3, [r2, #0]
 1000748:	4b7d      	ldr	r3, [pc, #500]	; (1000940 <.LCFI85+0x91a>)
 100074a:	681b      	ldr	r3, [r3, #0]
 100074c:	3301      	adds	r3, #1
 100074e:	4a7c      	ldr	r2, [pc, #496]	; (1000940 <.LCFI85+0x91a>)
 1000750:	6013      	str	r3, [r2, #0]
 1000752:	4b7b      	ldr	r3, [pc, #492]	; (1000940 <.LCFI85+0x91a>)
 1000754:	681b      	ldr	r3, [r3, #0]
 1000756:	3301      	adds	r3, #1
 1000758:	4a79      	ldr	r2, [pc, #484]	; (1000940 <.LCFI85+0x91a>)
 100075a:	6013      	str	r3, [r2, #0]
 100075c:	4b78      	ldr	r3, [pc, #480]	; (1000940 <.LCFI85+0x91a>)
 100075e:	681b      	ldr	r3, [r3, #0]
 1000760:	3301      	adds	r3, #1
 1000762:	4a77      	ldr	r2, [pc, #476]	; (1000940 <.LCFI85+0x91a>)
 1000764:	6013      	str	r3, [r2, #0]
 1000766:	4b76      	ldr	r3, [pc, #472]	; (1000940 <.LCFI85+0x91a>)
 1000768:	681b      	ldr	r3, [r3, #0]
 100076a:	3301      	adds	r3, #1
 100076c:	4a74      	ldr	r2, [pc, #464]	; (1000940 <.LCFI85+0x91a>)
 100076e:	6013      	str	r3, [r2, #0]
 1000770:	4b73      	ldr	r3, [pc, #460]	; (1000940 <.LCFI85+0x91a>)
 1000772:	681b      	ldr	r3, [r3, #0]
 1000774:	3301      	adds	r3, #1
 1000776:	4a72      	ldr	r2, [pc, #456]	; (1000940 <.LCFI85+0x91a>)
 1000778:	6013      	str	r3, [r2, #0]
 100077a:	4b71      	ldr	r3, [pc, #452]	; (1000940 <.LCFI85+0x91a>)
 100077c:	681b      	ldr	r3, [r3, #0]
 100077e:	3301      	adds	r3, #1
 1000780:	4a6f      	ldr	r2, [pc, #444]	; (1000940 <.LCFI85+0x91a>)
 1000782:	6013      	str	r3, [r2, #0]
 1000784:	4b6e      	ldr	r3, [pc, #440]	; (1000940 <.LCFI85+0x91a>)
 1000786:	681b      	ldr	r3, [r3, #0]
 1000788:	3301      	adds	r3, #1
 100078a:	4a6d      	ldr	r2, [pc, #436]	; (1000940 <.LCFI85+0x91a>)
 100078c:	6013      	str	r3, [r2, #0]
 100078e:	4b6c      	ldr	r3, [pc, #432]	; (1000940 <.LCFI85+0x91a>)
 1000790:	681b      	ldr	r3, [r3, #0]
 1000792:	3301      	adds	r3, #1
 1000794:	4a6a      	ldr	r2, [pc, #424]	; (1000940 <.LCFI85+0x91a>)
 1000796:	6013      	str	r3, [r2, #0]
 1000798:	4b69      	ldr	r3, [pc, #420]	; (1000940 <.LCFI85+0x91a>)
 100079a:	681b      	ldr	r3, [r3, #0]
 100079c:	3301      	adds	r3, #1
 100079e:	4a68      	ldr	r2, [pc, #416]	; (1000940 <.LCFI85+0x91a>)
 10007a0:	6013      	str	r3, [r2, #0]
 10007a2:	4b67      	ldr	r3, [pc, #412]	; (1000940 <.LCFI85+0x91a>)
 10007a4:	681b      	ldr	r3, [r3, #0]
 10007a6:	3301      	adds	r3, #1
 10007a8:	4a65      	ldr	r2, [pc, #404]	; (1000940 <.LCFI85+0x91a>)
 10007aa:	6013      	str	r3, [r2, #0]
 10007ac:	4b64      	ldr	r3, [pc, #400]	; (1000940 <.LCFI85+0x91a>)
 10007ae:	681b      	ldr	r3, [r3, #0]
 10007b0:	3301      	adds	r3, #1
 10007b2:	4a63      	ldr	r2, [pc, #396]	; (1000940 <.LCFI85+0x91a>)
 10007b4:	6013      	str	r3, [r2, #0]
 10007b6:	4b62      	ldr	r3, [pc, #392]	; (1000940 <.LCFI85+0x91a>)
 10007b8:	681b      	ldr	r3, [r3, #0]
 10007ba:	3301      	adds	r3, #1
 10007bc:	4a60      	ldr	r2, [pc, #384]	; (1000940 <.LCFI85+0x91a>)
 10007be:	6013      	str	r3, [r2, #0]
 10007c0:	4b5f      	ldr	r3, [pc, #380]	; (1000940 <.LCFI85+0x91a>)
 10007c2:	681b      	ldr	r3, [r3, #0]
 10007c4:	3301      	adds	r3, #1
 10007c6:	4a5e      	ldr	r2, [pc, #376]	; (1000940 <.LCFI85+0x91a>)
 10007c8:	6013      	str	r3, [r2, #0]
 10007ca:	4b5d      	ldr	r3, [pc, #372]	; (1000940 <.LCFI85+0x91a>)
 10007cc:	681b      	ldr	r3, [r3, #0]
 10007ce:	3301      	adds	r3, #1
 10007d0:	4a5b      	ldr	r2, [pc, #364]	; (1000940 <.LCFI85+0x91a>)
 10007d2:	6013      	str	r3, [r2, #0]
 10007d4:	4b5a      	ldr	r3, [pc, #360]	; (1000940 <.LCFI85+0x91a>)
 10007d6:	681b      	ldr	r3, [r3, #0]
 10007d8:	3301      	adds	r3, #1
 10007da:	4a59      	ldr	r2, [pc, #356]	; (1000940 <.LCFI85+0x91a>)
 10007dc:	6013      	str	r3, [r2, #0]
 10007de:	4b58      	ldr	r3, [pc, #352]	; (1000940 <.LCFI85+0x91a>)
 10007e0:	681b      	ldr	r3, [r3, #0]
 10007e2:	3301      	adds	r3, #1
 10007e4:	4a56      	ldr	r2, [pc, #344]	; (1000940 <.LCFI85+0x91a>)
 10007e6:	6013      	str	r3, [r2, #0]
 10007e8:	4b55      	ldr	r3, [pc, #340]	; (1000940 <.LCFI85+0x91a>)
 10007ea:	681b      	ldr	r3, [r3, #0]
 10007ec:	3301      	adds	r3, #1
 10007ee:	4a54      	ldr	r2, [pc, #336]	; (1000940 <.LCFI85+0x91a>)
 10007f0:	6013      	str	r3, [r2, #0]
 10007f2:	4b53      	ldr	r3, [pc, #332]	; (1000940 <.LCFI85+0x91a>)
 10007f4:	681b      	ldr	r3, [r3, #0]
 10007f6:	3301      	adds	r3, #1
 10007f8:	4a51      	ldr	r2, [pc, #324]	; (1000940 <.LCFI85+0x91a>)
 10007fa:	6013      	str	r3, [r2, #0]
 10007fc:	4b50      	ldr	r3, [pc, #320]	; (1000940 <.LCFI85+0x91a>)
 10007fe:	681b      	ldr	r3, [r3, #0]
 1000800:	3301      	adds	r3, #1
 1000802:	4a4f      	ldr	r2, [pc, #316]	; (1000940 <.LCFI85+0x91a>)
 1000804:	6013      	str	r3, [r2, #0]
 1000806:	4b4e      	ldr	r3, [pc, #312]	; (1000940 <.LCFI85+0x91a>)
 1000808:	681b      	ldr	r3, [r3, #0]
 100080a:	3301      	adds	r3, #1
 100080c:	4a4c      	ldr	r2, [pc, #304]	; (1000940 <.LCFI85+0x91a>)
 100080e:	6013      	str	r3, [r2, #0]
 1000810:	4b4b      	ldr	r3, [pc, #300]	; (1000940 <.LCFI85+0x91a>)
 1000812:	681b      	ldr	r3, [r3, #0]
 1000814:	3301      	adds	r3, #1
 1000816:	4a4a      	ldr	r2, [pc, #296]	; (1000940 <.LCFI85+0x91a>)
 1000818:	6013      	str	r3, [r2, #0]
 100081a:	4b49      	ldr	r3, [pc, #292]	; (1000940 <.LCFI85+0x91a>)
 100081c:	681b      	ldr	r3, [r3, #0]
 100081e:	3301      	adds	r3, #1
 1000820:	4a47      	ldr	r2, [pc, #284]	; (1000940 <.LCFI85+0x91a>)
 1000822:	6013      	str	r3, [r2, #0]
 1000824:	4b46      	ldr	r3, [pc, #280]	; (1000940 <.LCFI85+0x91a>)
 1000826:	681b      	ldr	r3, [r3, #0]
 1000828:	3301      	adds	r3, #1
 100082a:	4a45      	ldr	r2, [pc, #276]	; (1000940 <.LCFI85+0x91a>)
 100082c:	6013      	str	r3, [r2, #0]
 100082e:	4b44      	ldr	r3, [pc, #272]	; (1000940 <.LCFI85+0x91a>)
 1000830:	681b      	ldr	r3, [r3, #0]
 1000832:	3301      	adds	r3, #1
 1000834:	4a42      	ldr	r2, [pc, #264]	; (1000940 <.LCFI85+0x91a>)
 1000836:	6013      	str	r3, [r2, #0]
 1000838:	4b41      	ldr	r3, [pc, #260]	; (1000940 <.LCFI85+0x91a>)
 100083a:	681b      	ldr	r3, [r3, #0]
 100083c:	3301      	adds	r3, #1
 100083e:	4a40      	ldr	r2, [pc, #256]	; (1000940 <.LCFI85+0x91a>)
 1000840:	6013      	str	r3, [r2, #0]
 1000842:	4b3f      	ldr	r3, [pc, #252]	; (1000940 <.LCFI85+0x91a>)
 1000844:	681b      	ldr	r3, [r3, #0]
 1000846:	3301      	adds	r3, #1
 1000848:	4a3d      	ldr	r2, [pc, #244]	; (1000940 <.LCFI85+0x91a>)
 100084a:	6013      	str	r3, [r2, #0]
 100084c:	4b3c      	ldr	r3, [pc, #240]	; (1000940 <.LCFI85+0x91a>)
 100084e:	681b      	ldr	r3, [r3, #0]
 1000850:	3301      	adds	r3, #1
 1000852:	4a3b      	ldr	r2, [pc, #236]	; (1000940 <.LCFI85+0x91a>)
 1000854:	6013      	str	r3, [r2, #0]
 1000856:	4b3a      	ldr	r3, [pc, #232]	; (1000940 <.LCFI85+0x91a>)
 1000858:	681b      	ldr	r3, [r3, #0]
 100085a:	3301      	adds	r3, #1
 100085c:	4a38      	ldr	r2, [pc, #224]	; (1000940 <.LCFI85+0x91a>)
 100085e:	6013      	str	r3, [r2, #0]
 1000860:	4b37      	ldr	r3, [pc, #220]	; (1000940 <.LCFI85+0x91a>)
 1000862:	681b      	ldr	r3, [r3, #0]
 1000864:	3301      	adds	r3, #1
 1000866:	4a36      	ldr	r2, [pc, #216]	; (1000940 <.LCFI85+0x91a>)
 1000868:	6013      	str	r3, [r2, #0]
 100086a:	4b35      	ldr	r3, [pc, #212]	; (1000940 <.LCFI85+0x91a>)
 100086c:	681b      	ldr	r3, [r3, #0]
 100086e:	3301      	adds	r3, #1
 1000870:	4a33      	ldr	r2, [pc, #204]	; (1000940 <.LCFI85+0x91a>)
 1000872:	6013      	str	r3, [r2, #0]
 1000874:	4b32      	ldr	r3, [pc, #200]	; (1000940 <.LCFI85+0x91a>)
 1000876:	681b      	ldr	r3, [r3, #0]
 1000878:	3301      	adds	r3, #1
 100087a:	4a31      	ldr	r2, [pc, #196]	; (1000940 <.LCFI85+0x91a>)
 100087c:	6013      	str	r3, [r2, #0]
 100087e:	4b30      	ldr	r3, [pc, #192]	; (1000940 <.LCFI85+0x91a>)
 1000880:	681b      	ldr	r3, [r3, #0]
 1000882:	3301      	adds	r3, #1
 1000884:	4a2e      	ldr	r2, [pc, #184]	; (1000940 <.LCFI85+0x91a>)
 1000886:	6013      	str	r3, [r2, #0]
 1000888:	4b2d      	ldr	r3, [pc, #180]	; (1000940 <.LCFI85+0x91a>)
 100088a:	681b      	ldr	r3, [r3, #0]
 100088c:	3301      	adds	r3, #1
 100088e:	4a2c      	ldr	r2, [pc, #176]	; (1000940 <.LCFI85+0x91a>)
 1000890:	6013      	str	r3, [r2, #0]
 1000892:	4b2b      	ldr	r3, [pc, #172]	; (1000940 <.LCFI85+0x91a>)
 1000894:	681b      	ldr	r3, [r3, #0]
 1000896:	3301      	adds	r3, #1
 1000898:	4a29      	ldr	r2, [pc, #164]	; (1000940 <.LCFI85+0x91a>)
 100089a:	6013      	str	r3, [r2, #0]
 100089c:	4b28      	ldr	r3, [pc, #160]	; (1000940 <.LCFI85+0x91a>)
 100089e:	681b      	ldr	r3, [r3, #0]
 10008a0:	3301      	adds	r3, #1
 10008a2:	4a27      	ldr	r2, [pc, #156]	; (1000940 <.LCFI85+0x91a>)
 10008a4:	6013      	str	r3, [r2, #0]
 10008a6:	4b26      	ldr	r3, [pc, #152]	; (1000940 <.LCFI85+0x91a>)
 10008a8:	681b      	ldr	r3, [r3, #0]
 10008aa:	3301      	adds	r3, #1
 10008ac:	4a24      	ldr	r2, [pc, #144]	; (1000940 <.LCFI85+0x91a>)
 10008ae:	6013      	str	r3, [r2, #0]
 10008b0:	4b23      	ldr	r3, [pc, #140]	; (1000940 <.LCFI85+0x91a>)
 10008b2:	681b      	ldr	r3, [r3, #0]
 10008b4:	3301      	adds	r3, #1
 10008b6:	4a22      	ldr	r2, [pc, #136]	; (1000940 <.LCFI85+0x91a>)
 10008b8:	6013      	str	r3, [r2, #0]
 10008ba:	4b21      	ldr	r3, [pc, #132]	; (1000940 <.LCFI85+0x91a>)
 10008bc:	681b      	ldr	r3, [r3, #0]
 10008be:	3301      	adds	r3, #1
 10008c0:	4a1f      	ldr	r2, [pc, #124]	; (1000940 <.LCFI85+0x91a>)
 10008c2:	6013      	str	r3, [r2, #0]
 10008c4:	4b1e      	ldr	r3, [pc, #120]	; (1000940 <.LCFI85+0x91a>)
 10008c6:	681b      	ldr	r3, [r3, #0]
 10008c8:	3301      	adds	r3, #1
 10008ca:	4a1d      	ldr	r2, [pc, #116]	; (1000940 <.LCFI85+0x91a>)
 10008cc:	6013      	str	r3, [r2, #0]
 10008ce:	4b1c      	ldr	r3, [pc, #112]	; (1000940 <.LCFI85+0x91a>)
 10008d0:	681b      	ldr	r3, [r3, #0]
 10008d2:	3301      	adds	r3, #1
 10008d4:	4a1a      	ldr	r2, [pc, #104]	; (1000940 <.LCFI85+0x91a>)
 10008d6:	6013      	str	r3, [r2, #0]
 10008d8:	4b19      	ldr	r3, [pc, #100]	; (1000940 <.LCFI85+0x91a>)
 10008da:	681b      	ldr	r3, [r3, #0]
 10008dc:	3301      	adds	r3, #1
 10008de:	4a18      	ldr	r2, [pc, #96]	; (1000940 <.LCFI85+0x91a>)
 10008e0:	6013      	str	r3, [r2, #0]
 10008e2:	4b17      	ldr	r3, [pc, #92]	; (1000940 <.LCFI85+0x91a>)
 10008e4:	681b      	ldr	r3, [r3, #0]
 10008e6:	3301      	adds	r3, #1
 10008e8:	4a15      	ldr	r2, [pc, #84]	; (1000940 <.LCFI85+0x91a>)
 10008ea:	6013      	str	r3, [r2, #0]
 10008ec:	4b14      	ldr	r3, [pc, #80]	; (1000940 <.LCFI85+0x91a>)
 10008ee:	681b      	ldr	r3, [r3, #0]
 10008f0:	3301      	adds	r3, #1
 10008f2:	4a13      	ldr	r2, [pc, #76]	; (1000940 <.LCFI85+0x91a>)
 10008f4:	6013      	str	r3, [r2, #0]
 10008f6:	4b12      	ldr	r3, [pc, #72]	; (1000940 <.LCFI85+0x91a>)
 10008f8:	681b      	ldr	r3, [r3, #0]
 10008fa:	3301      	adds	r3, #1
 10008fc:	4a10      	ldr	r2, [pc, #64]	; (1000940 <.LCFI85+0x91a>)
 10008fe:	6013      	str	r3, [r2, #0]
 1000900:	4b0f      	ldr	r3, [pc, #60]	; (1000940 <.LCFI85+0x91a>)
 1000902:	681b      	ldr	r3, [r3, #0]
 1000904:	3301      	adds	r3, #1
 1000906:	4a0e      	ldr	r2, [pc, #56]	; (1000940 <.LCFI85+0x91a>)
 1000908:	6013      	str	r3, [r2, #0]
 100090a:	4b0d      	ldr	r3, [pc, #52]	; (1000940 <.LCFI85+0x91a>)
 100090c:	681b      	ldr	r3, [r3, #0]
 100090e:	3301      	adds	r3, #1
 1000910:	4a0b      	ldr	r2, [pc, #44]	; (1000940 <.LCFI85+0x91a>)
 1000912:	6013      	str	r3, [r2, #0]
 1000914:	4b0a      	ldr	r3, [pc, #40]	; (1000940 <.LCFI85+0x91a>)
 1000916:	681b      	ldr	r3, [r3, #0]
 1000918:	3301      	adds	r3, #1
 100091a:	4a09      	ldr	r2, [pc, #36]	; (1000940 <.LCFI85+0x91a>)
 100091c:	6013      	str	r3, [r2, #0]
 100091e:	4b08      	ldr	r3, [pc, #32]	; (1000940 <.LCFI85+0x91a>)
 1000920:	681b      	ldr	r3, [r3, #0]
 1000922:	3301      	adds	r3, #1
 1000924:	4a06      	ldr	r2, [pc, #24]	; (1000940 <.LCFI85+0x91a>)
 1000926:	6013      	str	r3, [r2, #0]
 1000928:	4b05      	ldr	r3, [pc, #20]	; (1000940 <.LCFI85+0x91a>)
 100092a:	681b      	ldr	r3, [r3, #0]
 100092c:	3301      	adds	r3, #1
 100092e:	4a04      	ldr	r2, [pc, #16]	; (1000940 <.LCFI85+0x91a>)
 1000930:	6013      	str	r3, [r2, #0]
 1000932:	4b03      	ldr	r3, [pc, #12]	; (1000940 <.LCFI85+0x91a>)
 1000934:	681b      	ldr	r3, [r3, #0]
 1000936:	3301      	adds	r3, #1
 1000938:	4a01      	ldr	r2, [pc, #4]	; (1000940 <.LCFI85+0x91a>)
 100093a:	6013      	str	r3, [r2, #0]
 100093c:	e002      	b.n	1000944 <.LCFI85+0x91e>
 100093e:	bf00      	nop
 1000940:	2000b5d4 	.word	0x2000b5d4
 1000944:	4b8c      	ldr	r3, [pc, #560]	; (1000b78 <.LCFI85+0xb52>)
 1000946:	681b      	ldr	r3, [r3, #0]
 1000948:	3301      	adds	r3, #1
 100094a:	4a8b      	ldr	r2, [pc, #556]	; (1000b78 <.LCFI85+0xb52>)
 100094c:	6013      	str	r3, [r2, #0]
 100094e:	4b8a      	ldr	r3, [pc, #552]	; (1000b78 <.LCFI85+0xb52>)
 1000950:	681b      	ldr	r3, [r3, #0]
 1000952:	3301      	adds	r3, #1
 1000954:	4a88      	ldr	r2, [pc, #544]	; (1000b78 <.LCFI85+0xb52>)
 1000956:	6013      	str	r3, [r2, #0]
 1000958:	4b87      	ldr	r3, [pc, #540]	; (1000b78 <.LCFI85+0xb52>)
 100095a:	681b      	ldr	r3, [r3, #0]
 100095c:	3301      	adds	r3, #1
 100095e:	4a86      	ldr	r2, [pc, #536]	; (1000b78 <.LCFI85+0xb52>)
 1000960:	6013      	str	r3, [r2, #0]
 1000962:	4b85      	ldr	r3, [pc, #532]	; (1000b78 <.LCFI85+0xb52>)
 1000964:	681b      	ldr	r3, [r3, #0]
 1000966:	3301      	adds	r3, #1
 1000968:	4a83      	ldr	r2, [pc, #524]	; (1000b78 <.LCFI85+0xb52>)
 100096a:	6013      	str	r3, [r2, #0]
 100096c:	4b82      	ldr	r3, [pc, #520]	; (1000b78 <.LCFI85+0xb52>)
 100096e:	681b      	ldr	r3, [r3, #0]
 1000970:	3301      	adds	r3, #1
 1000972:	4a81      	ldr	r2, [pc, #516]	; (1000b78 <.LCFI85+0xb52>)
 1000974:	6013      	str	r3, [r2, #0]
 1000976:	4b80      	ldr	r3, [pc, #512]	; (1000b78 <.LCFI85+0xb52>)
 1000978:	681b      	ldr	r3, [r3, #0]
 100097a:	3301      	adds	r3, #1
 100097c:	4a7e      	ldr	r2, [pc, #504]	; (1000b78 <.LCFI85+0xb52>)
 100097e:	6013      	str	r3, [r2, #0]
 1000980:	4b7d      	ldr	r3, [pc, #500]	; (1000b78 <.LCFI85+0xb52>)
 1000982:	681b      	ldr	r3, [r3, #0]
 1000984:	3301      	adds	r3, #1
 1000986:	4a7c      	ldr	r2, [pc, #496]	; (1000b78 <.LCFI85+0xb52>)
 1000988:	6013      	str	r3, [r2, #0]
 100098a:	4b7b      	ldr	r3, [pc, #492]	; (1000b78 <.LCFI85+0xb52>)
 100098c:	681b      	ldr	r3, [r3, #0]
 100098e:	3301      	adds	r3, #1
 1000990:	4a79      	ldr	r2, [pc, #484]	; (1000b78 <.LCFI85+0xb52>)
 1000992:	6013      	str	r3, [r2, #0]
 1000994:	4b78      	ldr	r3, [pc, #480]	; (1000b78 <.LCFI85+0xb52>)
 1000996:	681b      	ldr	r3, [r3, #0]
 1000998:	3301      	adds	r3, #1
 100099a:	4a77      	ldr	r2, [pc, #476]	; (1000b78 <.LCFI85+0xb52>)
 100099c:	6013      	str	r3, [r2, #0]
 100099e:	4b76      	ldr	r3, [pc, #472]	; (1000b78 <.LCFI85+0xb52>)
 10009a0:	681b      	ldr	r3, [r3, #0]
 10009a2:	3301      	adds	r3, #1
 10009a4:	4a74      	ldr	r2, [pc, #464]	; (1000b78 <.LCFI85+0xb52>)
 10009a6:	6013      	str	r3, [r2, #0]
 10009a8:	4b73      	ldr	r3, [pc, #460]	; (1000b78 <.LCFI85+0xb52>)
 10009aa:	681b      	ldr	r3, [r3, #0]
 10009ac:	3301      	adds	r3, #1
 10009ae:	4a72      	ldr	r2, [pc, #456]	; (1000b78 <.LCFI85+0xb52>)
 10009b0:	6013      	str	r3, [r2, #0]
 10009b2:	4b71      	ldr	r3, [pc, #452]	; (1000b78 <.LCFI85+0xb52>)
 10009b4:	681b      	ldr	r3, [r3, #0]
 10009b6:	3301      	adds	r3, #1
 10009b8:	4a6f      	ldr	r2, [pc, #444]	; (1000b78 <.LCFI85+0xb52>)
 10009ba:	6013      	str	r3, [r2, #0]
 10009bc:	4b6e      	ldr	r3, [pc, #440]	; (1000b78 <.LCFI85+0xb52>)
 10009be:	681b      	ldr	r3, [r3, #0]
 10009c0:	3301      	adds	r3, #1
 10009c2:	4a6d      	ldr	r2, [pc, #436]	; (1000b78 <.LCFI85+0xb52>)
 10009c4:	6013      	str	r3, [r2, #0]
 10009c6:	4b6c      	ldr	r3, [pc, #432]	; (1000b78 <.LCFI85+0xb52>)
 10009c8:	681b      	ldr	r3, [r3, #0]
 10009ca:	3301      	adds	r3, #1
 10009cc:	4a6a      	ldr	r2, [pc, #424]	; (1000b78 <.LCFI85+0xb52>)
 10009ce:	6013      	str	r3, [r2, #0]
 10009d0:	4b69      	ldr	r3, [pc, #420]	; (1000b78 <.LCFI85+0xb52>)
 10009d2:	681b      	ldr	r3, [r3, #0]
 10009d4:	3301      	adds	r3, #1
 10009d6:	4a68      	ldr	r2, [pc, #416]	; (1000b78 <.LCFI85+0xb52>)
 10009d8:	6013      	str	r3, [r2, #0]
 10009da:	4b67      	ldr	r3, [pc, #412]	; (1000b78 <.LCFI85+0xb52>)
 10009dc:	681b      	ldr	r3, [r3, #0]
 10009de:	3301      	adds	r3, #1
 10009e0:	4a65      	ldr	r2, [pc, #404]	; (1000b78 <.LCFI85+0xb52>)
 10009e2:	6013      	str	r3, [r2, #0]
 10009e4:	4b64      	ldr	r3, [pc, #400]	; (1000b78 <.LCFI85+0xb52>)
 10009e6:	681b      	ldr	r3, [r3, #0]
 10009e8:	3301      	adds	r3, #1
 10009ea:	4a63      	ldr	r2, [pc, #396]	; (1000b78 <.LCFI85+0xb52>)
 10009ec:	6013      	str	r3, [r2, #0]
 10009ee:	4b62      	ldr	r3, [pc, #392]	; (1000b78 <.LCFI85+0xb52>)
 10009f0:	681b      	ldr	r3, [r3, #0]
 10009f2:	3301      	adds	r3, #1
 10009f4:	4a60      	ldr	r2, [pc, #384]	; (1000b78 <.LCFI85+0xb52>)
 10009f6:	6013      	str	r3, [r2, #0]
 10009f8:	4b5f      	ldr	r3, [pc, #380]	; (1000b78 <.LCFI85+0xb52>)
 10009fa:	681b      	ldr	r3, [r3, #0]
 10009fc:	3301      	adds	r3, #1
 10009fe:	4a5e      	ldr	r2, [pc, #376]	; (1000b78 <.LCFI85+0xb52>)
 1000a00:	6013      	str	r3, [r2, #0]
 1000a02:	4b5d      	ldr	r3, [pc, #372]	; (1000b78 <.LCFI85+0xb52>)
 1000a04:	681b      	ldr	r3, [r3, #0]
 1000a06:	3301      	adds	r3, #1
 1000a08:	4a5b      	ldr	r2, [pc, #364]	; (1000b78 <.LCFI85+0xb52>)
 1000a0a:	6013      	str	r3, [r2, #0]
 1000a0c:	4b5a      	ldr	r3, [pc, #360]	; (1000b78 <.LCFI85+0xb52>)
 1000a0e:	681b      	ldr	r3, [r3, #0]
 1000a10:	3301      	adds	r3, #1
 1000a12:	4a59      	ldr	r2, [pc, #356]	; (1000b78 <.LCFI85+0xb52>)
 1000a14:	6013      	str	r3, [r2, #0]
 1000a16:	4b58      	ldr	r3, [pc, #352]	; (1000b78 <.LCFI85+0xb52>)
 1000a18:	681b      	ldr	r3, [r3, #0]
 1000a1a:	3301      	adds	r3, #1
 1000a1c:	4a56      	ldr	r2, [pc, #344]	; (1000b78 <.LCFI85+0xb52>)
 1000a1e:	6013      	str	r3, [r2, #0]
 1000a20:	4b55      	ldr	r3, [pc, #340]	; (1000b78 <.LCFI85+0xb52>)
 1000a22:	681b      	ldr	r3, [r3, #0]
 1000a24:	3301      	adds	r3, #1
 1000a26:	4a54      	ldr	r2, [pc, #336]	; (1000b78 <.LCFI85+0xb52>)
 1000a28:	6013      	str	r3, [r2, #0]
 1000a2a:	4b53      	ldr	r3, [pc, #332]	; (1000b78 <.LCFI85+0xb52>)
 1000a2c:	681b      	ldr	r3, [r3, #0]
 1000a2e:	3301      	adds	r3, #1
 1000a30:	4a51      	ldr	r2, [pc, #324]	; (1000b78 <.LCFI85+0xb52>)
 1000a32:	6013      	str	r3, [r2, #0]
 1000a34:	4b50      	ldr	r3, [pc, #320]	; (1000b78 <.LCFI85+0xb52>)
 1000a36:	681b      	ldr	r3, [r3, #0]
 1000a38:	3301      	adds	r3, #1
 1000a3a:	4a4f      	ldr	r2, [pc, #316]	; (1000b78 <.LCFI85+0xb52>)
 1000a3c:	6013      	str	r3, [r2, #0]
 1000a3e:	4b4e      	ldr	r3, [pc, #312]	; (1000b78 <.LCFI85+0xb52>)
 1000a40:	681b      	ldr	r3, [r3, #0]
 1000a42:	3301      	adds	r3, #1
 1000a44:	4a4c      	ldr	r2, [pc, #304]	; (1000b78 <.LCFI85+0xb52>)
 1000a46:	6013      	str	r3, [r2, #0]
 1000a48:	4b4b      	ldr	r3, [pc, #300]	; (1000b78 <.LCFI85+0xb52>)
 1000a4a:	681b      	ldr	r3, [r3, #0]
 1000a4c:	3301      	adds	r3, #1
 1000a4e:	4a4a      	ldr	r2, [pc, #296]	; (1000b78 <.LCFI85+0xb52>)
 1000a50:	6013      	str	r3, [r2, #0]
 1000a52:	4b49      	ldr	r3, [pc, #292]	; (1000b78 <.LCFI85+0xb52>)
 1000a54:	681b      	ldr	r3, [r3, #0]
 1000a56:	3301      	adds	r3, #1
 1000a58:	4a47      	ldr	r2, [pc, #284]	; (1000b78 <.LCFI85+0xb52>)
 1000a5a:	6013      	str	r3, [r2, #0]
 1000a5c:	4b46      	ldr	r3, [pc, #280]	; (1000b78 <.LCFI85+0xb52>)
 1000a5e:	681b      	ldr	r3, [r3, #0]
 1000a60:	3301      	adds	r3, #1
 1000a62:	4a45      	ldr	r2, [pc, #276]	; (1000b78 <.LCFI85+0xb52>)
 1000a64:	6013      	str	r3, [r2, #0]
 1000a66:	4b44      	ldr	r3, [pc, #272]	; (1000b78 <.LCFI85+0xb52>)
 1000a68:	681b      	ldr	r3, [r3, #0]
 1000a6a:	3301      	adds	r3, #1
 1000a6c:	4a42      	ldr	r2, [pc, #264]	; (1000b78 <.LCFI85+0xb52>)
 1000a6e:	6013      	str	r3, [r2, #0]
 1000a70:	4b41      	ldr	r3, [pc, #260]	; (1000b78 <.LCFI85+0xb52>)
 1000a72:	681b      	ldr	r3, [r3, #0]
 1000a74:	3301      	adds	r3, #1
 1000a76:	4a40      	ldr	r2, [pc, #256]	; (1000b78 <.LCFI85+0xb52>)
 1000a78:	6013      	str	r3, [r2, #0]
 1000a7a:	4b3f      	ldr	r3, [pc, #252]	; (1000b78 <.LCFI85+0xb52>)
 1000a7c:	681b      	ldr	r3, [r3, #0]
 1000a7e:	3301      	adds	r3, #1
 1000a80:	4a3d      	ldr	r2, [pc, #244]	; (1000b78 <.LCFI85+0xb52>)
 1000a82:	6013      	str	r3, [r2, #0]
 1000a84:	4b3c      	ldr	r3, [pc, #240]	; (1000b78 <.LCFI85+0xb52>)
 1000a86:	681b      	ldr	r3, [r3, #0]
 1000a88:	3301      	adds	r3, #1
 1000a8a:	4a3b      	ldr	r2, [pc, #236]	; (1000b78 <.LCFI85+0xb52>)
 1000a8c:	6013      	str	r3, [r2, #0]
 1000a8e:	4b3a      	ldr	r3, [pc, #232]	; (1000b78 <.LCFI85+0xb52>)
 1000a90:	681b      	ldr	r3, [r3, #0]
 1000a92:	3301      	adds	r3, #1
 1000a94:	4a38      	ldr	r2, [pc, #224]	; (1000b78 <.LCFI85+0xb52>)
 1000a96:	6013      	str	r3, [r2, #0]
 1000a98:	4b37      	ldr	r3, [pc, #220]	; (1000b78 <.LCFI85+0xb52>)
 1000a9a:	681b      	ldr	r3, [r3, #0]
 1000a9c:	3301      	adds	r3, #1
 1000a9e:	4a36      	ldr	r2, [pc, #216]	; (1000b78 <.LCFI85+0xb52>)
 1000aa0:	6013      	str	r3, [r2, #0]
 1000aa2:	4b35      	ldr	r3, [pc, #212]	; (1000b78 <.LCFI85+0xb52>)
 1000aa4:	681b      	ldr	r3, [r3, #0]
 1000aa6:	3301      	adds	r3, #1
 1000aa8:	4a33      	ldr	r2, [pc, #204]	; (1000b78 <.LCFI85+0xb52>)
 1000aaa:	6013      	str	r3, [r2, #0]
 1000aac:	4b32      	ldr	r3, [pc, #200]	; (1000b78 <.LCFI85+0xb52>)
 1000aae:	681b      	ldr	r3, [r3, #0]
 1000ab0:	3301      	adds	r3, #1
 1000ab2:	4a31      	ldr	r2, [pc, #196]	; (1000b78 <.LCFI85+0xb52>)
 1000ab4:	6013      	str	r3, [r2, #0]
 1000ab6:	4b30      	ldr	r3, [pc, #192]	; (1000b78 <.LCFI85+0xb52>)
 1000ab8:	681b      	ldr	r3, [r3, #0]
 1000aba:	3301      	adds	r3, #1
 1000abc:	4a2e      	ldr	r2, [pc, #184]	; (1000b78 <.LCFI85+0xb52>)
 1000abe:	6013      	str	r3, [r2, #0]
 1000ac0:	4b2e      	ldr	r3, [pc, #184]	; (1000b7c <.LCFI85+0xb56>)
 1000ac2:	f503 52b1 	add.w	r2, r3, #5664	; 0x1620
 1000ac6:	6813      	ldr	r3, [r2, #0]
 1000ac8:	f043 0304 	orr.w	r3, r3, #4
 1000acc:	6013      	str	r3, [r2, #0]
 1000ace:	4b2b      	ldr	r3, [pc, #172]	; (1000b7c <.LCFI85+0xb56>)
 1000ad0:	f030 fd04 	bl	10314dc <__pa_fn_0_174_01_0>
 1000ad4:	4b28      	ldr	r3, [pc, #160]	; (1000b78 <.LCFI85+0xb52>)
 1000ad6:	681b      	ldr	r3, [r3, #0]
 1000ad8:	3301      	adds	r3, #1
 1000ada:	4a27      	ldr	r2, [pc, #156]	; (1000b78 <.LCFI85+0xb52>)
 1000adc:	6013      	str	r3, [r2, #0]
 1000ade:	4b26      	ldr	r3, [pc, #152]	; (1000b78 <.LCFI85+0xb52>)
 1000ae0:	681b      	ldr	r3, [r3, #0]
 1000ae2:	3301      	adds	r3, #1
 1000ae4:	4a24      	ldr	r2, [pc, #144]	; (1000b78 <.LCFI85+0xb52>)
 1000ae6:	6013      	str	r3, [r2, #0]
 1000ae8:	4b23      	ldr	r3, [pc, #140]	; (1000b78 <.LCFI85+0xb52>)
 1000aea:	681b      	ldr	r3, [r3, #0]
 1000aec:	3301      	adds	r3, #1
 1000aee:	4a22      	ldr	r2, [pc, #136]	; (1000b78 <.LCFI85+0xb52>)
 1000af0:	6013      	str	r3, [r2, #0]
 1000af2:	4b21      	ldr	r3, [pc, #132]	; (1000b78 <.LCFI85+0xb52>)
 1000af4:	681b      	ldr	r3, [r3, #0]
 1000af6:	3301      	adds	r3, #1
 1000af8:	4a1f      	ldr	r2, [pc, #124]	; (1000b78 <.LCFI85+0xb52>)
 1000afa:	6013      	str	r3, [r2, #0]
 1000afc:	4b1e      	ldr	r3, [pc, #120]	; (1000b78 <.LCFI85+0xb52>)
 1000afe:	681b      	ldr	r3, [r3, #0]
 1000b00:	3301      	adds	r3, #1
 1000b02:	4a1d      	ldr	r2, [pc, #116]	; (1000b78 <.LCFI85+0xb52>)
 1000b04:	6013      	str	r3, [r2, #0]
 1000b06:	4b1c      	ldr	r3, [pc, #112]	; (1000b78 <.LCFI85+0xb52>)
 1000b08:	681b      	ldr	r3, [r3, #0]
 1000b0a:	3301      	adds	r3, #1
 1000b0c:	4a1a      	ldr	r2, [pc, #104]	; (1000b78 <.LCFI85+0xb52>)
 1000b0e:	6013      	str	r3, [r2, #0]
 1000b10:	4b19      	ldr	r3, [pc, #100]	; (1000b78 <.LCFI85+0xb52>)
 1000b12:	681b      	ldr	r3, [r3, #0]
 1000b14:	3301      	adds	r3, #1
 1000b16:	4a18      	ldr	r2, [pc, #96]	; (1000b78 <.LCFI85+0xb52>)
 1000b18:	6013      	str	r3, [r2, #0]
 1000b1a:	4b17      	ldr	r3, [pc, #92]	; (1000b78 <.LCFI85+0xb52>)
 1000b1c:	681b      	ldr	r3, [r3, #0]
 1000b1e:	3301      	adds	r3, #1
 1000b20:	4a15      	ldr	r2, [pc, #84]	; (1000b78 <.LCFI85+0xb52>)
 1000b22:	6013      	str	r3, [r2, #0]
 1000b24:	4b14      	ldr	r3, [pc, #80]	; (1000b78 <.LCFI85+0xb52>)
 1000b26:	681b      	ldr	r3, [r3, #0]
 1000b28:	3301      	adds	r3, #1
 1000b2a:	4a13      	ldr	r2, [pc, #76]	; (1000b78 <.LCFI85+0xb52>)
 1000b2c:	6013      	str	r3, [r2, #0]
 1000b2e:	4b12      	ldr	r3, [pc, #72]	; (1000b78 <.LCFI85+0xb52>)
 1000b30:	681b      	ldr	r3, [r3, #0]
 1000b32:	3301      	adds	r3, #1
 1000b34:	4a10      	ldr	r2, [pc, #64]	; (1000b78 <.LCFI85+0xb52>)
 1000b36:	6013      	str	r3, [r2, #0]
 1000b38:	4b0f      	ldr	r3, [pc, #60]	; (1000b78 <.LCFI85+0xb52>)
 1000b3a:	681b      	ldr	r3, [r3, #0]
 1000b3c:	3301      	adds	r3, #1
 1000b3e:	4a0e      	ldr	r2, [pc, #56]	; (1000b78 <.LCFI85+0xb52>)
 1000b40:	6013      	str	r3, [r2, #0]
 1000b42:	4b0d      	ldr	r3, [pc, #52]	; (1000b78 <.LCFI85+0xb52>)
 1000b44:	681b      	ldr	r3, [r3, #0]
 1000b46:	3301      	adds	r3, #1
 1000b48:	4a0b      	ldr	r2, [pc, #44]	; (1000b78 <.LCFI85+0xb52>)
 1000b4a:	6013      	str	r3, [r2, #0]
 1000b4c:	4b0a      	ldr	r3, [pc, #40]	; (1000b78 <.LCFI85+0xb52>)
 1000b4e:	681b      	ldr	r3, [r3, #0]
 1000b50:	3301      	adds	r3, #1
 1000b52:	4a09      	ldr	r2, [pc, #36]	; (1000b78 <.LCFI85+0xb52>)
 1000b54:	6013      	str	r3, [r2, #0]
 1000b56:	4b08      	ldr	r3, [pc, #32]	; (1000b78 <.LCFI85+0xb52>)
 1000b58:	681b      	ldr	r3, [r3, #0]
 1000b5a:	3301      	adds	r3, #1
 1000b5c:	4a06      	ldr	r2, [pc, #24]	; (1000b78 <.LCFI85+0xb52>)
 1000b5e:	6013      	str	r3, [r2, #0]
 1000b60:	4b05      	ldr	r3, [pc, #20]	; (1000b78 <.LCFI85+0xb52>)
 1000b62:	681b      	ldr	r3, [r3, #0]
 1000b64:	3301      	adds	r3, #1
 1000b66:	4a04      	ldr	r2, [pc, #16]	; (1000b78 <.LCFI85+0xb52>)
 1000b68:	6013      	str	r3, [r2, #0]
 1000b6a:	4b03      	ldr	r3, [pc, #12]	; (1000b78 <.LCFI85+0xb52>)
 1000b6c:	681b      	ldr	r3, [r3, #0]
 1000b6e:	3301      	adds	r3, #1
 1000b70:	4a01      	ldr	r2, [pc, #4]	; (1000b78 <.LCFI85+0xb52>)
 1000b72:	6013      	str	r3, [r2, #0]
 1000b74:	e004      	b.n	1000b80 <.LCFI85+0xb5a>
 1000b76:	bf00      	nop
 1000b78:	2000b5d4 	.word	0x2000b5d4
 1000b7c:	41012400 	.word	0x41012400
 1000b80:	4b8d      	ldr	r3, [pc, #564]	; (1000db8 <.LCFI85+0xd92>)
 1000b82:	681b      	ldr	r3, [r3, #0]
 1000b84:	3301      	adds	r3, #1
 1000b86:	4a8c      	ldr	r2, [pc, #560]	; (1000db8 <.LCFI85+0xd92>)
 1000b88:	6013      	str	r3, [r2, #0]
 1000b8a:	4b8b      	ldr	r3, [pc, #556]	; (1000db8 <.LCFI85+0xd92>)
 1000b8c:	681b      	ldr	r3, [r3, #0]
 1000b8e:	3301      	adds	r3, #1
 1000b90:	4a89      	ldr	r2, [pc, #548]	; (1000db8 <.LCFI85+0xd92>)
 1000b92:	6013      	str	r3, [r2, #0]
 1000b94:	4b88      	ldr	r3, [pc, #544]	; (1000db8 <.LCFI85+0xd92>)
 1000b96:	681b      	ldr	r3, [r3, #0]
 1000b98:	3301      	adds	r3, #1
 1000b9a:	4a87      	ldr	r2, [pc, #540]	; (1000db8 <.LCFI85+0xd92>)
 1000b9c:	6013      	str	r3, [r2, #0]
 1000b9e:	4b86      	ldr	r3, [pc, #536]	; (1000db8 <.LCFI85+0xd92>)
 1000ba0:	681b      	ldr	r3, [r3, #0]
 1000ba2:	3301      	adds	r3, #1
 1000ba4:	4a84      	ldr	r2, [pc, #528]	; (1000db8 <.LCFI85+0xd92>)
 1000ba6:	6013      	str	r3, [r2, #0]
 1000ba8:	4b83      	ldr	r3, [pc, #524]	; (1000db8 <.LCFI85+0xd92>)
 1000baa:	681b      	ldr	r3, [r3, #0]
 1000bac:	3301      	adds	r3, #1
 1000bae:	4a82      	ldr	r2, [pc, #520]	; (1000db8 <.LCFI85+0xd92>)
 1000bb0:	6013      	str	r3, [r2, #0]
 1000bb2:	4b81      	ldr	r3, [pc, #516]	; (1000db8 <.LCFI85+0xd92>)
 1000bb4:	681b      	ldr	r3, [r3, #0]
 1000bb6:	3301      	adds	r3, #1
 1000bb8:	4a7f      	ldr	r2, [pc, #508]	; (1000db8 <.LCFI85+0xd92>)
 1000bba:	6013      	str	r3, [r2, #0]
 1000bbc:	4b7e      	ldr	r3, [pc, #504]	; (1000db8 <.LCFI85+0xd92>)
 1000bbe:	681b      	ldr	r3, [r3, #0]
 1000bc0:	3301      	adds	r3, #1
 1000bc2:	4a7d      	ldr	r2, [pc, #500]	; (1000db8 <.LCFI85+0xd92>)
 1000bc4:	6013      	str	r3, [r2, #0]
 1000bc6:	4b7c      	ldr	r3, [pc, #496]	; (1000db8 <.LCFI85+0xd92>)
 1000bc8:	681b      	ldr	r3, [r3, #0]
 1000bca:	3301      	adds	r3, #1
 1000bcc:	4a7a      	ldr	r2, [pc, #488]	; (1000db8 <.LCFI85+0xd92>)
 1000bce:	6013      	str	r3, [r2, #0]
 1000bd0:	4b79      	ldr	r3, [pc, #484]	; (1000db8 <.LCFI85+0xd92>)
 1000bd2:	681b      	ldr	r3, [r3, #0]
 1000bd4:	3301      	adds	r3, #1
 1000bd6:	4a78      	ldr	r2, [pc, #480]	; (1000db8 <.LCFI85+0xd92>)
 1000bd8:	6013      	str	r3, [r2, #0]
 1000bda:	4b77      	ldr	r3, [pc, #476]	; (1000db8 <.LCFI85+0xd92>)
 1000bdc:	681b      	ldr	r3, [r3, #0]
 1000bde:	3301      	adds	r3, #1
 1000be0:	4a75      	ldr	r2, [pc, #468]	; (1000db8 <.LCFI85+0xd92>)
 1000be2:	6013      	str	r3, [r2, #0]
 1000be4:	4b74      	ldr	r3, [pc, #464]	; (1000db8 <.LCFI85+0xd92>)
 1000be6:	681b      	ldr	r3, [r3, #0]
 1000be8:	3301      	adds	r3, #1
 1000bea:	4a73      	ldr	r2, [pc, #460]	; (1000db8 <.LCFI85+0xd92>)
 1000bec:	6013      	str	r3, [r2, #0]
 1000bee:	4b72      	ldr	r3, [pc, #456]	; (1000db8 <.LCFI85+0xd92>)
 1000bf0:	681b      	ldr	r3, [r3, #0]
 1000bf2:	3301      	adds	r3, #1
 1000bf4:	4a70      	ldr	r2, [pc, #448]	; (1000db8 <.LCFI85+0xd92>)
 1000bf6:	6013      	str	r3, [r2, #0]
 1000bf8:	4b6f      	ldr	r3, [pc, #444]	; (1000db8 <.LCFI85+0xd92>)
 1000bfa:	681b      	ldr	r3, [r3, #0]
 1000bfc:	3301      	adds	r3, #1
 1000bfe:	4a6e      	ldr	r2, [pc, #440]	; (1000db8 <.LCFI85+0xd92>)
 1000c00:	6013      	str	r3, [r2, #0]
 1000c02:	4b6d      	ldr	r3, [pc, #436]	; (1000db8 <.LCFI85+0xd92>)
 1000c04:	681b      	ldr	r3, [r3, #0]
 1000c06:	3301      	adds	r3, #1
 1000c08:	4a6b      	ldr	r2, [pc, #428]	; (1000db8 <.LCFI85+0xd92>)
 1000c0a:	6013      	str	r3, [r2, #0]
 1000c0c:	4b6a      	ldr	r3, [pc, #424]	; (1000db8 <.LCFI85+0xd92>)
 1000c0e:	681b      	ldr	r3, [r3, #0]
 1000c10:	3301      	adds	r3, #1
 1000c12:	4a69      	ldr	r2, [pc, #420]	; (1000db8 <.LCFI85+0xd92>)
 1000c14:	6013      	str	r3, [r2, #0]
 1000c16:	4b68      	ldr	r3, [pc, #416]	; (1000db8 <.LCFI85+0xd92>)
 1000c18:	681b      	ldr	r3, [r3, #0]
 1000c1a:	3301      	adds	r3, #1
 1000c1c:	4a66      	ldr	r2, [pc, #408]	; (1000db8 <.LCFI85+0xd92>)
 1000c1e:	6013      	str	r3, [r2, #0]
 1000c20:	4b65      	ldr	r3, [pc, #404]	; (1000db8 <.LCFI85+0xd92>)
 1000c22:	681b      	ldr	r3, [r3, #0]
 1000c24:	3301      	adds	r3, #1
 1000c26:	4a64      	ldr	r2, [pc, #400]	; (1000db8 <.LCFI85+0xd92>)
 1000c28:	6013      	str	r3, [r2, #0]
 1000c2a:	4b63      	ldr	r3, [pc, #396]	; (1000db8 <.LCFI85+0xd92>)
 1000c2c:	681b      	ldr	r3, [r3, #0]
 1000c2e:	3301      	adds	r3, #1
 1000c30:	4a61      	ldr	r2, [pc, #388]	; (1000db8 <.LCFI85+0xd92>)
 1000c32:	6013      	str	r3, [r2, #0]
 1000c34:	4b60      	ldr	r3, [pc, #384]	; (1000db8 <.LCFI85+0xd92>)
 1000c36:	681b      	ldr	r3, [r3, #0]
 1000c38:	3301      	adds	r3, #1
 1000c3a:	4a5f      	ldr	r2, [pc, #380]	; (1000db8 <.LCFI85+0xd92>)
 1000c3c:	6013      	str	r3, [r2, #0]
 1000c3e:	4b5e      	ldr	r3, [pc, #376]	; (1000db8 <.LCFI85+0xd92>)
 1000c40:	681b      	ldr	r3, [r3, #0]
 1000c42:	3301      	adds	r3, #1
 1000c44:	4a5c      	ldr	r2, [pc, #368]	; (1000db8 <.LCFI85+0xd92>)
 1000c46:	6013      	str	r3, [r2, #0]
 1000c48:	4b5b      	ldr	r3, [pc, #364]	; (1000db8 <.LCFI85+0xd92>)
 1000c4a:	681b      	ldr	r3, [r3, #0]
 1000c4c:	3301      	adds	r3, #1
 1000c4e:	4a5a      	ldr	r2, [pc, #360]	; (1000db8 <.LCFI85+0xd92>)
 1000c50:	6013      	str	r3, [r2, #0]
 1000c52:	4b59      	ldr	r3, [pc, #356]	; (1000db8 <.LCFI85+0xd92>)
 1000c54:	681b      	ldr	r3, [r3, #0]
 1000c56:	3301      	adds	r3, #1
 1000c58:	4a57      	ldr	r2, [pc, #348]	; (1000db8 <.LCFI85+0xd92>)
 1000c5a:	6013      	str	r3, [r2, #0]
 1000c5c:	4b56      	ldr	r3, [pc, #344]	; (1000db8 <.LCFI85+0xd92>)
 1000c5e:	681b      	ldr	r3, [r3, #0]
 1000c60:	3301      	adds	r3, #1
 1000c62:	4a55      	ldr	r2, [pc, #340]	; (1000db8 <.LCFI85+0xd92>)
 1000c64:	6013      	str	r3, [r2, #0]
 1000c66:	4b54      	ldr	r3, [pc, #336]	; (1000db8 <.LCFI85+0xd92>)
 1000c68:	681b      	ldr	r3, [r3, #0]
 1000c6a:	3301      	adds	r3, #1
 1000c6c:	4a52      	ldr	r2, [pc, #328]	; (1000db8 <.LCFI85+0xd92>)
 1000c6e:	6013      	str	r3, [r2, #0]
 1000c70:	4b51      	ldr	r3, [pc, #324]	; (1000db8 <.LCFI85+0xd92>)
 1000c72:	681b      	ldr	r3, [r3, #0]
 1000c74:	3301      	adds	r3, #1
 1000c76:	4a50      	ldr	r2, [pc, #320]	; (1000db8 <.LCFI85+0xd92>)
 1000c78:	6013      	str	r3, [r2, #0]
 1000c7a:	4b4f      	ldr	r3, [pc, #316]	; (1000db8 <.LCFI85+0xd92>)
 1000c7c:	681b      	ldr	r3, [r3, #0]
 1000c7e:	3301      	adds	r3, #1
 1000c80:	4a4d      	ldr	r2, [pc, #308]	; (1000db8 <.LCFI85+0xd92>)
 1000c82:	6013      	str	r3, [r2, #0]
 1000c84:	4b4c      	ldr	r3, [pc, #304]	; (1000db8 <.LCFI85+0xd92>)
 1000c86:	681b      	ldr	r3, [r3, #0]
 1000c88:	3301      	adds	r3, #1
 1000c8a:	4a4b      	ldr	r2, [pc, #300]	; (1000db8 <.LCFI85+0xd92>)
 1000c8c:	6013      	str	r3, [r2, #0]
 1000c8e:	4b4a      	ldr	r3, [pc, #296]	; (1000db8 <.LCFI85+0xd92>)
 1000c90:	681b      	ldr	r3, [r3, #0]
 1000c92:	3301      	adds	r3, #1
 1000c94:	4a48      	ldr	r2, [pc, #288]	; (1000db8 <.LCFI85+0xd92>)
 1000c96:	6013      	str	r3, [r2, #0]
 1000c98:	4b47      	ldr	r3, [pc, #284]	; (1000db8 <.LCFI85+0xd92>)
 1000c9a:	681b      	ldr	r3, [r3, #0]
 1000c9c:	3301      	adds	r3, #1
 1000c9e:	4a46      	ldr	r2, [pc, #280]	; (1000db8 <.LCFI85+0xd92>)
 1000ca0:	6013      	str	r3, [r2, #0]
 1000ca2:	4b45      	ldr	r3, [pc, #276]	; (1000db8 <.LCFI85+0xd92>)
 1000ca4:	681b      	ldr	r3, [r3, #0]
 1000ca6:	3301      	adds	r3, #1
 1000ca8:	4a43      	ldr	r2, [pc, #268]	; (1000db8 <.LCFI85+0xd92>)
 1000caa:	6013      	str	r3, [r2, #0]
 1000cac:	4b42      	ldr	r3, [pc, #264]	; (1000db8 <.LCFI85+0xd92>)
 1000cae:	681b      	ldr	r3, [r3, #0]
 1000cb0:	3301      	adds	r3, #1
 1000cb2:	4a41      	ldr	r2, [pc, #260]	; (1000db8 <.LCFI85+0xd92>)
 1000cb4:	6013      	str	r3, [r2, #0]
 1000cb6:	4b40      	ldr	r3, [pc, #256]	; (1000db8 <.LCFI85+0xd92>)
 1000cb8:	681b      	ldr	r3, [r3, #0]
 1000cba:	3301      	adds	r3, #1
 1000cbc:	4a3e      	ldr	r2, [pc, #248]	; (1000db8 <.LCFI85+0xd92>)
 1000cbe:	6013      	str	r3, [r2, #0]
 1000cc0:	4b3d      	ldr	r3, [pc, #244]	; (1000db8 <.LCFI85+0xd92>)
 1000cc2:	681b      	ldr	r3, [r3, #0]
 1000cc4:	3301      	adds	r3, #1
 1000cc6:	4a3c      	ldr	r2, [pc, #240]	; (1000db8 <.LCFI85+0xd92>)
 1000cc8:	6013      	str	r3, [r2, #0]
 1000cca:	4b3b      	ldr	r3, [pc, #236]	; (1000db8 <.LCFI85+0xd92>)
 1000ccc:	681b      	ldr	r3, [r3, #0]
 1000cce:	3301      	adds	r3, #1
 1000cd0:	4a39      	ldr	r2, [pc, #228]	; (1000db8 <.LCFI85+0xd92>)
 1000cd2:	6013      	str	r3, [r2, #0]
 1000cd4:	4b38      	ldr	r3, [pc, #224]	; (1000db8 <.LCFI85+0xd92>)
 1000cd6:	681b      	ldr	r3, [r3, #0]
 1000cd8:	3301      	adds	r3, #1
 1000cda:	4a37      	ldr	r2, [pc, #220]	; (1000db8 <.LCFI85+0xd92>)
 1000cdc:	6013      	str	r3, [r2, #0]
 1000cde:	4b36      	ldr	r3, [pc, #216]	; (1000db8 <.LCFI85+0xd92>)
 1000ce0:	681b      	ldr	r3, [r3, #0]
 1000ce2:	3301      	adds	r3, #1
 1000ce4:	4a34      	ldr	r2, [pc, #208]	; (1000db8 <.LCFI85+0xd92>)
 1000ce6:	6013      	str	r3, [r2, #0]
 1000ce8:	4b33      	ldr	r3, [pc, #204]	; (1000db8 <.LCFI85+0xd92>)
 1000cea:	681b      	ldr	r3, [r3, #0]
 1000cec:	3301      	adds	r3, #1
 1000cee:	4a32      	ldr	r2, [pc, #200]	; (1000db8 <.LCFI85+0xd92>)
 1000cf0:	6013      	str	r3, [r2, #0]
 1000cf2:	4b31      	ldr	r3, [pc, #196]	; (1000db8 <.LCFI85+0xd92>)
 1000cf4:	681b      	ldr	r3, [r3, #0]
 1000cf6:	3301      	adds	r3, #1
 1000cf8:	4a2f      	ldr	r2, [pc, #188]	; (1000db8 <.LCFI85+0xd92>)
 1000cfa:	6013      	str	r3, [r2, #0]
 1000cfc:	4b2e      	ldr	r3, [pc, #184]	; (1000db8 <.LCFI85+0xd92>)
 1000cfe:	681b      	ldr	r3, [r3, #0]
 1000d00:	3301      	adds	r3, #1
 1000d02:	4a2d      	ldr	r2, [pc, #180]	; (1000db8 <.LCFI85+0xd92>)
 1000d04:	6013      	str	r3, [r2, #0]
 1000d06:	4b2c      	ldr	r3, [pc, #176]	; (1000db8 <.LCFI85+0xd92>)
 1000d08:	681b      	ldr	r3, [r3, #0]
 1000d0a:	3301      	adds	r3, #1
 1000d0c:	4a2a      	ldr	r2, [pc, #168]	; (1000db8 <.LCFI85+0xd92>)
 1000d0e:	6013      	str	r3, [r2, #0]
 1000d10:	4b29      	ldr	r3, [pc, #164]	; (1000db8 <.LCFI85+0xd92>)
 1000d12:	681b      	ldr	r3, [r3, #0]
 1000d14:	3301      	adds	r3, #1
 1000d16:	4a28      	ldr	r2, [pc, #160]	; (1000db8 <.LCFI85+0xd92>)
 1000d18:	6013      	str	r3, [r2, #0]
 1000d1a:	4b27      	ldr	r3, [pc, #156]	; (1000db8 <.LCFI85+0xd92>)
 1000d1c:	681b      	ldr	r3, [r3, #0]
 1000d1e:	3301      	adds	r3, #1
 1000d20:	4a25      	ldr	r2, [pc, #148]	; (1000db8 <.LCFI85+0xd92>)
 1000d22:	6013      	str	r3, [r2, #0]
 1000d24:	4b24      	ldr	r3, [pc, #144]	; (1000db8 <.LCFI85+0xd92>)
 1000d26:	681b      	ldr	r3, [r3, #0]
 1000d28:	3301      	adds	r3, #1
 1000d2a:	4a23      	ldr	r2, [pc, #140]	; (1000db8 <.LCFI85+0xd92>)
 1000d2c:	6013      	str	r3, [r2, #0]
 1000d2e:	4b22      	ldr	r3, [pc, #136]	; (1000db8 <.LCFI85+0xd92>)
 1000d30:	681b      	ldr	r3, [r3, #0]
 1000d32:	3301      	adds	r3, #1
 1000d34:	4a20      	ldr	r2, [pc, #128]	; (1000db8 <.LCFI85+0xd92>)
 1000d36:	6013      	str	r3, [r2, #0]
 1000d38:	4b1f      	ldr	r3, [pc, #124]	; (1000db8 <.LCFI85+0xd92>)
 1000d3a:	681b      	ldr	r3, [r3, #0]
 1000d3c:	3301      	adds	r3, #1
 1000d3e:	4a1e      	ldr	r2, [pc, #120]	; (1000db8 <.LCFI85+0xd92>)
 1000d40:	6013      	str	r3, [r2, #0]
 1000d42:	4b1d      	ldr	r3, [pc, #116]	; (1000db8 <.LCFI85+0xd92>)
 1000d44:	681b      	ldr	r3, [r3, #0]
 1000d46:	3301      	adds	r3, #1
 1000d48:	4a1b      	ldr	r2, [pc, #108]	; (1000db8 <.LCFI85+0xd92>)
 1000d4a:	6013      	str	r3, [r2, #0]
 1000d4c:	4b1a      	ldr	r3, [pc, #104]	; (1000db8 <.LCFI85+0xd92>)
 1000d4e:	681b      	ldr	r3, [r3, #0]
 1000d50:	3301      	adds	r3, #1
 1000d52:	4a19      	ldr	r2, [pc, #100]	; (1000db8 <.LCFI85+0xd92>)
 1000d54:	6013      	str	r3, [r2, #0]
 1000d56:	4b18      	ldr	r3, [pc, #96]	; (1000db8 <.LCFI85+0xd92>)
 1000d58:	681b      	ldr	r3, [r3, #0]
 1000d5a:	3301      	adds	r3, #1
 1000d5c:	4a16      	ldr	r2, [pc, #88]	; (1000db8 <.LCFI85+0xd92>)
 1000d5e:	6013      	str	r3, [r2, #0]
 1000d60:	4b15      	ldr	r3, [pc, #84]	; (1000db8 <.LCFI85+0xd92>)
 1000d62:	681b      	ldr	r3, [r3, #0]
 1000d64:	3301      	adds	r3, #1
 1000d66:	4a14      	ldr	r2, [pc, #80]	; (1000db8 <.LCFI85+0xd92>)
 1000d68:	6013      	str	r3, [r2, #0]
 1000d6a:	4b13      	ldr	r3, [pc, #76]	; (1000db8 <.LCFI85+0xd92>)
 1000d6c:	681b      	ldr	r3, [r3, #0]
 1000d6e:	3301      	adds	r3, #1
 1000d70:	4a11      	ldr	r2, [pc, #68]	; (1000db8 <.LCFI85+0xd92>)
 1000d72:	6013      	str	r3, [r2, #0]
 1000d74:	4b10      	ldr	r3, [pc, #64]	; (1000db8 <.LCFI85+0xd92>)
 1000d76:	681b      	ldr	r3, [r3, #0]
 1000d78:	3301      	adds	r3, #1
 1000d7a:	4a0f      	ldr	r2, [pc, #60]	; (1000db8 <.LCFI85+0xd92>)
 1000d7c:	6013      	str	r3, [r2, #0]
 1000d7e:	4b0e      	ldr	r3, [pc, #56]	; (1000db8 <.LCFI85+0xd92>)
 1000d80:	681b      	ldr	r3, [r3, #0]
 1000d82:	3301      	adds	r3, #1
 1000d84:	4a0c      	ldr	r2, [pc, #48]	; (1000db8 <.LCFI85+0xd92>)
 1000d86:	6013      	str	r3, [r2, #0]
 1000d88:	4b0b      	ldr	r3, [pc, #44]	; (1000db8 <.LCFI85+0xd92>)
 1000d8a:	681b      	ldr	r3, [r3, #0]
 1000d8c:	3301      	adds	r3, #1
 1000d8e:	4a0a      	ldr	r2, [pc, #40]	; (1000db8 <.LCFI85+0xd92>)
 1000d90:	6013      	str	r3, [r2, #0]
 1000d92:	4b09      	ldr	r3, [pc, #36]	; (1000db8 <.LCFI85+0xd92>)
 1000d94:	681b      	ldr	r3, [r3, #0]
 1000d96:	3301      	adds	r3, #1
 1000d98:	4a07      	ldr	r2, [pc, #28]	; (1000db8 <.LCFI85+0xd92>)
 1000d9a:	6013      	str	r3, [r2, #0]
 1000d9c:	4b06      	ldr	r3, [pc, #24]	; (1000db8 <.LCFI85+0xd92>)
 1000d9e:	681b      	ldr	r3, [r3, #0]
 1000da0:	3301      	adds	r3, #1
 1000da2:	4a05      	ldr	r2, [pc, #20]	; (1000db8 <.LCFI85+0xd92>)
 1000da4:	6013      	str	r3, [r2, #0]
 1000da6:	4b04      	ldr	r3, [pc, #16]	; (1000db8 <.LCFI85+0xd92>)
 1000da8:	681b      	ldr	r3, [r3, #0]
 1000daa:	3301      	adds	r3, #1
 1000dac:	4a02      	ldr	r2, [pc, #8]	; (1000db8 <.LCFI85+0xd92>)
 1000dae:	6013      	str	r3, [r2, #0]
 1000db0:	4b01      	ldr	r3, [pc, #4]	; (1000db8 <.LCFI85+0xd92>)
 1000db2:	681b      	ldr	r3, [r3, #0]
 1000db4:	e002      	b.n	1000dbc <.LCFI85+0xd96>
 1000db6:	bf00      	nop
 1000db8:	2000b5d4 	.word	0x2000b5d4
 1000dbc:	3301      	adds	r3, #1
 1000dbe:	4a8c      	ldr	r2, [pc, #560]	; (1000ff0 <.LCFI85+0xfca>)
 1000dc0:	6013      	str	r3, [r2, #0]
 1000dc2:	4b8b      	ldr	r3, [pc, #556]	; (1000ff0 <.LCFI85+0xfca>)
 1000dc4:	681b      	ldr	r3, [r3, #0]
 1000dc6:	3301      	adds	r3, #1
 1000dc8:	4a89      	ldr	r2, [pc, #548]	; (1000ff0 <.LCFI85+0xfca>)
 1000dca:	6013      	str	r3, [r2, #0]
 1000dcc:	4b88      	ldr	r3, [pc, #544]	; (1000ff0 <.LCFI85+0xfca>)
 1000dce:	681b      	ldr	r3, [r3, #0]
 1000dd0:	3301      	adds	r3, #1
 1000dd2:	4a87      	ldr	r2, [pc, #540]	; (1000ff0 <.LCFI85+0xfca>)
 1000dd4:	6013      	str	r3, [r2, #0]
 1000dd6:	4b86      	ldr	r3, [pc, #536]	; (1000ff0 <.LCFI85+0xfca>)
 1000dd8:	681b      	ldr	r3, [r3, #0]
 1000dda:	3301      	adds	r3, #1
 1000ddc:	4a84      	ldr	r2, [pc, #528]	; (1000ff0 <.LCFI85+0xfca>)
 1000dde:	6013      	str	r3, [r2, #0]
 1000de0:	4b83      	ldr	r3, [pc, #524]	; (1000ff0 <.LCFI85+0xfca>)
 1000de2:	681b      	ldr	r3, [r3, #0]
 1000de4:	3301      	adds	r3, #1
 1000de6:	4a82      	ldr	r2, [pc, #520]	; (1000ff0 <.LCFI85+0xfca>)
 1000de8:	6013      	str	r3, [r2, #0]
 1000dea:	4b81      	ldr	r3, [pc, #516]	; (1000ff0 <.LCFI85+0xfca>)
 1000dec:	681b      	ldr	r3, [r3, #0]
 1000dee:	3301      	adds	r3, #1
 1000df0:	4a7f      	ldr	r2, [pc, #508]	; (1000ff0 <.LCFI85+0xfca>)
 1000df2:	6013      	str	r3, [r2, #0]
 1000df4:	4b7e      	ldr	r3, [pc, #504]	; (1000ff0 <.LCFI85+0xfca>)
 1000df6:	681b      	ldr	r3, [r3, #0]
 1000df8:	3301      	adds	r3, #1
 1000dfa:	4a7d      	ldr	r2, [pc, #500]	; (1000ff0 <.LCFI85+0xfca>)
 1000dfc:	6013      	str	r3, [r2, #0]
 1000dfe:	4b7c      	ldr	r3, [pc, #496]	; (1000ff0 <.LCFI85+0xfca>)
 1000e00:	681b      	ldr	r3, [r3, #0]
 1000e02:	3301      	adds	r3, #1
 1000e04:	4a7a      	ldr	r2, [pc, #488]	; (1000ff0 <.LCFI85+0xfca>)
 1000e06:	6013      	str	r3, [r2, #0]
 1000e08:	4b79      	ldr	r3, [pc, #484]	; (1000ff0 <.LCFI85+0xfca>)
 1000e0a:	681b      	ldr	r3, [r3, #0]
 1000e0c:	3301      	adds	r3, #1
 1000e0e:	4a78      	ldr	r2, [pc, #480]	; (1000ff0 <.LCFI85+0xfca>)
 1000e10:	6013      	str	r3, [r2, #0]
 1000e12:	4b77      	ldr	r3, [pc, #476]	; (1000ff0 <.LCFI85+0xfca>)
 1000e14:	681b      	ldr	r3, [r3, #0]
 1000e16:	3301      	adds	r3, #1
 1000e18:	4a75      	ldr	r2, [pc, #468]	; (1000ff0 <.LCFI85+0xfca>)
 1000e1a:	6013      	str	r3, [r2, #0]
 1000e1c:	4b74      	ldr	r3, [pc, #464]	; (1000ff0 <.LCFI85+0xfca>)
 1000e1e:	681b      	ldr	r3, [r3, #0]
 1000e20:	3301      	adds	r3, #1
 1000e22:	4a73      	ldr	r2, [pc, #460]	; (1000ff0 <.LCFI85+0xfca>)
 1000e24:	6013      	str	r3, [r2, #0]
 1000e26:	4b72      	ldr	r3, [pc, #456]	; (1000ff0 <.LCFI85+0xfca>)
 1000e28:	681b      	ldr	r3, [r3, #0]
 1000e2a:	3301      	adds	r3, #1
 1000e2c:	4a70      	ldr	r2, [pc, #448]	; (1000ff0 <.LCFI85+0xfca>)
 1000e2e:	6013      	str	r3, [r2, #0]
 1000e30:	4b6f      	ldr	r3, [pc, #444]	; (1000ff0 <.LCFI85+0xfca>)
 1000e32:	681b      	ldr	r3, [r3, #0]
 1000e34:	3301      	adds	r3, #1
 1000e36:	4a6e      	ldr	r2, [pc, #440]	; (1000ff0 <.LCFI85+0xfca>)
 1000e38:	6013      	str	r3, [r2, #0]
 1000e3a:	4b6d      	ldr	r3, [pc, #436]	; (1000ff0 <.LCFI85+0xfca>)
 1000e3c:	681b      	ldr	r3, [r3, #0]
 1000e3e:	3301      	adds	r3, #1
 1000e40:	4a6b      	ldr	r2, [pc, #428]	; (1000ff0 <.LCFI85+0xfca>)
 1000e42:	6013      	str	r3, [r2, #0]
 1000e44:	4b6a      	ldr	r3, [pc, #424]	; (1000ff0 <.LCFI85+0xfca>)
 1000e46:	681b      	ldr	r3, [r3, #0]
 1000e48:	3301      	adds	r3, #1
 1000e4a:	4a69      	ldr	r2, [pc, #420]	; (1000ff0 <.LCFI85+0xfca>)
 1000e4c:	6013      	str	r3, [r2, #0]
 1000e4e:	4b68      	ldr	r3, [pc, #416]	; (1000ff0 <.LCFI85+0xfca>)
 1000e50:	681b      	ldr	r3, [r3, #0]
 1000e52:	3301      	adds	r3, #1
 1000e54:	4a66      	ldr	r2, [pc, #408]	; (1000ff0 <.LCFI85+0xfca>)
 1000e56:	6013      	str	r3, [r2, #0]
 1000e58:	4b65      	ldr	r3, [pc, #404]	; (1000ff0 <.LCFI85+0xfca>)
 1000e5a:	681b      	ldr	r3, [r3, #0]
 1000e5c:	3301      	adds	r3, #1
 1000e5e:	4a64      	ldr	r2, [pc, #400]	; (1000ff0 <.LCFI85+0xfca>)
 1000e60:	6013      	str	r3, [r2, #0]
 1000e62:	4b63      	ldr	r3, [pc, #396]	; (1000ff0 <.LCFI85+0xfca>)
 1000e64:	681b      	ldr	r3, [r3, #0]
 1000e66:	3301      	adds	r3, #1
 1000e68:	4a61      	ldr	r2, [pc, #388]	; (1000ff0 <.LCFI85+0xfca>)
 1000e6a:	6013      	str	r3, [r2, #0]
 1000e6c:	4b60      	ldr	r3, [pc, #384]	; (1000ff0 <.LCFI85+0xfca>)
 1000e6e:	681b      	ldr	r3, [r3, #0]
 1000e70:	3301      	adds	r3, #1
 1000e72:	4a5f      	ldr	r2, [pc, #380]	; (1000ff0 <.LCFI85+0xfca>)
 1000e74:	6013      	str	r3, [r2, #0]
 1000e76:	4b5e      	ldr	r3, [pc, #376]	; (1000ff0 <.LCFI85+0xfca>)
 1000e78:	681b      	ldr	r3, [r3, #0]
 1000e7a:	3301      	adds	r3, #1
 1000e7c:	4a5c      	ldr	r2, [pc, #368]	; (1000ff0 <.LCFI85+0xfca>)
 1000e7e:	6013      	str	r3, [r2, #0]
 1000e80:	4b5b      	ldr	r3, [pc, #364]	; (1000ff0 <.LCFI85+0xfca>)
 1000e82:	681b      	ldr	r3, [r3, #0]
 1000e84:	3301      	adds	r3, #1
 1000e86:	4a5a      	ldr	r2, [pc, #360]	; (1000ff0 <.LCFI85+0xfca>)
 1000e88:	6013      	str	r3, [r2, #0]
 1000e8a:	4b59      	ldr	r3, [pc, #356]	; (1000ff0 <.LCFI85+0xfca>)
 1000e8c:	681b      	ldr	r3, [r3, #0]
 1000e8e:	3301      	adds	r3, #1
 1000e90:	4a57      	ldr	r2, [pc, #348]	; (1000ff0 <.LCFI85+0xfca>)
 1000e92:	6013      	str	r3, [r2, #0]
 1000e94:	4b56      	ldr	r3, [pc, #344]	; (1000ff0 <.LCFI85+0xfca>)
 1000e96:	681b      	ldr	r3, [r3, #0]
 1000e98:	3301      	adds	r3, #1
 1000e9a:	4a55      	ldr	r2, [pc, #340]	; (1000ff0 <.LCFI85+0xfca>)
 1000e9c:	6013      	str	r3, [r2, #0]
 1000e9e:	4b54      	ldr	r3, [pc, #336]	; (1000ff0 <.LCFI85+0xfca>)
 1000ea0:	681b      	ldr	r3, [r3, #0]
 1000ea2:	3301      	adds	r3, #1
 1000ea4:	4a52      	ldr	r2, [pc, #328]	; (1000ff0 <.LCFI85+0xfca>)
 1000ea6:	6013      	str	r3, [r2, #0]
 1000ea8:	4b51      	ldr	r3, [pc, #324]	; (1000ff0 <.LCFI85+0xfca>)
 1000eaa:	681b      	ldr	r3, [r3, #0]
 1000eac:	3301      	adds	r3, #1
 1000eae:	4a50      	ldr	r2, [pc, #320]	; (1000ff0 <.LCFI85+0xfca>)
 1000eb0:	6013      	str	r3, [r2, #0]
 1000eb2:	4b4f      	ldr	r3, [pc, #316]	; (1000ff0 <.LCFI85+0xfca>)
 1000eb4:	681b      	ldr	r3, [r3, #0]
 1000eb6:	3301      	adds	r3, #1
 1000eb8:	4a4d      	ldr	r2, [pc, #308]	; (1000ff0 <.LCFI85+0xfca>)
 1000eba:	6013      	str	r3, [r2, #0]
 1000ebc:	4b4c      	ldr	r3, [pc, #304]	; (1000ff0 <.LCFI85+0xfca>)
 1000ebe:	681b      	ldr	r3, [r3, #0]
 1000ec0:	3301      	adds	r3, #1
 1000ec2:	4a4b      	ldr	r2, [pc, #300]	; (1000ff0 <.LCFI85+0xfca>)
 1000ec4:	6013      	str	r3, [r2, #0]
 1000ec6:	4b4a      	ldr	r3, [pc, #296]	; (1000ff0 <.LCFI85+0xfca>)
 1000ec8:	681b      	ldr	r3, [r3, #0]
 1000eca:	3301      	adds	r3, #1
 1000ecc:	4a48      	ldr	r2, [pc, #288]	; (1000ff0 <.LCFI85+0xfca>)
 1000ece:	6013      	str	r3, [r2, #0]
 1000ed0:	4b47      	ldr	r3, [pc, #284]	; (1000ff0 <.LCFI85+0xfca>)
 1000ed2:	681b      	ldr	r3, [r3, #0]
 1000ed4:	3301      	adds	r3, #1
 1000ed6:	4a46      	ldr	r2, [pc, #280]	; (1000ff0 <.LCFI85+0xfca>)
 1000ed8:	6013      	str	r3, [r2, #0]
 1000eda:	4b45      	ldr	r3, [pc, #276]	; (1000ff0 <.LCFI85+0xfca>)
 1000edc:	681b      	ldr	r3, [r3, #0]
 1000ede:	3301      	adds	r3, #1
 1000ee0:	4a43      	ldr	r2, [pc, #268]	; (1000ff0 <.LCFI85+0xfca>)
 1000ee2:	6013      	str	r3, [r2, #0]
 1000ee4:	4b42      	ldr	r3, [pc, #264]	; (1000ff0 <.LCFI85+0xfca>)
 1000ee6:	681b      	ldr	r3, [r3, #0]
 1000ee8:	3301      	adds	r3, #1
 1000eea:	4a41      	ldr	r2, [pc, #260]	; (1000ff0 <.LCFI85+0xfca>)
 1000eec:	6013      	str	r3, [r2, #0]
 1000eee:	4b40      	ldr	r3, [pc, #256]	; (1000ff0 <.LCFI85+0xfca>)
 1000ef0:	681b      	ldr	r3, [r3, #0]
 1000ef2:	3301      	adds	r3, #1
 1000ef4:	4a3e      	ldr	r2, [pc, #248]	; (1000ff0 <.LCFI85+0xfca>)
 1000ef6:	6013      	str	r3, [r2, #0]
 1000ef8:	4b3d      	ldr	r3, [pc, #244]	; (1000ff0 <.LCFI85+0xfca>)
 1000efa:	681b      	ldr	r3, [r3, #0]
 1000efc:	3301      	adds	r3, #1
 1000efe:	4a3c      	ldr	r2, [pc, #240]	; (1000ff0 <.LCFI85+0xfca>)
 1000f00:	6013      	str	r3, [r2, #0]
 1000f02:	4b3b      	ldr	r3, [pc, #236]	; (1000ff0 <.LCFI85+0xfca>)
 1000f04:	681b      	ldr	r3, [r3, #0]
 1000f06:	3301      	adds	r3, #1
 1000f08:	4a39      	ldr	r2, [pc, #228]	; (1000ff0 <.LCFI85+0xfca>)
 1000f0a:	6013      	str	r3, [r2, #0]
 1000f0c:	4b38      	ldr	r3, [pc, #224]	; (1000ff0 <.LCFI85+0xfca>)
 1000f0e:	681b      	ldr	r3, [r3, #0]
 1000f10:	3301      	adds	r3, #1
 1000f12:	4a37      	ldr	r2, [pc, #220]	; (1000ff0 <.LCFI85+0xfca>)
 1000f14:	6013      	str	r3, [r2, #0]
 1000f16:	4b36      	ldr	r3, [pc, #216]	; (1000ff0 <.LCFI85+0xfca>)
 1000f18:	681b      	ldr	r3, [r3, #0]
 1000f1a:	3301      	adds	r3, #1
 1000f1c:	4a34      	ldr	r2, [pc, #208]	; (1000ff0 <.LCFI85+0xfca>)
 1000f1e:	6013      	str	r3, [r2, #0]
 1000f20:	4b33      	ldr	r3, [pc, #204]	; (1000ff0 <.LCFI85+0xfca>)
 1000f22:	681b      	ldr	r3, [r3, #0]
 1000f24:	3301      	adds	r3, #1
 1000f26:	4a32      	ldr	r2, [pc, #200]	; (1000ff0 <.LCFI85+0xfca>)
 1000f28:	6013      	str	r3, [r2, #0]
 1000f2a:	4b31      	ldr	r3, [pc, #196]	; (1000ff0 <.LCFI85+0xfca>)
 1000f2c:	681b      	ldr	r3, [r3, #0]
 1000f2e:	3301      	adds	r3, #1
 1000f30:	4a2f      	ldr	r2, [pc, #188]	; (1000ff0 <.LCFI85+0xfca>)
 1000f32:	6013      	str	r3, [r2, #0]
 1000f34:	4b2e      	ldr	r3, [pc, #184]	; (1000ff0 <.LCFI85+0xfca>)
 1000f36:	681b      	ldr	r3, [r3, #0]
 1000f38:	3301      	adds	r3, #1
 1000f3a:	4a2d      	ldr	r2, [pc, #180]	; (1000ff0 <.LCFI85+0xfca>)
 1000f3c:	6013      	str	r3, [r2, #0]
 1000f3e:	4b2c      	ldr	r3, [pc, #176]	; (1000ff0 <.LCFI85+0xfca>)
 1000f40:	681b      	ldr	r3, [r3, #0]
 1000f42:	3301      	adds	r3, #1
 1000f44:	4a2a      	ldr	r2, [pc, #168]	; (1000ff0 <.LCFI85+0xfca>)
 1000f46:	6013      	str	r3, [r2, #0]
 1000f48:	4b29      	ldr	r3, [pc, #164]	; (1000ff0 <.LCFI85+0xfca>)
 1000f4a:	681b      	ldr	r3, [r3, #0]
 1000f4c:	3301      	adds	r3, #1
 1000f4e:	4a28      	ldr	r2, [pc, #160]	; (1000ff0 <.LCFI85+0xfca>)
 1000f50:	6013      	str	r3, [r2, #0]
 1000f52:	4b27      	ldr	r3, [pc, #156]	; (1000ff0 <.LCFI85+0xfca>)
 1000f54:	681b      	ldr	r3, [r3, #0]
 1000f56:	3301      	adds	r3, #1
 1000f58:	4a25      	ldr	r2, [pc, #148]	; (1000ff0 <.LCFI85+0xfca>)
 1000f5a:	6013      	str	r3, [r2, #0]
 1000f5c:	4b24      	ldr	r3, [pc, #144]	; (1000ff0 <.LCFI85+0xfca>)
 1000f5e:	681b      	ldr	r3, [r3, #0]
 1000f60:	3301      	adds	r3, #1
 1000f62:	4a23      	ldr	r2, [pc, #140]	; (1000ff0 <.LCFI85+0xfca>)
 1000f64:	6013      	str	r3, [r2, #0]
 1000f66:	4b22      	ldr	r3, [pc, #136]	; (1000ff0 <.LCFI85+0xfca>)
 1000f68:	681b      	ldr	r3, [r3, #0]
 1000f6a:	3301      	adds	r3, #1
 1000f6c:	4a20      	ldr	r2, [pc, #128]	; (1000ff0 <.LCFI85+0xfca>)
 1000f6e:	6013      	str	r3, [r2, #0]
 1000f70:	4b1f      	ldr	r3, [pc, #124]	; (1000ff0 <.LCFI85+0xfca>)
 1000f72:	681b      	ldr	r3, [r3, #0]
 1000f74:	3301      	adds	r3, #1
 1000f76:	4a1e      	ldr	r2, [pc, #120]	; (1000ff0 <.LCFI85+0xfca>)
 1000f78:	6013      	str	r3, [r2, #0]
 1000f7a:	4b1d      	ldr	r3, [pc, #116]	; (1000ff0 <.LCFI85+0xfca>)
 1000f7c:	681b      	ldr	r3, [r3, #0]
 1000f7e:	3301      	adds	r3, #1
 1000f80:	4a1b      	ldr	r2, [pc, #108]	; (1000ff0 <.LCFI85+0xfca>)
 1000f82:	6013      	str	r3, [r2, #0]
 1000f84:	4b1a      	ldr	r3, [pc, #104]	; (1000ff0 <.LCFI85+0xfca>)
 1000f86:	681b      	ldr	r3, [r3, #0]
 1000f88:	3301      	adds	r3, #1
 1000f8a:	4a19      	ldr	r2, [pc, #100]	; (1000ff0 <.LCFI85+0xfca>)
 1000f8c:	6013      	str	r3, [r2, #0]
 1000f8e:	4b18      	ldr	r3, [pc, #96]	; (1000ff0 <.LCFI85+0xfca>)
 1000f90:	681b      	ldr	r3, [r3, #0]
 1000f92:	3301      	adds	r3, #1
 1000f94:	4a16      	ldr	r2, [pc, #88]	; (1000ff0 <.LCFI85+0xfca>)
 1000f96:	6013      	str	r3, [r2, #0]
 1000f98:	4b15      	ldr	r3, [pc, #84]	; (1000ff0 <.LCFI85+0xfca>)
 1000f9a:	681b      	ldr	r3, [r3, #0]
 1000f9c:	3301      	adds	r3, #1
 1000f9e:	4a14      	ldr	r2, [pc, #80]	; (1000ff0 <.LCFI85+0xfca>)
 1000fa0:	6013      	str	r3, [r2, #0]
 1000fa2:	4b13      	ldr	r3, [pc, #76]	; (1000ff0 <.LCFI85+0xfca>)
 1000fa4:	681b      	ldr	r3, [r3, #0]
 1000fa6:	3301      	adds	r3, #1
 1000fa8:	4a11      	ldr	r2, [pc, #68]	; (1000ff0 <.LCFI85+0xfca>)
 1000faa:	6013      	str	r3, [r2, #0]
 1000fac:	4b10      	ldr	r3, [pc, #64]	; (1000ff0 <.LCFI85+0xfca>)
 1000fae:	681b      	ldr	r3, [r3, #0]
 1000fb0:	3301      	adds	r3, #1
 1000fb2:	4a0f      	ldr	r2, [pc, #60]	; (1000ff0 <.LCFI85+0xfca>)
 1000fb4:	6013      	str	r3, [r2, #0]
 1000fb6:	4b0e      	ldr	r3, [pc, #56]	; (1000ff0 <.LCFI85+0xfca>)
 1000fb8:	681b      	ldr	r3, [r3, #0]
 1000fba:	3301      	adds	r3, #1
 1000fbc:	4a0c      	ldr	r2, [pc, #48]	; (1000ff0 <.LCFI85+0xfca>)
 1000fbe:	6013      	str	r3, [r2, #0]
 1000fc0:	4b0b      	ldr	r3, [pc, #44]	; (1000ff0 <.LCFI85+0xfca>)
 1000fc2:	681b      	ldr	r3, [r3, #0]
 1000fc4:	3301      	adds	r3, #1
 1000fc6:	4a0a      	ldr	r2, [pc, #40]	; (1000ff0 <.LCFI85+0xfca>)
 1000fc8:	6013      	str	r3, [r2, #0]
 1000fca:	4b0a      	ldr	r3, [pc, #40]	; (1000ff4 <.LCFI85+0xfce>)
 1000fcc:	f503 53b1 	add.w	r3, r3, #5664	; 0x1620
 1000fd0:	3308      	adds	r3, #8
 1000fd2:	881a      	ldrh	r2, [r3, #0]
 1000fd4:	f042 0204 	orr.w	r2, r2, #4
 1000fd8:	801a      	strh	r2, [r3, #0]
 1000fda:	4b06      	ldr	r3, [pc, #24]	; (1000ff4 <.LCFI85+0xfce>)
 1000fdc:	f030 fa8c 	bl	10314f8 <__pa_fn_0_181_01_0>
 1000fe0:	801a      	strh	r2, [r3, #0]
 1000fe2:	4b04      	ldr	r3, [pc, #16]	; (1000ff4 <.LCFI85+0xfce>)
 1000fe4:	f031 fa57 	bl	1032496 <__pa_fn_0_1c8_01_0>
 1000fe8:	f36f 0282 	bfc	r2, #2, #1
 1000fec:	601a      	str	r2, [r3, #0]
 1000fee:	e003      	b.n	1000ff8 <.LCFI85+0xfd2>
 1000ff0:	2000b5d4 	.word	0x2000b5d4
 1000ff4:	41012400 	.word	0x41012400
 1000ff8:	4b0b      	ldr	r3, [pc, #44]	; (1001028 <.LCFI85+0x1002>)
 1000ffa:	f031 fa4c 	bl	1032496 <__pa_fn_0_1c8_01_0>
 1000ffe:	f36f 02c3 	bfc	r2, #3, #1
 1001002:	601a      	str	r2, [r3, #0]
 1001004:	4b08      	ldr	r3, [pc, #32]	; (1001028 <.LCFI85+0x1002>)
 1001006:	f031 fa46 	bl	1032496 <__pa_fn_0_1c8_01_0>
 100100a:	f36f 0200 	bfc	r2, #0, #1
 100100e:	601a      	str	r2, [r3, #0]
 1001010:	4b05      	ldr	r3, [pc, #20]	; (1001028 <.LCFI85+0x1002>)
 1001012:	f031 fa40 	bl	1032496 <__pa_fn_0_1c8_01_0>
 1001016:	f36f 1245 	bfc	r2, #5, #1
 100101a:	601a      	str	r2, [r3, #0]
 100101c:	f01a fbb6 	bl	101b78c <_LE_DTM_ImmediatelyRxUndo>
 1001020:	2300      	movs	r3, #0
 1001022:	f031 bd24 	b.w	1032a6e <__pa_fn_0_112_11_0>
 1001026:	bf00      	nop
 1001028:	41012400 	.word	0x41012400

Disassembly of section .text.HCI_EVT_handler%87:

0100102c <HCI_EVT_handler>:
 100102c:	b580      	push	{r7, lr}

0100102e <.LCFI0>:
 100102e:	Address 0x0100102e is out of bounds.


01001030 <.LCFI1>:
 1001030:	Address 0x01001030 is out of bounds.


01001032 <.LCFI2>:
 1001032:	74fb      	strb	r3, [r7, #19]
 1001034:	687b      	ldr	r3, [r7, #4]
 1001036:	881b      	ldrh	r3, [r3, #0]
 1001038:	f241 020a 	movw	r2, #4106	; 0x100a
 100103c:	4293      	cmp	r3, r2
 100103e:	d005      	beq.n	100104c <.LCFI87+0x4>
 1001040:	687b      	ldr	r3, [r7, #4]
 1001042:	881b      	ldrh	r3, [r3, #0]
 1001044:	f241 0201 	movw	r2, #4097	; 0x1001
 1001048:	4293      	cmp	r3, r2
 100104a:	d119      	bne.n	1001080 <.LFE173+0x30>
 100104c:	4b99      	ldr	r3, [pc, #612]	; (10012b4 <.LBE2+0x162>)
 100104e:	785b      	ldrb	r3, [r3, #1]
 1001050:	f003 0302 	and.w	r3, r3, #2
 1001054:	b2db      	uxtb	r3, r3
 1001056:	2b00      	cmp	r3, #0
 1001058:	d002      	beq.n	1001060 <.LFE173+0x10>
 100105a:	2301      	movs	r3, #1
 100105c:	74fb      	strb	r3, [r7, #19]
 100105e:	e064      	b.n	100112a <.LBB4+0x12>
 1001060:	4b94      	ldr	r3, [pc, #592]	; (10012b4 <.LBE2+0x162>)
 1001062:	785b      	ldrb	r3, [r3, #1]
 1001064:	f003 0302 	and.w	r3, r3, #2
 1001068:	b2db      	uxtb	r3, r3
 100106a:	2b00      	cmp	r3, #0
 100106c:	d15d      	bne.n	100112a <.LBB4+0x12>
 100106e:	4b91      	ldr	r3, [pc, #580]	; (10012b4 <.LBE2+0x162>)
 1001070:	781b      	ldrb	r3, [r3, #0]
 1001072:	f003 0301 	and.w	r3, r3, #1
 1001076:	b2db      	uxtb	r3, r3
 1001078:	2b00      	cmp	r3, #0
 100107a:	d156      	bne.n	100112a <.LBB4+0x12>
 100107c:	f000 bcbc 	b.w	10019f8 <.LBE6+0x4a8>
 1001080:	687b      	ldr	r3, [r7, #4]
 1001082:	881b      	ldrh	r3, [r3, #0]
 1001084:	f241 02ef 	movw	r2, #4335	; 0x10ef
 1001088:	4293      	cmp	r3, r2
 100108a:	d84f      	bhi.n	100112c <.LBB4+0x14>
 100108c:	687b      	ldr	r3, [r7, #4]
 100108e:	881b      	ldrh	r3, [r3, #0]
 1001090:	73fb      	strb	r3, [r7, #15]
 1001092:	7bfb      	ldrb	r3, [r7, #15]

01001094 <.LBB2>:
 1001094:	3b01      	subs	r3, #1
 1001096:	73fb      	strb	r3, [r7, #15]
 1001098:	687b      	ldr	r3, [r7, #4]
 100109a:	881b      	ldrh	r3, [r3, #0]
 100109c:	f403 5380 	and.w	r3, r3, #4096	; 0x1000
 10010a0:	2b00      	cmp	r3, #0
 10010a2:	dd1a      	ble.n	10010da <.LBB2+0x46>
 10010a4:	4b84      	ldr	r3, [pc, #528]	; (10012b8 <.LBE2+0x166>)
 10010a6:	79db      	ldrb	r3, [r3, #7]
 10010a8:	f003 0320 	and.w	r3, r3, #32
 10010ac:	b2db      	uxtb	r3, r3
 10010ae:	2b00      	cmp	r3, #0
 10010b0:	f000 84a1 	beq.w	10019f6 <.LBE6+0x4a6>
 10010b4:	7bfb      	ldrb	r3, [r7, #15]
 10010b6:	08db      	lsrs	r3, r3, #3
 10010b8:	b2db      	uxtb	r3, r3
 10010ba:	461a      	mov	r2, r3
 10010bc:	4b7d      	ldr	r3, [pc, #500]	; (10012b4 <.LBE2+0x162>)
 10010be:	f030 fb09 	bl	10316d4 <__pa_fn_0_1f4_01_0>
 10010c2:	d133      	bne.n	100112c <.LBB4+0x14>
 10010c4:	2300      	movs	r3, #0
 10010c6:	74bb      	strb	r3, [r7, #18]
 10010c8:	e002      	b.n	10010d0 <.LBB2+0x3c>
 10010ca:	7cbb      	ldrb	r3, [r7, #18]
 10010cc:	3301      	adds	r3, #1
 10010ce:	74bb      	strb	r3, [r7, #18]
 10010d0:	7cbb      	ldrb	r3, [r7, #18]
 10010d2:	2b07      	cmp	r3, #7
 10010d4:	d9f9      	bls.n	10010ca <.LBB2+0x36>
 10010d6:	f000 bc8f 	b.w	10019f8 <.LBE6+0x4a8>
 10010da:	7bfb      	ldrb	r3, [r7, #15]

010010dc <.LBB3>:
 10010dc:	2b3f      	cmp	r3, #63	; 0x3f
 10010de:	d812      	bhi.n	1001106 <.LBE3+0x14>
 10010e0:	7bfb      	ldrb	r3, [r7, #15]
 10010e2:	08db      	lsrs	r3, r3, #3
 10010e4:	b2db      	uxtb	r3, r3
 10010e6:	461a      	mov	r2, r3
 10010e8:	4b73      	ldr	r3, [pc, #460]	; (10012b8 <.LBE2+0x166>)
 10010ea:	f030 faf3 	bl	10316d4 <__pa_fn_0_1f4_01_0>
 10010ee:	d11d      	bne.n	100112c <.LBB4+0x14>
 10010f0:	2300      	movs	r3, #0

010010f2 <.LBE3>:
 10010f2:	747b      	strb	r3, [r7, #17]
 10010f4:	e002      	b.n	10010fc <.LBE3+0xa>
 10010f6:	7c7b      	ldrb	r3, [r7, #17]
 10010f8:	3301      	adds	r3, #1
 10010fa:	747b      	strb	r3, [r7, #17]
 10010fc:	7c7b      	ldrb	r3, [r7, #17]
 10010fe:	2b07      	cmp	r3, #7
 1001100:	d9f9      	bls.n	10010f6 <.LBE3+0x4>
 1001102:	f000 bc79 	b.w	10019f8 <.LBE6+0x4a8>
 1001106:	4b6d      	ldr	r3, [pc, #436]	; (10012bc <.LBE2+0x16a>)
 1001108:	789b      	ldrb	r3, [r3, #2]
 100110a:	f023 037f 	bic.w	r3, r3, #127	; 0x7f
 100110e:	b2db      	uxtb	r3, r3
 1001110:	2b00      	cmp	r3, #0
 1001112:	d10b      	bne.n	100112c <.LBB4+0x14>
 1001114:	2300      	movs	r3, #0
 1001116:	743b      	strb	r3, [r7, #16]

01001118 <.LBB4>:
 1001118:	e002      	b.n	1001120 <.LBB4+0x8>
 100111a:	7c3b      	ldrb	r3, [r7, #16]
 100111c:	3301      	adds	r3, #1
 100111e:	743b      	strb	r3, [r7, #16]
 1001120:	7c3b      	ldrb	r3, [r7, #16]
 1001122:	2b07      	cmp	r3, #7
 1001124:	d9f9      	bls.n	100111a <.LBB4+0x2>
 1001126:	f000 bc67 	b.w	10019f8 <.LBE6+0x4a8>
 100112a:	bf00      	nop
 100112c:	687b      	ldr	r3, [r7, #4]

0100112e <.LBE4>:
 100112e:	881b      	ldrh	r3, [r3, #0]
 1001130:	f241 0207 	movw	r2, #4103	; 0x1007
 1001134:	4293      	cmp	r3, r2
 1001136:	f000 81e7 	beq.w	1001508 <.LBB6+0x58>
 100113a:	Address 0x0100113a is out of bounds.


0100113c <.LBB5>:
 100113c:	0207      	lsls	r7, r0, #8
 100113e:	4293      	cmp	r3, r2
 1001140:	dc38      	bgt.n	10011b4 <.LBE2+0x62>
 1001142:	2b57      	cmp	r3, #87	; 0x57
 1001144:	f000 80ee 	beq.w	1001324 <.LBE2+0x1d2>
 1001148:	2b57      	cmp	r3, #87	; 0x57
 100114a:	dc13      	bgt.n	1001174 <.LBE2+0x22>
 100114c:	2b0c      	cmp	r3, #12
 100114e:	f000 80b7 	beq.w	10012c0 <.LBE2+0x16e>

01001152 <.LBE2>:
 1001152:	2b0c      	cmp	r3, #12
 1001154:	dc06      	bgt.n	1001164 <.LBE2+0x12>
 1001156:	2b05      	cmp	r3, #5
 1001158:	d07a      	beq.n	1001250 <.LBE2+0xfe>
 100115a:	2b08      	cmp	r3, #8
 100115c:	f000 809c 	beq.w	1001298 <.LBE2+0x146>
 1001160:	f000 bc42 	b.w	10019e8 <.LBE6+0x498>
 1001164:	2b13      	cmp	r3, #19
 1001166:	f000 8081 	beq.w	100126c <.LBE2+0x11a>
 100116a:	2b30      	cmp	r3, #48	; 0x30
 100116c:	f000 80c2 	beq.w	10012f4 <.LBE2+0x1a2>
 1001170:	f000 bc3a 	b.w	10019e8 <.LBE6+0x498>
 1001174:	f241 0203 	movw	r2, #4099	; 0x1003
 1001178:	4293      	cmp	r3, r2
 100117a:	f000 813b 	beq.w	10013f4 <.LBE2+0x2a2>
 100117e:	f241 0203 	movw	r2, #4099	; 0x1003
 1001182:	4293      	cmp	r3, r2
 1001184:	dc0b      	bgt.n	100119e <.LBE2+0x4c>
 1001186:	f241 0201 	movw	r2, #4097	; 0x1001
 100118a:	4293      	cmp	r3, r2
 100118c:	f000 80de 	beq.w	100134c <.LBE2+0x1fa>
 1001190:	f241 0202 	movw	r2, #4098	; 0x1002
 1001194:	4293      	cmp	r3, r2
 1001196:	f000 80f9 	beq.w	100138c <.LBE2+0x23a>
 100119a:	f000 bc25 	b.w	10019e8 <.LBE6+0x498>
 100119e:	f241 0205 	movw	r2, #4101	; 0x1005
 10011a2:	4293      	cmp	r3, r2
 10011a4:	f000 8181 	beq.w	10014aa <.LBE2+0x358>
 10011a8:	f241 0205 	movw	r2, #4101	; 0x1005
 10011ac:	4293      	cmp	r3, r2
 10011ae:	f300 819f 	bgt.w	10014f0 <.LBB6+0x40>
 10011b2:	e154      	b.n	100145e <.LBE2+0x30c>
 10011b4:	f241 0210 	movw	r2, #4112	; 0x1010
 10011b8:	4293      	cmp	r3, r2
 10011ba:	f000 833f 	beq.w	100183c <.LBE6+0x2ec>
 10011be:	f241 0210 	movw	r2, #4112	; 0x1010
 10011c2:	4293      	cmp	r3, r2
 10011c4:	dc1f      	bgt.n	1001206 <.LBE2+0xb4>
 10011c6:	f241 020c 	movw	r2, #4108	; 0x100c
 10011ca:	4293      	cmp	r3, r2
 10011cc:	f000 823e 	beq.w	100164c <.LBE6+0xfc>
 10011d0:	f241 020c 	movw	r2, #4108	; 0x100c
 10011d4:	4293      	cmp	r3, r2
 10011d6:	dc0b      	bgt.n	10011f0 <.LBE2+0x9e>
 10011d8:	f241 020a 	movw	r2, #4106	; 0x100a
 10011dc:	4293      	cmp	r3, r2
 10011de:	f000 819f 	beq.w	1001520 <.LBB6+0x70>
 10011e2:	f241 020b 	movw	r2, #4107	; 0x100b
 10011e6:	4293      	cmp	r3, r2
 10011e8:	f000 8207 	beq.w	10015fa <.LBE6+0xaa>
 10011ec:	f000 bbfc 	b.w	10019e8 <.LBE6+0x498>
 10011f0:	f241 020e 	movw	r2, #4110	; 0x100e
 10011f4:	4293      	cmp	r3, r2
 10011f6:	f000 82b9 	beq.w	100176c <.LBE6+0x21c>
 10011fa:	f241 020e 	movw	r2, #4110	; 0x100e
 10011fe:	4293      	cmp	r3, r2
 1001200:	f300 82d3 	bgt.w	10017aa <.LBE6+0x25a>
 1001204:	e246      	b.n	1001694 <.LBE6+0x144>
 1001206:	f241 0213 	movw	r2, #4115	; 0x1013
 100120a:	4293      	cmp	r3, r2
 100120c:	f000 835c 	beq.w	10018c8 <.LBE6+0x378>
 1001210:	f241 0213 	movw	r2, #4115	; 0x1013
 1001214:	4293      	cmp	r3, r2
 1001216:	dc0b      	bgt.n	1001230 <.LBE2+0xde>
 1001218:	f241 0211 	movw	r2, #4113	; 0x1011
 100121c:	4293      	cmp	r3, r2
 100121e:	f000 8327 	beq.w	1001870 <.LBE6+0x320>
 1001222:	f241 0212 	movw	r2, #4114	; 0x1012
 1001226:	4293      	cmp	r3, r2
 1001228:	f000 8334 	beq.w	1001894 <.LBE6+0x344>
 100122c:	f000 bbdc 	b.w	10019e8 <.LBE6+0x498>
 1001230:	f5b3 5f81 	cmp.w	r3, #4128	; 0x1020
 1001234:	f000 8371 	beq.w	100191a <.LBE6+0x3ca>
 1001238:	f241 0221 	movw	r2, #4129	; 0x1021
 100123c:	4293      	cmp	r3, r2
 100123e:	f000 8388 	beq.w	1001952 <.LBE6+0x402>
 1001242:	f241 0214 	movw	r2, #4116	; 0x1014
 1001246:	4293      	cmp	r3, r2
 1001248:	f000 8353 	beq.w	10018f2 <.LBE6+0x3a2>
 100124c:	f000 bbcc 	b.w	10019e8 <.LBE6+0x498>
 1001250:	2104      	movs	r1, #4
 1001252:	2004      	movs	r0, #4
 1001254:	f01c ff1a 	bl	101e08c <HCI_TxMalloc>
 1001258:	6178      	str	r0, [r7, #20]
 100125a:	697b      	ldr	r3, [r7, #20]
 100125c:	2205      	movs	r2, #5
 100125e:	811a      	strh	r2, [r3, #8]
 1001260:	697b      	ldr	r3, [r7, #20]
 1001262:	2204      	movs	r2, #4
 1001264:	f02f f935 	bl	10304d2 <__pa_fn_0_166_01_0>
 1001268:	f000 bbbe 	b.w	10019e8 <.LBE6+0x498>
 100126c:	2104      	movs	r1, #4
 100126e:	2005      	movs	r0, #5
 1001270:	f01c ff0c 	bl	101e08c <HCI_TxMalloc>
 1001274:	6178      	str	r0, [r7, #20]
 1001276:	697b      	ldr	r3, [r7, #20]
 1001278:	2213      	movs	r2, #19
 100127a:	811a      	strh	r2, [r3, #8]
 100127c:	697b      	ldr	r3, [r7, #20]
 100127e:	2205      	movs	r2, #5
 1001280:	729a      	strb	r2, [r3, #10]
 1001282:	b500      	push	{lr}
 1001284:	f02c fa7a 	bl	102d77c <__pa_fn_1_1b_00_0>
 1001288:	f85d eb04 	ldr.w	lr, [sp], #4
 100128c:	3208      	adds	r2, #8
 100128e:	8812      	ldrh	r2, [r2, #0]
 1001290:	b292      	uxth	r2, r2
 1001292:	801a      	strh	r2, [r3, #0]
 1001294:	f000 bba8 	b.w	10019e8 <.LBE6+0x498>
 1001298:	2104      	movs	r1, #4
 100129a:	2004      	movs	r0, #4
 100129c:	f01c fef6 	bl	101e08c <HCI_TxMalloc>
 10012a0:	6178      	str	r0, [r7, #20]
 10012a2:	697b      	ldr	r3, [r7, #20]
 10012a4:	2208      	movs	r2, #8
 10012a6:	811a      	strh	r2, [r3, #8]
 10012a8:	697b      	ldr	r3, [r7, #20]
 10012aa:	2204      	movs	r2, #4
 10012ac:	f02f f911 	bl	10304d2 <__pa_fn_0_166_01_0>
 10012b0:	f000 bb9a 	b.w	10019e8 <.LBE6+0x498>
 10012b4:	20000418 	.word	0x20000418
 10012b8:	20000420 	.word	0x20000420
 10012bc:	20000410 	.word	0x20000410
 10012c0:	2104      	movs	r1, #4
 10012c2:	2008      	movs	r0, #8
 10012c4:	f01c fee2 	bl	101e08c <HCI_TxMalloc>
 10012c8:	6178      	str	r0, [r7, #20]
 10012ca:	697b      	ldr	r3, [r7, #20]
 10012cc:	220c      	movs	r2, #12
 10012ce:	811a      	strh	r2, [r3, #8]
 10012d0:	697b      	ldr	r3, [r7, #20]
 10012d2:	2208      	movs	r2, #8
 10012d4:	f02f f8fd 	bl	10304d2 <__pa_fn_0_166_01_0>
 10012d8:	f030 ffde 	bl	1032298 <__pa_fn_0_121_01_0>
 10012dc:	3209      	adds	r2, #9
 10012de:	8812      	ldrh	r2, [r2, #0]
 10012e0:	f031 fab9 	bl	1032856 <__pa_fn_0_2ee_01_0>
 10012e4:	3306      	adds	r3, #6
 10012e6:	687a      	ldr	r2, [r7, #4]
 10012e8:	320b      	adds	r2, #11
 10012ea:	8812      	ldrh	r2, [r2, #0]
 10012ec:	b292      	uxth	r2, r2
 10012ee:	801a      	strh	r2, [r3, #0]
 10012f0:	f000 bb7a 	b.w	10019e8 <.LBE6+0x498>
 10012f4:	2104      	movs	r1, #4
 10012f6:	2003      	movs	r0, #3
 10012f8:	f01c fec8 	bl	101e08c <HCI_TxMalloc>
 10012fc:	6178      	str	r0, [r7, #20]
 10012fe:	697b      	ldr	r3, [r7, #20]
 1001300:	2230      	movs	r2, #48	; 0x30
 1001302:	811a      	strh	r2, [r3, #8]
 1001304:	697b      	ldr	r3, [r7, #20]
 1001306:	2203      	movs	r2, #3
 1001308:	729a      	strb	r2, [r3, #10]
 100130a:	697b      	ldr	r3, [r7, #20]
 100130c:	68db      	ldr	r3, [r3, #12]
 100130e:	687a      	ldr	r2, [r7, #4]
 1001310:	7912      	ldrb	r2, [r2, #4]
 1001312:	701a      	strb	r2, [r3, #0]
 1001314:	f030 ffbb 	bl	103228e <__pa_fn_0_120_01_0>
 1001318:	3206      	adds	r2, #6
 100131a:	8812      	ldrh	r2, [r2, #0]
 100131c:	b292      	uxth	r2, r2
 100131e:	801a      	strh	r2, [r3, #0]
 1001320:	f000 bb62 	b.w	10019e8 <.LBE6+0x498>
 1001324:	2104      	movs	r1, #4
 1001326:	2002      	movs	r0, #2
 1001328:	f01c feb0 	bl	101e08c <HCI_TxMalloc>
 100132c:	6178      	str	r0, [r7, #20]
 100132e:	697b      	ldr	r3, [r7, #20]
 1001330:	2257      	movs	r2, #87	; 0x57
 1001332:	811a      	strh	r2, [r3, #8]
 1001334:	697b      	ldr	r3, [r7, #20]
 1001336:	2202      	movs	r2, #2
 1001338:	729a      	strb	r2, [r3, #10]
 100133a:	697b      	ldr	r3, [r7, #20]
 100133c:	68db      	ldr	r3, [r3, #12]
 100133e:	687a      	ldr	r2, [r7, #4]
 1001340:	3204      	adds	r2, #4
 1001342:	8812      	ldrh	r2, [r2, #0]
 1001344:	b292      	uxth	r2, r2
 1001346:	801a      	strh	r2, [r3, #0]
 1001348:	f000 bb4e 	b.w	10019e8 <.LBE6+0x498>
 100134c:	2104      	movs	r1, #4
 100134e:	2013      	movs	r0, #19
 1001350:	f01c fe9c 	bl	101e08c <HCI_TxMalloc>
 1001354:	6178      	str	r0, [r7, #20]
 1001356:	697b      	ldr	r3, [r7, #20]
 1001358:	2b00      	cmp	r3, #0
 100135a:	f000 832c 	beq.w	10019b6 <.LBE6+0x466>
 100135e:	697b      	ldr	r3, [r7, #20]
 1001360:	f02e fb20 	bl	102f9a4 <__pa_fn_0_132_01_0>
 1001364:	f02e fc73 	bl	102fc4e <memcpy>
 1001368:	697b      	ldr	r3, [r7, #20]
 100136a:	68db      	ldr	r3, [r3, #12]
 100136c:	330c      	adds	r3, #12
 100136e:	687a      	ldr	r2, [r7, #4]
 1001370:	3210      	adds	r2, #16
 1001372:	8812      	ldrh	r2, [r2, #0]
 1001374:	f031 fa6f 	bl	1032856 <__pa_fn_0_2ee_01_0>
 1001378:	330e      	adds	r3, #14
 100137a:	687a      	ldr	r2, [r7, #4]
 100137c:	3212      	adds	r2, #18
 100137e:	8812      	ldrh	r2, [r2, #0]
 1001380:	b292      	uxth	r2, r2
 1001382:	801a      	strh	r2, [r3, #0]
 1001384:	f02d f98c 	bl	102e6a0 <__pa_fn_0_123_01_0>
 1001388:	f000 bb15 	b.w	10019b6 <.LBE6+0x466>
 100138c:	687b      	ldr	r3, [r7, #4]
 100138e:	7b5b      	ldrb	r3, [r3, #13]
 1001390:	73bb      	strb	r3, [r7, #14]
 1001392:	7bbb      	ldrb	r3, [r7, #14]
 1001394:	b29b      	uxth	r3, r3
 1001396:	330c      	adds	r3, #12
 1001398:	b29b      	uxth	r3, r3
 100139a:	2104      	movs	r1, #4
 100139c:	4618      	mov	r0, r3
 100139e:	f01c fe75 	bl	101e08c <HCI_TxMalloc>
 10013a2:	6178      	str	r0, [r7, #20]
 10013a4:	697b      	ldr	r3, [r7, #20]
 10013a6:	2b00      	cmp	r3, #0
 10013a8:	f000 8307 	beq.w	10019ba <.LBE6+0x46a>
 10013ac:	697b      	ldr	r3, [r7, #20]
 10013ae:	223e      	movs	r2, #62	; 0x3e
 10013b0:	811a      	strh	r2, [r3, #8]
 10013b2:	7bbb      	ldrb	r3, [r7, #14]
 10013b4:	330c      	adds	r3, #12
 10013b6:	b2da      	uxtb	r2, r3
 10013b8:	f031 fbde 	bl	1032b78 <__pa_fn_0_145_01_0>
 10013bc:	2202      	movs	r2, #2
 10013be:	f029 fae0 	bl	102a982 <__pa_fn_0_1e1_01_0>
 10013c2:	f02e fc44 	bl	102fc4e <memcpy>
 10013c6:	697b      	ldr	r3, [r7, #20]
 10013c8:	68db      	ldr	r3, [r3, #12]
 10013ca:	330a      	adds	r3, #10
 10013cc:	7bba      	ldrb	r2, [r7, #14]
 10013ce:	f030 f942 	bl	1031656 <__pa_fn_0_1e3_01_0>
 10013d2:	691b      	ldr	r3, [r3, #16]
 10013d4:	7bba      	ldrb	r2, [r7, #14]
 10013d6:	4619      	mov	r1, r3
 10013d8:	f02e fc39 	bl	102fc4e <memcpy>
 10013dc:	697b      	ldr	r3, [r7, #20]
 10013de:	68db      	ldr	r3, [r3, #12]
 10013e0:	7bba      	ldrb	r2, [r7, #14]
 10013e2:	320b      	adds	r2, #11
 10013e4:	4413      	add	r3, r2
 10013e6:	687a      	ldr	r2, [r7, #4]
 10013e8:	f992 2014 	ldrsb.w	r2, [r2, #20]
 10013ec:	b2d2      	uxtb	r2, r2
 10013ee:	701a      	strb	r2, [r3, #0]
 10013f0:	f000 bae3 	b.w	10019ba <.LBE6+0x46a>
 10013f4:	2104      	movs	r1, #4
 10013f6:	200a      	movs	r0, #10
 10013f8:	f01c fe48 	bl	101e08c <HCI_TxMalloc>
 10013fc:	6178      	str	r0, [r7, #20]
 10013fe:	f030 ff64 	bl	10322ca <__pa_fn_0_135_01_0>
 1001402:	220a      	movs	r2, #10
 1001404:	729a      	strb	r2, [r3, #10]
 1001406:	697b      	ldr	r3, [r7, #20]
 1001408:	68db      	ldr	r3, [r3, #12]
 100140a:	2203      	movs	r2, #3
 100140c:	701a      	strb	r2, [r3, #0]
 100140e:	697b      	ldr	r3, [r7, #20]
 1001410:	68db      	ldr	r3, [r3, #12]
 1001412:	3301      	adds	r3, #1
 1001414:	687a      	ldr	r2, [r7, #4]
 1001416:	7912      	ldrb	r2, [r2, #4]
 1001418:	701a      	strb	r2, [r3, #0]
 100141a:	697b      	ldr	r3, [r7, #20]
 100141c:	68db      	ldr	r3, [r3, #12]
 100141e:	3302      	adds	r3, #2
 1001420:	687a      	ldr	r2, [r7, #4]
 1001422:	3206      	adds	r2, #6
 1001424:	8812      	ldrh	r2, [r2, #0]
 1001426:	b292      	uxth	r2, r2
 1001428:	801a      	strh	r2, [r3, #0]
 100142a:	697b      	ldr	r3, [r7, #20]
 100142c:	68db      	ldr	r3, [r3, #12]
 100142e:	3304      	adds	r3, #4
 1001430:	687a      	ldr	r2, [r7, #4]
 1001432:	3208      	adds	r2, #8
 1001434:	8812      	ldrh	r2, [r2, #0]
 1001436:	b292      	uxth	r2, r2
 1001438:	801a      	strh	r2, [r3, #0]
 100143a:	697b      	ldr	r3, [r7, #20]
 100143c:	68db      	ldr	r3, [r3, #12]
 100143e:	3306      	adds	r3, #6
 1001440:	687a      	ldr	r2, [r7, #4]
 1001442:	320a      	adds	r2, #10
 1001444:	8812      	ldrh	r2, [r2, #0]
 1001446:	b292      	uxth	r2, r2
 1001448:	801a      	strh	r2, [r3, #0]
 100144a:	697b      	ldr	r3, [r7, #20]
 100144c:	68db      	ldr	r3, [r3, #12]
 100144e:	3308      	adds	r3, #8
 1001450:	687a      	ldr	r2, [r7, #4]
 1001452:	320c      	adds	r2, #12
 1001454:	8812      	ldrh	r2, [r2, #0]
 1001456:	b292      	uxth	r2, r2
 1001458:	801a      	strh	r2, [r3, #0]
 100145a:	f000 bac5 	b.w	10019e8 <.LBE6+0x498>
 100145e:	2104      	movs	r1, #4
 1001460:	200c      	movs	r0, #12
 1001462:	f01c fe13 	bl	101e08c <HCI_TxMalloc>
 1001466:	6178      	str	r0, [r7, #20]
 1001468:	f030 ff2f 	bl	10322ca <__pa_fn_0_135_01_0>
 100146c:	220c      	movs	r2, #12
 100146e:	729a      	strb	r2, [r3, #10]
 1001470:	697b      	ldr	r3, [r7, #20]
 1001472:	68db      	ldr	r3, [r3, #12]
 1001474:	2204      	movs	r2, #4
 1001476:	701a      	strb	r2, [r3, #0]
 1001478:	697b      	ldr	r3, [r7, #20]
 100147a:	68db      	ldr	r3, [r3, #12]
 100147c:	3301      	adds	r3, #1
 100147e:	687a      	ldr	r2, [r7, #4]
 1001480:	7912      	ldrb	r2, [r2, #4]
 1001482:	701a      	strb	r2, [r3, #0]
 1001484:	697b      	ldr	r3, [r7, #20]
 1001486:	68db      	ldr	r3, [r3, #12]
 1001488:	3302      	adds	r3, #2
 100148a:	687a      	ldr	r2, [r7, #4]
 100148c:	3206      	adds	r2, #6
 100148e:	8812      	ldrh	r2, [r2, #0]
 1001490:	b292      	uxth	r2, r2
 1001492:	801a      	strh	r2, [r3, #0]
 1001494:	697b      	ldr	r3, [r7, #20]
 1001496:	68db      	ldr	r3, [r3, #12]
 1001498:	1d18      	adds	r0, r3, #4
 100149a:	687b      	ldr	r3, [r7, #4]
 100149c:	3308      	adds	r3, #8
 100149e:	2208      	movs	r2, #8
 10014a0:	4619      	mov	r1, r3
 10014a2:	f02e fbd4 	bl	102fc4e <memcpy>
 10014a6:	f000 ba9f 	b.w	10019e8 <.LBE6+0x498>
 10014aa:	2104      	movs	r1, #4
 10014ac:	200d      	movs	r0, #13
 10014ae:	Address 0x010014ae is out of bounds.


010014b0 <.LBB6>:
 10014b0:	fded 6178 	stc2l	1, cr6, [sp, #480]!	; 0x1e0
 10014b4:	f030 ff09 	bl	10322ca <__pa_fn_0_135_01_0>
 10014b8:	220d      	movs	r2, #13
 10014ba:	729a      	strb	r2, [r3, #10]
 10014bc:	697b      	ldr	r3, [r7, #20]
 10014be:	68db      	ldr	r3, [r3, #12]
 10014c0:	2205      	movs	r2, #5
 10014c2:	701a      	strb	r2, [r3, #0]
 10014c4:	697b      	ldr	r3, [r7, #20]
 10014c6:	b500      	push	{lr}
 10014c8:	f02e fd66 	bl	102ff98 <__pa_fn_1_19_00_0>
 10014cc:	f85d eb04 	ldr.w	lr, [sp], #4
 10014d0:	1cd8      	adds	r0, r3, #3
 10014d2:	687b      	ldr	r3, [r7, #4]
 10014d4:	3306      	adds	r3, #6
 10014d6:	2208      	movs	r2, #8
 10014d8:	4619      	mov	r1, r3
 10014da:	f02e fbb8 	bl	102fc4e <memcpy>
 10014de:	697b      	ldr	r3, [r7, #20]
 10014e0:	68db      	ldr	r3, [r3, #12]
 10014e2:	330b      	adds	r3, #11
 10014e4:	687a      	ldr	r2, [r7, #4]
 10014e6:	320e      	adds	r2, #14
 10014e8:	8812      	ldrh	r2, [r2, #0]
 10014ea:	b292      	uxth	r2, r2
 10014ec:	801a      	strh	r2, [r3, #0]
 10014ee:	e27b      	b.n	10019e8 <.LBE6+0x498>
 10014f0:	2104      	movs	r1, #4
 10014f2:	200b      	movs	r0, #11
 10014f4:	f01c fdca 	bl	101e08c <HCI_TxMalloc>
 10014f8:	6178      	str	r0, [r7, #20]
 10014fa:	f02f ff9b 	bl	1031434 <__pa_fn_0_133_01_0>
 10014fe:	2206      	movs	r2, #6
 1001500:	701a      	strb	r2, [r3, #0]
 1001502:	f026 f9d4 	bl	10278ae <__pa_fn_0_1df_01_0>
 1001506:	e26f      	b.n	10019e8 <.LBE6+0x498>
 1001508:	2104      	movs	r1, #4
 100150a:	200b      	movs	r0, #11
 100150c:	f01c fdbe 	bl	101e08c <HCI_TxMalloc>
 1001510:	6178      	str	r0, [r7, #20]
 1001512:	f02f ff8f 	bl	1031434 <__pa_fn_0_133_01_0>
 1001516:	2207      	movs	r2, #7
 1001518:	701a      	strb	r2, [r3, #0]
 100151a:	f026 f9c8 	bl	10278ae <__pa_fn_0_1df_01_0>
 100151e:	e263      	b.n	10019e8 <.LBE6+0x498>
 1001520:	7cfb      	ldrb	r3, [r7, #19]
 1001522:	2b00      	cmp	r3, #0
 1001524:	d041      	beq.n	10015aa <.LBE6+0x5a>
 1001526:	2104      	movs	r1, #4
 1001528:	201f      	movs	r0, #31
 100152a:	f01c fdaf 	bl	101e08c <HCI_TxMalloc>
 100152e:	6178      	str	r0, [r7, #20]
 1001530:	697b      	ldr	r3, [r7, #20]
 1001532:	2b00      	cmp	r3, #0
 1001534:	f000 8243 	beq.w	10019be <.LBE6+0x46e>
 1001538:	f030 fec7 	bl	10322ca <__pa_fn_0_135_01_0>
 100153c:	221f      	movs	r2, #31
 100153e:	729a      	strb	r2, [r3, #10]
 1001540:	697b      	ldr	r3, [r7, #20]
 1001542:	68db      	ldr	r3, [r3, #12]
 1001544:	220a      	movs	r2, #10
 1001546:	f031 fb20 	bl	1032b8a <__pa_fn_0_1e2_01_0>
 100154a:	f02e fb80 	bl	102fc4e <memcpy>
 100154e:	697b      	ldr	r3, [r7, #20]

01001550 <.LBE6>:
 1001550:	68db      	ldr	r3, [r3, #12]
 1001552:	f103 000c 	add.w	r0, r3, #12
 1001556:	687b      	ldr	r3, [r7, #4]
 1001558:	3310      	adds	r3, #16
 100155a:	2206      	movs	r2, #6
 100155c:	4619      	mov	r1, r3
 100155e:	f02e fb76 	bl	102fc4e <memcpy>
 1001562:	697b      	ldr	r3, [r7, #20]
 1001564:	68db      	ldr	r3, [r3, #12]
 1001566:	f103 0012 	add.w	r0, r3, #18
 100156a:	687b      	ldr	r3, [r7, #4]
 100156c:	3316      	adds	r3, #22
 100156e:	2206      	movs	r2, #6
 1001570:	4619      	mov	r1, r3
 1001572:	f02e fb6c 	bl	102fc4e <memcpy>
 1001576:	697b      	ldr	r3, [r7, #20]
 1001578:	68db      	ldr	r3, [r3, #12]
 100157a:	3318      	adds	r3, #24
 100157c:	687a      	ldr	r2, [r7, #4]
 100157e:	321c      	adds	r2, #28
 1001580:	8812      	ldrh	r2, [r2, #0]
 1001582:	f031 f968 	bl	1032856 <__pa_fn_0_2ee_01_0>
 1001586:	331a      	adds	r3, #26
 1001588:	687a      	ldr	r2, [r7, #4]
 100158a:	321e      	adds	r2, #30
 100158c:	8812      	ldrh	r2, [r2, #0]
 100158e:	f031 f962 	bl	1032856 <__pa_fn_0_2ee_01_0>
 1001592:	331c      	adds	r3, #28
 1001594:	687a      	ldr	r2, [r7, #4]
 1001596:	3220      	adds	r2, #32
 1001598:	8812      	ldrh	r2, [r2, #0]
 100159a:	f031 f95c 	bl	1032856 <__pa_fn_0_2ee_01_0>
 100159e:	331e      	adds	r3, #30
 10015a0:	687a      	ldr	r2, [r7, #4]
 10015a2:	f892 2022 	ldrb.w	r2, [r2, #34]	; 0x22
 10015a6:	701a      	strb	r2, [r3, #0]
 10015a8:	e209      	b.n	10019be <.LBE6+0x46e>
 10015aa:	2104      	movs	r1, #4
 10015ac:	2013      	movs	r0, #19
 10015ae:	f01c fd6d 	bl	101e08c <HCI_TxMalloc>
 10015b2:	6178      	str	r0, [r7, #20]
 10015b4:	697b      	ldr	r3, [r7, #20]
 10015b6:	2b00      	cmp	r3, #0
 10015b8:	f000 8201 	beq.w	10019be <.LBE6+0x46e>
 10015bc:	697b      	ldr	r3, [r7, #20]
 10015be:	f02e f9f1 	bl	102f9a4 <__pa_fn_0_132_01_0>
 10015c2:	f02e fb44 	bl	102fc4e <memcpy>
 10015c6:	697b      	ldr	r3, [r7, #20]
 10015c8:	68db      	ldr	r3, [r3, #12]
 10015ca:	330c      	adds	r3, #12
 10015cc:	687a      	ldr	r2, [r7, #4]
 10015ce:	321c      	adds	r2, #28
 10015d0:	8812      	ldrh	r2, [r2, #0]
 10015d2:	f031 f940 	bl	1032856 <__pa_fn_0_2ee_01_0>
 10015d6:	330e      	adds	r3, #14
 10015d8:	687a      	ldr	r2, [r7, #4]
 10015da:	321e      	adds	r2, #30
 10015dc:	8812      	ldrh	r2, [r2, #0]
 10015de:	f031 f93a 	bl	1032856 <__pa_fn_0_2ee_01_0>
 10015e2:	3310      	adds	r3, #16
 10015e4:	687a      	ldr	r2, [r7, #4]
 10015e6:	3220      	adds	r2, #32
 10015e8:	8812      	ldrh	r2, [r2, #0]
 10015ea:	f031 f934 	bl	1032856 <__pa_fn_0_2ee_01_0>
 10015ee:	3312      	adds	r3, #18
 10015f0:	687a      	ldr	r2, [r7, #4]
 10015f2:	f892 2022 	ldrb.w	r2, [r2, #34]	; 0x22
 10015f6:	701a      	strb	r2, [r3, #0]
 10015f8:	e1e1      	b.n	10019be <.LBE6+0x46e>
 10015fa:	2104      	movs	r1, #4
 10015fc:	2012      	movs	r0, #18
 10015fe:	f01c fd45 	bl	101e08c <HCI_TxMalloc>
 1001602:	6178      	str	r0, [r7, #20]
 1001604:	697b      	ldr	r3, [r7, #20]
 1001606:	2b00      	cmp	r3, #0
 1001608:	f000 81db 	beq.w	10019c2 <.LBE6+0x472>
 100160c:	f030 fe5d 	bl	10322ca <__pa_fn_0_135_01_0>
 1001610:	2212      	movs	r2, #18
 1001612:	729a      	strb	r2, [r3, #10]
 1001614:	697b      	ldr	r3, [r7, #20]
 1001616:	68db      	ldr	r3, [r3, #12]
 1001618:	220b      	movs	r2, #11
 100161a:	f029 f9b2 	bl	102a982 <__pa_fn_0_1e1_01_0>
 100161e:	f02e fb16 	bl	102fc4e <memcpy>
 1001622:	697b      	ldr	r3, [r7, #20]
 1001624:	68db      	ldr	r3, [r3, #12]
 1001626:	330a      	adds	r3, #10
 1001628:	687a      	ldr	r2, [r7, #4]
 100162a:	7b52      	ldrb	r2, [r2, #13]
 100162c:	f030 f813 	bl	1031656 <__pa_fn_0_1e3_01_0>
 1001630:	330e      	adds	r3, #14
 1001632:	2206      	movs	r2, #6
 1001634:	4619      	mov	r1, r3
 1001636:	f02e fb0a 	bl	102fc4e <memcpy>
 100163a:	697b      	ldr	r3, [r7, #20]
 100163c:	68db      	ldr	r3, [r3, #12]
 100163e:	3311      	adds	r3, #17
 1001640:	687a      	ldr	r2, [r7, #4]
 1001642:	f992 2014 	ldrsb.w	r2, [r2, #20]
 1001646:	b2d2      	uxtb	r2, r2
 1001648:	701a      	strb	r2, [r3, #0]
 100164a:	e1ba      	b.n	10019c2 <.LBE6+0x472>
 100164c:	2104      	movs	r1, #4
 100164e:	2006      	movs	r0, #6
 1001650:	f01c fd1c 	bl	101e08c <HCI_TxMalloc>
 1001654:	6178      	str	r0, [r7, #20]
 1001656:	f02f fee6 	bl	1031426 <__pa_fn_0_131_01_0>
 100165a:	220c      	movs	r2, #12
 100165c:	701a      	strb	r2, [r3, #0]
 100165e:	697b      	ldr	r3, [r7, #20]
 1001660:	68db      	ldr	r3, [r3, #12]
 1001662:	3301      	adds	r3, #1
 1001664:	687a      	ldr	r2, [r7, #4]
 1001666:	7912      	ldrb	r2, [r2, #4]
 1001668:	701a      	strb	r2, [r3, #0]
 100166a:	697b      	ldr	r3, [r7, #20]
 100166c:	68db      	ldr	r3, [r3, #12]
 100166e:	3302      	adds	r3, #2
 1001670:	687a      	ldr	r2, [r7, #4]
 1001672:	3206      	adds	r2, #6
 1001674:	8812      	ldrh	r2, [r2, #0]
 1001676:	b292      	uxth	r2, r2
 1001678:	801a      	strh	r2, [r3, #0]
 100167a:	697b      	ldr	r3, [r7, #20]
 100167c:	68db      	ldr	r3, [r3, #12]
 100167e:	3304      	adds	r3, #4
 1001680:	687a      	ldr	r2, [r7, #4]
 1001682:	7a12      	ldrb	r2, [r2, #8]
 1001684:	701a      	strb	r2, [r3, #0]
 1001686:	697b      	ldr	r3, [r7, #20]
 1001688:	68db      	ldr	r3, [r3, #12]
 100168a:	3305      	adds	r3, #5
 100168c:	687a      	ldr	r2, [r7, #4]
 100168e:	7a52      	ldrb	r2, [r2, #9]
 1001690:	701a      	strb	r2, [r3, #0]
 1001692:	e1a9      	b.n	10019e8 <.LBE6+0x498>
 1001694:	687b      	ldr	r3, [r7, #4]
 1001696:	7f5b      	ldrb	r3, [r3, #29]
 1001698:	b29b      	uxth	r3, r3
 100169a:	331a      	adds	r3, #26
 100169c:	b29b      	uxth	r3, r3
 100169e:	2104      	movs	r1, #4
 10016a0:	4618      	mov	r0, r3
 10016a2:	f01c fcf3 	bl	101e08c <HCI_TxMalloc>
 10016a6:	6178      	str	r0, [r7, #20]
 10016a8:	697b      	ldr	r3, [r7, #20]
 10016aa:	2b00      	cmp	r3, #0
 10016ac:	f000 818b 	beq.w	10019c6 <.LBE6+0x476>
 10016b0:	697b      	ldr	r3, [r7, #20]
 10016b2:	223e      	movs	r2, #62	; 0x3e
 10016b4:	811a      	strh	r2, [r3, #8]
 10016b6:	687b      	ldr	r3, [r7, #4]
 10016b8:	7f5b      	ldrb	r3, [r3, #29]
 10016ba:	331a      	adds	r3, #26
 10016bc:	b2da      	uxtb	r2, r3
 10016be:	f031 fa5b 	bl	1032b78 <__pa_fn_0_145_01_0>
 10016c2:	220d      	movs	r2, #13
 10016c4:	701a      	strb	r2, [r3, #0]
 10016c6:	697b      	ldr	r3, [r7, #20]
 10016c8:	68db      	ldr	r3, [r3, #12]
 10016ca:	3301      	adds	r3, #1
 10016cc:	687a      	ldr	r2, [r7, #4]
 10016ce:	7912      	ldrb	r2, [r2, #4]
 10016d0:	701a      	strb	r2, [r3, #0]
 10016d2:	697b      	ldr	r3, [r7, #20]
 10016d4:	68db      	ldr	r3, [r3, #12]
 10016d6:	3302      	adds	r3, #2
 10016d8:	687a      	ldr	r2, [r7, #4]
 10016da:	3206      	adds	r2, #6
 10016dc:	8812      	ldrh	r2, [r2, #0]
 10016de:	b292      	uxth	r2, r2
 10016e0:	801a      	strh	r2, [r3, #0]
 10016e2:	697b      	ldr	r3, [r7, #20]
 10016e4:	68db      	ldr	r3, [r3, #12]
 10016e6:	3304      	adds	r3, #4
 10016e8:	687a      	ldr	r2, [r7, #4]
 10016ea:	7a12      	ldrb	r2, [r2, #8]
 10016ec:	701a      	strb	r2, [r3, #0]
 10016ee:	697b      	ldr	r3, [r7, #20]
 10016f0:	68db      	ldr	r3, [r3, #12]
 10016f2:	1d58      	adds	r0, r3, #5
 10016f4:	687b      	ldr	r3, [r7, #4]
 10016f6:	3309      	adds	r3, #9
 10016f8:	2206      	movs	r2, #6
 10016fa:	4619      	mov	r1, r3
 10016fc:	f02e faa7 	bl	102fc4e <memcpy>
 1001700:	697b      	ldr	r3, [r7, #20]
 1001702:	68db      	ldr	r3, [r3, #12]
 1001704:	330b      	adds	r3, #11
 1001706:	687a      	ldr	r2, [r7, #4]
 1001708:	7bd2      	ldrb	r2, [r2, #15]
 100170a:	701a      	strb	r2, [r3, #0]
 100170c:	f02e f929 	bl	102f962 <__pa_fn_0_122_01_0>
 1001710:	7c52      	ldrb	r2, [r2, #17]
 1001712:	701a      	strb	r2, [r3, #0]
 1001714:	697b      	ldr	r3, [r7, #20]
 1001716:	68db      	ldr	r3, [r3, #12]
 1001718:	330e      	adds	r3, #14
 100171a:	687a      	ldr	r2, [r7, #4]
 100171c:	7c92      	ldrb	r2, [r2, #18]
 100171e:	701a      	strb	r2, [r3, #0]
 1001720:	697b      	ldr	r3, [r7, #20]
 1001722:	68db      	ldr	r3, [r3, #12]
 1001724:	330f      	adds	r3, #15
 1001726:	687a      	ldr	r2, [r7, #4]
 1001728:	f992 2013 	ldrsb.w	r2, [r2, #19]
 100172c:	b2d2      	uxtb	r2, r2
 100172e:	701a      	strb	r2, [r3, #0]
 1001730:	f02c ffb6 	bl	102e6a0 <__pa_fn_0_123_01_0>
 1001734:	697b      	ldr	r3, [r7, #20]
 1001736:	68db      	ldr	r3, [r3, #12]
 1001738:	f103 0013 	add.w	r0, r3, #19
 100173c:	687b      	ldr	r3, [r7, #4]
 100173e:	3317      	adds	r3, #23
 1001740:	2206      	movs	r2, #6
 1001742:	4619      	mov	r1, r3
 1001744:	f02e fa83 	bl	102fc4e <memcpy>
 1001748:	697b      	ldr	r3, [r7, #20]
 100174a:	68db      	ldr	r3, [r3, #12]
 100174c:	3319      	adds	r3, #25
 100174e:	687a      	ldr	r2, [r7, #4]
 1001750:	7f52      	ldrb	r2, [r2, #29]
 1001752:	701a      	strb	r2, [r3, #0]
 1001754:	697b      	ldr	r3, [r7, #20]
 1001756:	68db      	ldr	r3, [r3, #12]
 1001758:	f103 001a 	add.w	r0, r3, #26
 100175c:	687b      	ldr	r3, [r7, #4]
 100175e:	6a19      	ldr	r1, [r3, #32]
 1001760:	687b      	ldr	r3, [r7, #4]
 1001762:	7f5b      	ldrb	r3, [r3, #29]
 1001764:	461a      	mov	r2, r3
 1001766:	f02e fa72 	bl	102fc4e <memcpy>
 100176a:	e12c      	b.n	10019c6 <.LBE6+0x476>
 100176c:	2104      	movs	r1, #4
 100176e:	2010      	movs	r0, #16
 1001770:	f01c fc8c 	bl	101e08c <HCI_TxMalloc>
 1001774:	6178      	str	r0, [r7, #20]
 1001776:	697b      	ldr	r3, [r7, #20]
 1001778:	2b00      	cmp	r3, #0
 100177a:	f000 8126 	beq.w	10019ca <.LBE6+0x47a>
 100177e:	f030 fda4 	bl	10322ca <__pa_fn_0_135_01_0>
 1001782:	2210      	movs	r2, #16
 1001784:	729a      	strb	r2, [r3, #10]
 1001786:	697b      	ldr	r3, [r7, #20]
 1001788:	68db      	ldr	r3, [r3, #12]
 100178a:	220e      	movs	r2, #14
 100178c:	f031 f9fd 	bl	1032b8a <__pa_fn_0_1e2_01_0>
 1001790:	f02e fa5d 	bl	102fc4e <memcpy>
 1001794:	f02e f8e5 	bl	102f962 <__pa_fn_0_122_01_0>
 1001798:	3212      	adds	r2, #18
 100179a:	8812      	ldrh	r2, [r2, #0]
 100179c:	f031 f85b 	bl	1032856 <__pa_fn_0_2ee_01_0>
 10017a0:	330f      	adds	r3, #15
 10017a2:	687a      	ldr	r2, [r7, #4]
 10017a4:	7d12      	ldrb	r2, [r2, #20]
 10017a6:	701a      	strb	r2, [r3, #0]
 10017a8:	e10f      	b.n	10019ca <.LBE6+0x47a>
 10017aa:	687b      	ldr	r3, [r7, #4]
 10017ac:	7a9b      	ldrb	r3, [r3, #10]
 10017ae:	b29b      	uxth	r3, r3
 10017b0:	3308      	adds	r3, #8
 10017b2:	b29b      	uxth	r3, r3
 10017b4:	4618      	mov	r0, r3
 10017b6:	f02a fbcb 	bl	102bf50 <HCI_MemPeek>
 10017ba:	4603      	mov	r3, r0
 10017bc:	2b00      	cmp	r3, #0
 10017be:	f000 8106 	beq.w	10019ce <.LBE6+0x47e>
 10017c2:	687b      	ldr	r3, [r7, #4]
 10017c4:	7a9b      	ldrb	r3, [r3, #10]
 10017c6:	b29b      	uxth	r3, r3
 10017c8:	3308      	adds	r3, #8
 10017ca:	b29b      	uxth	r3, r3
 10017cc:	2104      	movs	r1, #4
 10017ce:	4618      	mov	r0, r3
 10017d0:	f01c fc5c 	bl	101e08c <HCI_TxMalloc>
 10017d4:	6178      	str	r0, [r7, #20]
 10017d6:	697b      	ldr	r3, [r7, #20]
 10017d8:	2b00      	cmp	r3, #0
 10017da:	f000 80fa 	beq.w	10019d2 <.LBE6+0x482>
 10017de:	697b      	ldr	r3, [r7, #20]
 10017e0:	223e      	movs	r2, #62	; 0x3e
 10017e2:	811a      	strh	r2, [r3, #8]
 10017e4:	687b      	ldr	r3, [r7, #4]
 10017e6:	7a9b      	ldrb	r3, [r3, #10]
 10017e8:	3308      	adds	r3, #8
 10017ea:	b2da      	uxtb	r2, r3
 10017ec:	f031 f9c4 	bl	1032b78 <__pa_fn_0_145_01_0>
 10017f0:	220f      	movs	r2, #15
 10017f2:	701a      	strb	r2, [r3, #0]
 10017f4:	f02e f95a 	bl	102faac <__pa_fn_0_1e0_01_0>
 10017f8:	f030 fd4e 	bl	1032298 <__pa_fn_0_121_01_0>
 10017fc:	f992 2007 	ldrsb.w	r2, [r2, #7]
 1001800:	f031 f9c6 	bl	1032b90 <__pa_fn_0_1e8_01_0>
 1001804:	3305      	adds	r3, #5
 1001806:	687a      	ldr	r2, [r7, #4]
 1001808:	7a12      	ldrb	r2, [r2, #8]
 100180a:	701a      	strb	r2, [r3, #0]
 100180c:	697b      	ldr	r3, [r7, #20]
 100180e:	68db      	ldr	r3, [r3, #12]
 1001810:	3306      	adds	r3, #6
 1001812:	687a      	ldr	r2, [r7, #4]
 1001814:	7a52      	ldrb	r2, [r2, #9]
 1001816:	701a      	strb	r2, [r3, #0]
 1001818:	697b      	ldr	r3, [r7, #20]
 100181a:	68db      	ldr	r3, [r3, #12]
 100181c:	3307      	adds	r3, #7
 100181e:	687a      	ldr	r2, [r7, #4]
 1001820:	7a92      	ldrb	r2, [r2, #10]
 1001822:	701a      	strb	r2, [r3, #0]
 1001824:	697b      	ldr	r3, [r7, #20]
 1001826:	68db      	ldr	r3, [r3, #12]
 1001828:	f103 0008 	add.w	r0, r3, #8
 100182c:	687b      	ldr	r3, [r7, #4]
 100182e:	68d9      	ldr	r1, [r3, #12]
 1001830:	687b      	ldr	r3, [r7, #4]
 1001832:	7a9b      	ldrb	r3, [r3, #10]
 1001834:	461a      	mov	r2, r3
 1001836:	f02e fa0a 	bl	102fc4e <memcpy>
 100183a:	e0ca      	b.n	10019d2 <.LBE6+0x482>
 100183c:	2104      	movs	r1, #4
 100183e:	2003      	movs	r0, #3
 1001840:	f01c fc24 	bl	101e08c <HCI_TxMalloc>
 1001844:	6178      	str	r0, [r7, #20]
 1001846:	697b      	ldr	r3, [r7, #20]
 1001848:	2b00      	cmp	r3, #0
 100184a:	f000 80c4 	beq.w	10019d6 <.LBE6+0x486>
 100184e:	f030 fd3c 	bl	10322ca <__pa_fn_0_135_01_0>
 1001852:	2203      	movs	r2, #3
 1001854:	729a      	strb	r2, [r3, #10]
 1001856:	697b      	ldr	r3, [r7, #20]
 1001858:	68db      	ldr	r3, [r3, #12]
 100185a:	2210      	movs	r2, #16
 100185c:	701a      	strb	r2, [r3, #0]
 100185e:	697b      	ldr	r3, [r7, #20]
 1001860:	68db      	ldr	r3, [r3, #12]
 1001862:	3301      	adds	r3, #1
 1001864:	687a      	ldr	r2, [r7, #4]
 1001866:	3204      	adds	r2, #4
 1001868:	8812      	ldrh	r2, [r2, #0]
 100186a:	b292      	uxth	r2, r2
 100186c:	801a      	strh	r2, [r3, #0]
 100186e:	e0b2      	b.n	10019d6 <.LBE6+0x486>
 1001870:	2104      	movs	r1, #4
 1001872:	2001      	movs	r0, #1
 1001874:	f01c fc0a 	bl	101e08c <HCI_TxMalloc>
 1001878:	6178      	str	r0, [r7, #20]
 100187a:	697b      	ldr	r3, [r7, #20]
 100187c:	2b00      	cmp	r3, #0
 100187e:	f000 80ac 	beq.w	10019da <.LBE6+0x48a>
 1001882:	f030 fd22 	bl	10322ca <__pa_fn_0_135_01_0>
 1001886:	2201      	movs	r2, #1
 1001888:	729a      	strb	r2, [r3, #10]
 100188a:	697b      	ldr	r3, [r7, #20]
 100188c:	68db      	ldr	r3, [r3, #12]
 100188e:	2211      	movs	r2, #17
 1001890:	701a      	strb	r2, [r3, #0]
 1001892:	e0a2      	b.n	10019da <.LBE6+0x48a>
 1001894:	2104      	movs	r1, #4
 1001896:	2006      	movs	r0, #6
 1001898:	f01c fbf8 	bl	101e08c <HCI_TxMalloc>
 100189c:	6178      	str	r0, [r7, #20]
 100189e:	697b      	ldr	r3, [r7, #20]
 10018a0:	2b00      	cmp	r3, #0
 10018a2:	f000 809c 	beq.w	10019de <.LBE6+0x48e>
 10018a6:	f02f fdbe 	bl	1031426 <__pa_fn_0_131_01_0>
 10018aa:	2212      	movs	r2, #18
 10018ac:	701a      	strb	r2, [r3, #0]
 10018ae:	f02d fa4a 	bl	102ed46 <__pa_fn_0_11f_01_0>
 10018b2:	3303      	adds	r3, #3
 10018b4:	687a      	ldr	r2, [r7, #4]
 10018b6:	3206      	adds	r2, #6
 10018b8:	8812      	ldrh	r2, [r2, #0]
 10018ba:	f030 ffcc 	bl	1032856 <__pa_fn_0_2ee_01_0>
 10018be:	3305      	adds	r3, #5
 10018c0:	687a      	ldr	r2, [r7, #4]
 10018c2:	7a12      	ldrb	r2, [r2, #8]
 10018c4:	701a      	strb	r2, [r3, #0]
 10018c6:	e08a      	b.n	10019de <.LBE6+0x48e>
 10018c8:	2104      	movs	r1, #4
 10018ca:	2009      	movs	r0, #9
 10018cc:	f01c fbde 	bl	101e08c <HCI_TxMalloc>
 10018d0:	6178      	str	r0, [r7, #20]
 10018d2:	697b      	ldr	r3, [r7, #20]
 10018d4:	2b00      	cmp	r3, #0
 10018d6:	f000 8084 	beq.w	10019e2 <.LBE6+0x492>
 10018da:	f02f fdb2 	bl	1031442 <__pa_fn_0_134_01_0>
 10018de:	2213      	movs	r2, #19
 10018e0:	701a      	strb	r2, [r3, #0]
 10018e2:	f02d fa30 	bl	102ed46 <__pa_fn_0_11f_01_0>
 10018e6:	1cd8      	adds	r0, r3, #3
 10018e8:	f030 fb23 	bl	1031f32 <__pa_fn_0_27_01_0>
 10018ec:	f02e f9af 	bl	102fc4e <memcpy>
 10018f0:	e077      	b.n	10019e2 <.LBE6+0x492>
 10018f2:	2104      	movs	r1, #4
 10018f4:	2004      	movs	r0, #4
 10018f6:	f01c fbc9 	bl	101e08c <HCI_TxMalloc>
 10018fa:	6178      	str	r0, [r7, #20]
 10018fc:	697b      	ldr	r3, [r7, #20]
 10018fe:	2b00      	cmp	r3, #0
 1001900:	f000 8071 	beq.w	10019e6 <.LBE6+0x496>
 1001904:	f030 fce1 	bl	10322ca <__pa_fn_0_135_01_0>
 1001908:	2204      	movs	r2, #4
 100190a:	729a      	strb	r2, [r3, #10]
 100190c:	697b      	ldr	r3, [r7, #20]
 100190e:	68db      	ldr	r3, [r3, #12]
 1001910:	2214      	movs	r2, #20
 1001912:	701a      	strb	r2, [r3, #0]
 1001914:	f02e f8ca 	bl	102faac <__pa_fn_0_1e0_01_0>
 1001918:	e065      	b.n	10019e6 <.LBE6+0x496>
 100191a:	2104      	movs	r1, #4
 100191c:	2005      	movs	r0, #5
 100191e:	f01c fbb5 	bl	101e08c <HCI_TxMalloc>
 1001922:	6178      	str	r0, [r7, #20]
 1001924:	f030 fcd1 	bl	10322ca <__pa_fn_0_135_01_0>
 1001928:	2205      	movs	r2, #5
 100192a:	729a      	strb	r2, [r3, #10]
 100192c:	697b      	ldr	r3, [r7, #20]
 100192e:	68db      	ldr	r3, [r3, #12]
 1001930:	2220      	movs	r2, #32
 1001932:	701a      	strb	r2, [r3, #0]
 1001934:	f030 fcab 	bl	103228e <__pa_fn_0_120_01_0>
 1001938:	8892      	ldrh	r2, [r2, #4]
 100193a:	801a      	strh	r2, [r3, #0]
 100193c:	697b      	ldr	r3, [r7, #20]
 100193e:	68db      	ldr	r3, [r3, #12]
 1001940:	3303      	adds	r3, #3
 1001942:	687a      	ldr	r2, [r7, #4]
 1001944:	7992      	ldrb	r2, [r2, #6]
 1001946:	701a      	strb	r2, [r3, #0]
 1001948:	f030 fca6 	bl	1032298 <__pa_fn_0_121_01_0>
 100194c:	79d2      	ldrb	r2, [r2, #7]
 100194e:	701a      	strb	r2, [r3, #0]
 1001950:	e04a      	b.n	10019e8 <.LBE6+0x498>
 1001952:	2104      	movs	r1, #4
 1001954:	2009      	movs	r0, #9
 1001956:	f01c fb99 	bl	101e08c <HCI_TxMalloc>
 100195a:	6178      	str	r0, [r7, #20]
 100195c:	f02f fd71 	bl	1031442 <__pa_fn_0_134_01_0>
 1001960:	2221      	movs	r2, #33	; 0x21
 1001962:	701a      	strb	r2, [r3, #0]
 1001964:	f030 fc93 	bl	103228e <__pa_fn_0_120_01_0>
 1001968:	7912      	ldrb	r2, [r2, #4]
 100196a:	701a      	strb	r2, [r3, #0]
 100196c:	697b      	ldr	r3, [r7, #20]
 100196e:	68db      	ldr	r3, [r3, #12]
 1001970:	3302      	adds	r3, #2
 1001972:	687a      	ldr	r2, [r7, #4]
 1001974:	88d2      	ldrh	r2, [r2, #6]
 1001976:	801a      	strh	r2, [r3, #0]
 1001978:	f030 fc8e 	bl	1032298 <__pa_fn_0_121_01_0>
 100197c:	7a12      	ldrb	r2, [r2, #8]
 100197e:	701a      	strb	r2, [r3, #0]
 1001980:	697b      	ldr	r3, [r7, #20]
 1001982:	68db      	ldr	r3, [r3, #12]
 1001984:	3305      	adds	r3, #5
 1001986:	687a      	ldr	r2, [r7, #4]
 1001988:	7a52      	ldrb	r2, [r2, #9]
 100198a:	701a      	strb	r2, [r3, #0]
 100198c:	697b      	ldr	r3, [r7, #20]
 100198e:	68db      	ldr	r3, [r3, #12]
 1001990:	3306      	adds	r3, #6
 1001992:	687a      	ldr	r2, [r7, #4]
 1001994:	f992 200a 	ldrsb.w	r2, [r2, #10]
 1001998:	f031 f8fa 	bl	1032b90 <__pa_fn_0_1e8_01_0>
 100199c:	3307      	adds	r3, #7
 100199e:	687a      	ldr	r2, [r7, #4]
 10019a0:	7ad2      	ldrb	r2, [r2, #11]
 10019a2:	701a      	strb	r2, [r3, #0]
 10019a4:	697b      	ldr	r3, [r7, #20]
 10019a6:	68db      	ldr	r3, [r3, #12]
 10019a8:	3308      	adds	r3, #8
 10019aa:	687a      	ldr	r2, [r7, #4]
 10019ac:	f992 200c 	ldrsb.w	r2, [r2, #12]
 10019b0:	b2d2      	uxtb	r2, r2
 10019b2:	701a      	strb	r2, [r3, #0]
 10019b4:	e018      	b.n	10019e8 <.LBE6+0x498>
 10019b6:	bf00      	nop
 10019b8:	e016      	b.n	10019e8 <.LBE6+0x498>
 10019ba:	bf00      	nop
 10019bc:	e014      	b.n	10019e8 <.LBE6+0x498>
 10019be:	bf00      	nop
 10019c0:	e012      	b.n	10019e8 <.LBE6+0x498>
 10019c2:	bf00      	nop
 10019c4:	e010      	b.n	10019e8 <.LBE6+0x498>
 10019c6:	bf00      	nop
 10019c8:	e00e      	b.n	10019e8 <.LBE6+0x498>
 10019ca:	bf00      	nop
 10019cc:	e00c      	b.n	10019e8 <.LBE6+0x498>
 10019ce:	bf00      	nop
 10019d0:	e00a      	b.n	10019e8 <.LBE6+0x498>
 10019d2:	bf00      	nop
 10019d4:	e008      	b.n	10019e8 <.LBE6+0x498>
 10019d6:	bf00      	nop
 10019d8:	e006      	b.n	10019e8 <.LBE6+0x498>
 10019da:	bf00      	nop
 10019dc:	e004      	b.n	10019e8 <.LBE6+0x498>
 10019de:	bf00      	nop
 10019e0:	e002      	b.n	10019e8 <.LBE6+0x498>
 10019e2:	bf00      	nop
 10019e4:	e000      	b.n	10019e8 <.LBE6+0x498>
 10019e6:	bf00      	nop
 10019e8:	697b      	ldr	r3, [r7, #20]
 10019ea:	2b00      	cmp	r3, #0
 10019ec:	d004      	beq.n	10019f8 <.LBE6+0x4a8>
 10019ee:	6978      	ldr	r0, [r7, #20]
 10019f0:	f024 f940 	bl	1025c74 <HCI_HalTx>
 10019f4:	e000      	b.n	10019f8 <.LBE6+0x4a8>
 10019f6:	bf00      	nop
 10019f8:	3718      	adds	r7, #24
 10019fa:	46bd      	mov	sp, r7
 10019fc:	bd80      	pop	{r7, pc}
 10019fe:	bf00      	nop

Disassembly of section .text%88:

01001a00 <IB_GetBdAddr>:
 1001a00:	b480      	push	{r7}
 1001a02:	b083      	sub	sp, #12
 1001a04:	af00      	add	r7, sp, #0
 1001a06:	6078      	str	r0, [r7, #4]
 1001a08:	4b0a      	ldr	r3, [pc, #40]	; (1001a34 <IB_GetBdAddr+0x34>)
 1001a0a:	781b      	ldrb	r3, [r3, #0]
 1001a0c:	2b00      	cmp	r3, #0
 1001a0e:	d009      	beq.n	1001a24 <IB_GetBdAddr+0x24>
 1001a10:	687b      	ldr	r3, [r7, #4]
 1001a12:	4a09      	ldr	r2, [pc, #36]	; (1001a38 <IB_GetBdAddr+0x38>)
 1001a14:	6810      	ldr	r0, [r2, #0]
 1001a16:	6018      	str	r0, [r3, #0]
 1001a18:	8891      	ldrh	r1, [r2, #4]
 1001a1a:	7992      	ldrb	r2, [r2, #6]
 1001a1c:	8099      	strh	r1, [r3, #4]
 1001a1e:	719a      	strb	r2, [r3, #6]
 1001a20:	2300      	movs	r3, #0
 1001a22:	e000      	b.n	1001a26 <IB_GetBdAddr+0x26>
 1001a24:	2301      	movs	r3, #1
 1001a26:	4618      	mov	r0, r3
 1001a28:	370c      	adds	r7, #12
 1001a2a:	46bd      	mov	sp, r7
 1001a2c:	f85d 7b04 	ldr.w	r7, [sp], #4
 1001a30:	4770      	bx	lr
 1001a32:	bf00      	nop
 1001a34:	2000b545 	.word	0x2000b545
 1001a38:	2000b548 	.word	0x2000b548

01001a3c <IB_GetMACAddr>:
 1001a3c:	b480      	push	{r7}
 1001a3e:	b083      	sub	sp, #12
 1001a40:	af00      	add	r7, sp, #0
 1001a42:	6078      	str	r0, [r7, #4]
 1001a44:	4b09      	ldr	r3, [pc, #36]	; (1001a6c <IB_GetMACAddr+0x30>)
 1001a46:	781b      	ldrb	r3, [r3, #0]
 1001a48:	2b00      	cmp	r3, #0
 1001a4a:	d008      	beq.n	1001a5e <IB_GetMACAddr+0x22>
 1001a4c:	687b      	ldr	r3, [r7, #4]
 1001a4e:	4908      	ldr	r1, [pc, #32]	; (1001a70 <IB_GetMACAddr+0x34>)
 1001a50:	461a      	mov	r2, r3
 1001a52:	460b      	mov	r3, r1
 1001a54:	cb03      	ldmia	r3!, {r0, r1}
 1001a56:	6010      	str	r0, [r2, #0]
 1001a58:	6051      	str	r1, [r2, #4]
 1001a5a:	2300      	movs	r3, #0
 1001a5c:	e000      	b.n	1001a60 <IB_GetMACAddr+0x24>
 1001a5e:	2301      	movs	r3, #1
 1001a60:	4618      	mov	r0, r3
 1001a62:	370c      	adds	r7, #12
 1001a64:	46bd      	mov	sp, r7
 1001a66:	f85d 7b04 	ldr.w	r7, [sp], #4
 1001a6a:	4770      	bx	lr
 1001a6c:	2000b54f 	.word	0x2000b54f
 1001a70:	2000b550 	.word	0x2000b550

01001a74 <IB_GetRoomTemperatureSAR>:
 1001a74:	b480      	push	{r7}
 1001a76:	af00      	add	r7, sp, #0
 1001a78:	4b01      	ldr	r3, [pc, #4]	; (1001a80 <IB_GetRoomTemperatureSAR+0xc>)
 1001a7a:	f031 b850 	b.w	1032b1e <__pa_fn_0_337_10_6>
 1001a7e:	bf00      	nop
 1001a80:	2000b740 	.word	0x2000b740

01001a84 <IB_GetRssiOffset>:
 1001a84:	b480      	push	{r7}
 1001a86:	af00      	add	r7, sp, #0
 1001a88:	4b01      	ldr	r3, [pc, #4]	; (1001a90 <L0^A+0x4>)
 1001a8a:	Address 0x01001a8a is out of bounds.


01001a8c <L0^A>:
 1001a8c:	bfe4      	itt	al
 1001a8e:	bf00      	nopal
 1001a90:	2000b742 	.word	0x2000b742

01001a94 <IB_GetBatVoltage20VSAR>:
 1001a94:	b480      	push	{r7}
 1001a96:	af00      	addal	r7, sp, #0
 1001a98:	4b01      	ldr	r3, [pc, #4]	; (1001aa0 <IB_GetBatVoltage20VSAR+0xc>)
 1001a9a:	f031 b840 	b.w	1032b1e <__pa_fn_0_337_10_6>
 1001a9e:	bf00      	nop
 1001aa0:	2000b558 	.word	0x2000b558

01001aa4 <IB_GetBatVoltage12VSAR>:
 1001aa4:	b480      	push	{r7}
 1001aa6:	af00      	add	r7, sp, #0
 1001aa8:	4b01      	ldr	r3, [pc, #4]	; (1001ab0 <IB_GetBatVoltage12VSAR+0xc>)
 1001aaa:	f031 b838 	b.w	1032b1e <__pa_fn_0_337_10_6>
 1001aae:	bf00      	nop
 1001ab0:	2000b55a 	.word	0x2000b55a

01001ab4 <_CalculateCRC16CCITT>:
 1001ab4:	b480      	push	{r7}
 1001ab6:	b085      	sub	sp, #20
 1001ab8:	af00      	add	r7, sp, #0
 1001aba:	6078      	str	r0, [r7, #4]

01001abc <L0^A>:
 1001abc:	460b      	mov	r3, r1
 1001abe:	807b      	strh	r3, [r7, #2]
 1001ac0:	f64f 73ff 	movw	r3, #65535	; 0xffff
 1001ac4:	817b      	strh	r3, [r7, #10]
 1001ac6:	887b      	ldrh	r3, [r7, #2]
 1001ac8:	2b00      	cmp	r3, #0
 1001aca:	d103      	bne.n	1001ad4 <L0^A>
 1001acc:	897b      	ldrh	r3, [r7, #10]
 1001ace:	43db      	mvns	r3, r3
 1001ad0:	b29b      	uxth	r3, r3
 1001ad2:	e02c      	b.n	1001b2e <L0^A+0x5a>

01001ad4 <L0^A>:
 1001ad4:	2300      	movs	r3, #0
 1001ad6:	73fb      	strb	r3, [r7, #15]
 1001ad8:	687b      	ldr	r3, [r7, #4]
 1001ada:	1c5a      	adds	r2, r3, #1
 1001adc:	607a      	str	r2, [r7, #4]
 1001ade:	781b      	ldrb	r3, [r3, #0]
 1001ae0:	81bb      	strh	r3, [r7, #12]
 1001ae2:	e017      	b.n	1001b14 <L0^A+0x40>
 1001ae4:	897a      	ldrh	r2, [r7, #10]
 1001ae6:	89bb      	ldrh	r3, [r7, #12]
 1001ae8:	4053      	eors	r3, r2
 1001aea:	b29b      	uxth	r3, r3
 1001aec:	f003 0301 	and.w	r3, r3, #1
 1001af0:	2b00      	cmp	r3, #0
 1001af2:	d006      	beq.n	1001b02 <L0^A+0x2e>
 1001af4:	897b      	ldrh	r3, [r7, #10]
 1001af6:	085b      	lsrs	r3, r3, #1
 1001af8:	b29a      	uxth	r2, r3
 1001afa:	4b10      	ldr	r3, [pc, #64]	; (1001b3c <L0^A+0x68>)
 1001afc:	4053      	eors	r3, r2
 1001afe:	817b      	strh	r3, [r7, #10]
 1001b00:	e002      	b.n	1001b08 <L0^A+0x34>
 1001b02:	897b      	ldrh	r3, [r7, #10]
 1001b04:	085b      	lsrs	r3, r3, #1
 1001b06:	817b      	strh	r3, [r7, #10]
 1001b08:	7bfb      	ldrb	r3, [r7, #15]
 1001b0a:	3301      	adds	r3, #1
 1001b0c:	73fb      	strb	r3, [r7, #15]
 1001b0e:	89bb      	ldrh	r3, [r7, #12]
 1001b10:	085b      	lsrs	r3, r3, #1
 1001b12:	81bb      	strh	r3, [r7, #12]
 1001b14:	7bfb      	ldrb	r3, [r7, #15]
 1001b16:	2b07      	cmp	r3, #7
 1001b18:	d9e4      	bls.n	1001ae4 <L0^A+0x10>
 1001b1a:	887b      	ldrh	r3, [r7, #2]
 1001b1c:	3b01      	subs	r3, #1
 1001b1e:	807b      	strh	r3, [r7, #2]
 1001b20:	887b      	ldrh	r3, [r7, #2]
 1001b22:	2b00      	cmp	r3, #0
 1001b24:	d1d6      	bne.n	1001ad4 <L0^A>
 1001b26:	897b      	ldrh	r3, [r7, #10]
 1001b28:	43db      	mvns	r3, r3
 1001b2a:	817b      	strh	r3, [r7, #10]
 1001b2c:	897b      	ldrh	r3, [r7, #10]
 1001b2e:	4618      	mov	r0, r3
 1001b30:	3714      	adds	r7, #20
 1001b32:	46bd      	mov	sp, r7
 1001b34:	f85d 7b04 	ldr.w	r7, [sp], #4
 1001b38:	4770      	bx	lr
 1001b3a:	bf00      	nop
 1001b3c:	ffff8408 	.word	0xffff8408

01001b40 <IB_FW_CRC_Proc>:
 1001b40:	b580      	push	{r7, lr}
 1001b42:	b086      	sub	sp, #24
 1001b44:	af00      	add	r7, sp, #0
 1001b46:	60f8      	str	r0, [r7, #12]
 1001b48:	460b      	mov	r3, r1
 1001b4a:	607a      	str	r2, [r7, #4]
 1001b4c:	817b      	strh	r3, [r7, #10]
 1001b4e:	687b      	ldr	r3, [r7, #4]
 1001b50:	617b      	str	r3, [r7, #20]
 1001b52:	697b      	ldr	r3, [r7, #20]
 1001b54:	781b      	ldrb	r3, [r3, #0]
 1001b56:	2bed      	cmp	r3, #237	; 0xed
 1001b58:	d121      	bne.n	1001b9e <L0^A+0x3e>
 1001b5a:	697b      	ldr	r3, [r7, #20]
 1001b5c:	785b      	ldrb	r3, [r3, #1]
 1001b5e:	2b03      	cmp	r3, #3

01001b60 <L0^A>:
 1001b60:	d11d      	bne.n	1001b9e <L0^A+0x3e>
 1001b62:	697b      	ldr	r3, [r7, #20]
 1001b64:	789b      	ldrb	r3, [r3, #2]
 1001b66:	2b00      	cmp	r3, #0
 1001b68:	d101      	bne.n	1001b6e <L0^A+0xe>
 1001b6a:	2300      	movs	r3, #0
 1001b6c:	e018      	b.n	1001ba0 <L0^A+0x40>
 1001b6e:	697b      	ldr	r3, [r7, #20]
 1001b70:	789b      	ldrb	r3, [r3, #2]
 1001b72:	2b01      	cmp	r3, #1
 1001b74:	d113      	bne.n	1001b9e <L0^A+0x3e>
 1001b76:	897b      	ldrh	r3, [r7, #10]
 1001b78:	4619      	mov	r1, r3
 1001b7a:	68f8      	ldr	r0, [r7, #12]
 1001b7c:	f7ff ff9a 	bl	1001ab4 <_CalculateCRC16CCITT>
 1001b80:	4603      	mov	r3, r0
 1001b82:	827b      	strh	r3, [r7, #18]
 1001b84:	8a7a      	ldrh	r2, [r7, #18]
 1001b86:	697b      	ldr	r3, [r7, #20]
 1001b88:	791b      	ldrb	r3, [r3, #4]
 1001b8a:	021b      	lsls	r3, r3, #8
 1001b8c:	6979      	ldr	r1, [r7, #20]
 1001b8e:	78c9      	ldrb	r1, [r1, #3]
 1001b90:	440b      	add	r3, r1
 1001b92:	429a      	cmp	r2, r3
 1001b94:	d101      	bne.n	1001b9a <L0^A+0x3a>
 1001b96:	2300      	movs	r3, #0
 1001b98:	e002      	b.n	1001ba0 <L0^A+0x40>
 1001b9a:	2301      	movs	r3, #1
 1001b9c:	e000      	b.n	1001ba0 <L0^A+0x40>
 1001b9e:	2301      	movs	r3, #1
 1001ba0:	f030 bf5d 	b.w	1032a5e <__pa_fn_0_10f_11_0>

01001ba4 <IB_RF_REG_proc>:
 1001ba4:	b580      	push	{r7, lr}
 1001ba6:	f030 fb18 	bl	10321da <__pa_fn_0_cc_01_0>
 1001baa:	613b      	str	r3, [r7, #16]
 1001bac:	693b      	ldr	r3, [r7, #16]
 1001bae:	785a      	ldrb	r2, [r3, #1]
 1001bb0:	4b18      	ldr	r3, [pc, #96]	; (1001c14 <L0^A+0x4c>)
 1001bb2:	f02e fc73 	bl	103049c <__pa_fn_0_15c_01_0>
 1001bb6:	2b00      	cmp	r3, #0
 1001bb8:	d001      	beq.n	1001bbe <IB_RF_REG_proc+0x1a>
 1001bba:	2301      	movs	r3, #1
 1001bbc:	e028      	b.n	1001c10 <L0^A+0x48>
 1001bbe:	693b      	ldr	r3, [r7, #16]
 1001bc0:	785b      	ldrb	r3, [r3, #1]
 1001bc2:	4a14      	ldr	r2, [pc, #80]	; (1001c14 <L0^A+0x4c>)
 1001bc4:	fba2 2303 	umull	r2, r3, r2, r3

01001bc8 <L0^A>:
 1001bc8:	085b      	lsrs	r3, r3, #1
 1001bca:	73fb      	strb	r3, [r7, #15]
 1001bcc:	687b      	ldr	r3, [r7, #4]
 1001bce:	3302      	adds	r3, #2
 1001bd0:	607b      	str	r3, [r7, #4]
 1001bd2:	2300      	movs	r3, #0
 1001bd4:	75fb      	strb	r3, [r7, #23]
 1001bd6:	e016      	b.n	1001c06 <L0^A+0x3e>
 1001bd8:	687b      	ldr	r3, [r7, #4]
 1001bda:	60bb      	str	r3, [r7, #8]
 1001bdc:	68bb      	ldr	r3, [r7, #8]
 1001bde:	7818      	ldrb	r0, [r3, #0]
 1001be0:	68bb      	ldr	r3, [r7, #8]
 1001be2:	789b      	ldrb	r3, [r3, #2]
 1001be4:	b29b      	uxth	r3, r3
 1001be6:	021b      	lsls	r3, r3, #8
 1001be8:	b29a      	uxth	r2, r3
 1001bea:	68bb      	ldr	r3, [r7, #8]
 1001bec:	785b      	ldrb	r3, [r3, #1]
 1001bee:	b29b      	uxth	r3, r3
 1001bf0:	4413      	add	r3, r2
 1001bf2:	b29b      	uxth	r3, r3
 1001bf4:	4619      	mov	r1, r3
 1001bf6:	f010 faa9 	bl	101214c <RF_Write_Reg>
 1001bfa:	687b      	ldr	r3, [r7, #4]
 1001bfc:	3303      	adds	r3, #3
 1001bfe:	607b      	str	r3, [r7, #4]
 1001c00:	7dfb      	ldrb	r3, [r7, #23]
 1001c02:	3301      	adds	r3, #1
 1001c04:	75fb      	strb	r3, [r7, #23]
 1001c06:	7dfa      	ldrb	r2, [r7, #23]
 1001c08:	7bfb      	ldrb	r3, [r7, #15]
 1001c0a:	429a      	cmp	r2, r3
 1001c0c:	d3e4      	bcc.n	1001bd8 <L0^A+0x10>
 1001c0e:	2300      	movs	r3, #0
 1001c10:	f030 bf25 	b.w	1032a5e <__pa_fn_0_10f_11_0>
 1001c14:	aaaaaaab 	.word	0xaaaaaaab

01001c18 <IB_PMU_REG_proc>:
 1001c18:	b580      	push	{r7, lr}
 1001c1a:	f030 fd86 	bl	103272a <__pa_fn_0_274_01_0>
 1001c1e:	61bb      	str	r3, [r7, #24]
 1001c20:	69bb      	ldr	r3, [r7, #24]
 1001c22:	785a      	ldrb	r2, [r3, #1]
 1001c24:	4b18      	ldr	r3, [pc, #96]	; (1001c88 <L0^A+0x38>)
 1001c26:	f02e fc39 	bl	103049c <__pa_fn_0_15c_01_0>
 1001c2a:	2b00      	cmp	r3, #0
 1001c2c:	d001      	beq.n	1001c32 <IB_PMU_REG_proc+0x1a>
 1001c2e:	2301      	movs	r3, #1
 1001c30:	e027      	b.n	1001c82 <L0^A+0x32>
 1001c32:	69bb      	ldr	r3, [r7, #24]
 1001c34:	785b      	ldrb	r3, [r3, #1]
 1001c36:	4a14      	ldr	r2, [pc, #80]	; (1001c88 <L0^A+0x38>)
 1001c38:	fba2 2303 	umull	r2, r3, r2, r3
 1001c3c:	085b      	lsrs	r3, r3, #1
 1001c3e:	75fb      	strb	r3, [r7, #23]
 1001c40:	687b      	ldr	r3, [r7, #4]
 1001c42:	3302      	adds	r3, #2
 1001c44:	607b      	str	r3, [r7, #4]
 1001c46:	2300      	movs	r3, #0
 1001c48:	77fb      	strb	r3, [r7, #31]
 1001c4a:	e015      	b.n	1001c78 <L0^A+0x28>
 1001c4c:	687b      	ldr	r3, [r7, #4]
 1001c4e:	613b      	str	r3, [r7, #16]

01001c50 <L0^A>:
 1001c50:	693b      	ldr	r3, [r7, #16]
 1001c52:	789b      	ldrb	r3, [r3, #2]
 1001c54:	021b      	lsls	r3, r3, #8
 1001c56:	461a      	mov	r2, r3
 1001c58:	693b      	ldr	r3, [r7, #16]
 1001c5a:	785b      	ldrb	r3, [r3, #1]
 1001c5c:	4413      	add	r3, r2
 1001c5e:	60fb      	str	r3, [r7, #12]
 1001c60:	693b      	ldr	r3, [r7, #16]
 1001c62:	781b      	ldrb	r3, [r3, #0]
 1001c64:	68f9      	ldr	r1, [r7, #12]
 1001c66:	4618      	mov	r0, r3
 1001c68:	f010 fb00 	bl	101226c <PMU_Write_Reg>
 1001c6c:	687b      	ldr	r3, [r7, #4]
 1001c6e:	3303      	adds	r3, #3
 1001c70:	607b      	str	r3, [r7, #4]
 1001c72:	7ffb      	ldrb	r3, [r7, #31]
 1001c74:	3301      	adds	r3, #1
 1001c76:	77fb      	strb	r3, [r7, #31]
 1001c78:	7ffa      	ldrb	r2, [r7, #31]
 1001c7a:	7dfb      	ldrb	r3, [r7, #23]
 1001c7c:	429a      	cmp	r2, r3
 1001c7e:	d3e5      	bcc.n	1001c4c <IB_PMU_REG_proc+0x34>
 1001c80:	2300      	movs	r3, #0
 1001c82:	f030 bf00 	b.w	1032a86 <__pa_fn_0_116_11_0>
 1001c86:	bf00      	nop
 1001c88:	aaaaaaab 	.word	0xaaaaaaab

01001c8c <IB_BDADDR_proc>:
 1001c8c:	b480      	push	{r7}
 1001c8e:	b085      	sub	sp, #20
 1001c90:	af00      	add	r7, sp, #0
 1001c92:	6078      	str	r0, [r7, #4]

01001c94 <.LBB2>:
 1001c94:	687b      	ldr	r3, [r7, #4]
 1001c96:	60fb      	str	r3, [r7, #12]
 1001c98:	68fb      	ldr	r3, [r7, #12]
 1001c9a:	785b      	ldrb	r3, [r3, #1]
 1001c9c:	2b07      	cmp	r3, #7
 1001c9e:	d10d      	bne.n	1001cbc <.LBE2+0x2>
 1001ca0:	68fb      	ldr	r3, [r7, #12]
 1001ca2:	1c9a      	adds	r2, r3, #2
 1001ca4:	4b09      	ldr	r3, [pc, #36]	; (1001ccc <.LBE2+0x12>)
 1001ca6:	6810      	ldr	r0, [r2, #0]
 1001ca8:	6018      	str	r0, [r3, #0]
 1001caa:	8891      	ldrh	r1, [r2, #4]
 1001cac:	7992      	ldrb	r2, [r2, #6]
 1001cae:	8099      	strh	r1, [r3, #4]
 1001cb0:	719a      	strb	r2, [r3, #6]
 1001cb2:	4b07      	ldr	r3, [pc, #28]	; (1001cd0 <.LBE2+0x16>)
 1001cb4:	2201      	movs	r2, #1
 1001cb6:	701a      	strb	r2, [r3, #0]
 1001cb8:	2300      	movs	r3, #0

01001cba <.LBE2>:
 1001cba:	e000      	b.n	1001cbe <.LBE2+0x4>
 1001cbc:	2301      	movs	r3, #1
 1001cbe:	4618      	mov	r0, r3
 1001cc0:	3714      	adds	r7, #20
 1001cc2:	46bd      	mov	sp, r7
 1001cc4:	f85d 7b04 	ldr.w	r7, [sp], #4
 1001cc8:	4770      	bx	lr
 1001cca:	bf00      	nop
 1001ccc:	2000b548 	.word	0x2000b548
 1001cd0:	2000b545 	.word	0x2000b545

01001cd4 <IB_BT_BB_REG_proc>:
 1001cd4:	b480      	push	{r7}
 1001cd6:	b089      	sub	sp, #36	; 0x24

01001cd8 <L0^A>:
 1001cd8:	af00      	add	r7, sp, #0
 1001cda:	6078      	str	r0, [r7, #4]
 1001cdc:	687b      	ldr	r3, [r7, #4]
 1001cde:	61bb      	str	r3, [r7, #24]
 1001ce0:	69bb      	ldr	r3, [r7, #24]
 1001ce2:	785a      	ldrb	r2, [r3, #1]
 1001ce4:	4b27      	ldr	r3, [pc, #156]	; (1001d84 <L0^A+0x64>)
 1001ce6:	fba3 1302 	umull	r1, r3, r3, r2
 1001cea:	0899      	lsrs	r1, r3, #2
 1001cec:	460b      	mov	r3, r1
 1001cee:	005b      	lsls	r3, r3, #1
 1001cf0:	440b      	add	r3, r1
 1001cf2:	005b      	lsls	r3, r3, #1
 1001cf4:	1ad3      	subs	r3, r2, r3
 1001cf6:	b2db      	uxtb	r3, r3
 1001cf8:	2b00      	cmp	r3, #0
 1001cfa:	d001      	beq.n	1001d00 <L0^A+0x28>
 1001cfc:	2301      	movs	r3, #1
 1001cfe:	e03a      	b.n	1001d76 <L0^A+0x56>
 1001d00:	69bb      	ldr	r3, [r7, #24]
 1001d02:	785b      	ldrb	r3, [r3, #1]
 1001d04:	4a1f      	ldr	r2, [pc, #124]	; (1001d84 <L0^A+0x64>)
 1001d06:	fba2 2303 	umull	r2, r3, r2, r3
 1001d0a:	089b      	lsrs	r3, r3, #2
 1001d0c:	75fb      	strb	r3, [r7, #23]
 1001d0e:	687b      	ldr	r3, [r7, #4]
 1001d10:	3302      	adds	r3, #2
 1001d12:	607b      	str	r3, [r7, #4]
 1001d14:	2300      	movs	r3, #0
 1001d16:	77fb      	strb	r3, [r7, #31]
 1001d18:	e028      	b.n	1001d6c <L0^A+0x4c>
 1001d1a:	687b      	ldr	r3, [r7, #4]
 1001d1c:	613b      	str	r3, [r7, #16]
 1001d1e:	693b      	ldr	r3, [r7, #16]

01001d20 <L0^A>:
 1001d20:	785b      	ldrb	r3, [r3, #1]
 1001d22:	021b      	lsls	r3, r3, #8
 1001d24:	693a      	ldr	r2, [r7, #16]
 1001d26:	7812      	ldrb	r2, [r2, #0]
 1001d28:	4413      	add	r3, r2
 1001d2a:	f103 4382 	add.w	r3, r3, #1090519040	; 0x41000000
 1001d2e:	f503 3390 	add.w	r3, r3, #73728	; 0x12000
 1001d32:	60fb      	str	r3, [r7, #12]
 1001d34:	68fb      	ldr	r3, [r7, #12]
 1001d36:	693a      	ldr	r2, [r7, #16]
 1001d38:	7892      	ldrb	r2, [r2, #2]
 1001d3a:	701a      	strb	r2, [r3, #0]
 1001d3c:	68fb      	ldr	r3, [r7, #12]
 1001d3e:	3301      	adds	r3, #1
 1001d40:	461a      	mov	r2, r3
 1001d42:	693b      	ldr	r3, [r7, #16]
 1001d44:	78db      	ldrb	r3, [r3, #3]
 1001d46:	7013      	strb	r3, [r2, #0]
 1001d48:	68fb      	ldr	r3, [r7, #12]
 1001d4a:	3302      	adds	r3, #2
 1001d4c:	461a      	mov	r2, r3
 1001d4e:	693b      	ldr	r3, [r7, #16]
 1001d50:	791b      	ldrb	r3, [r3, #4]
 1001d52:	7013      	strb	r3, [r2, #0]
 1001d54:	68fb      	ldr	r3, [r7, #12]
 1001d56:	3303      	adds	r3, #3
 1001d58:	461a      	mov	r2, r3
 1001d5a:	693b      	ldr	r3, [r7, #16]
 1001d5c:	795b      	ldrb	r3, [r3, #5]
 1001d5e:	7013      	strb	r3, [r2, #0]
 1001d60:	687b      	ldr	r3, [r7, #4]
 1001d62:	3306      	adds	r3, #6
 1001d64:	607b      	str	r3, [r7, #4]
 1001d66:	7ffb      	ldrb	r3, [r7, #31]
 1001d68:	3301      	adds	r3, #1
 1001d6a:	77fb      	strb	r3, [r7, #31]
 1001d6c:	7ffa      	ldrb	r2, [r7, #31]
 1001d6e:	7dfb      	ldrb	r3, [r7, #23]
 1001d70:	429a      	cmp	r2, r3
 1001d72:	d3d2      	bcc.n	1001d1a <L0^A+0x42>
 1001d74:	2300      	movs	r3, #0
 1001d76:	4618      	mov	r0, r3
 1001d78:	3724      	adds	r7, #36	; 0x24
 1001d7a:	46bd      	mov	sp, r7
 1001d7c:	f85d 7b04 	ldr.w	r7, [sp], #4
 1001d80:	4770      	bx	lr
 1001d82:	bf00      	nop
 1001d84:	aaaaaaab 	.word	0xaaaaaaab

01001d88 <IB_ZB_BB_REG_proc>:
 1001d88:	b480      	push	{r7}
 1001d8a:	b089      	sub	sp, #36	; 0x24
 1001d8c:	af00      	add	r7, sp, #0
 1001d8e:	6078      	str	r0, [r7, #4]
 1001d90:	687b      	ldr	r3, [r7, #4]
 1001d92:	61bb      	str	r3, [r7, #24]
 1001d94:	69bb      	ldr	r3, [r7, #24]
 1001d96:	785a      	ldrb	r2, [r3, #1]
 1001d98:	4b2e      	ldr	r3, [pc, #184]	; (1001e54 <.LCFI4>)
 1001d9a:	fba3 1302 	umull	r1, r3, r3, r2
 1001d9e:	0899      	lsrs	r1, r3, #2
 1001da0:	460b      	mov	r3, r1
 1001da2:	005b      	lsls	r3, r3, #1
 1001da4:	440b      	add	r3, r1
 1001da6:	005b      	lsls	r3, r3, #1
 1001da8:	1ad3      	subs	r3, r2, r3
 1001daa:	b2db      	uxtb	r3, r3
 1001dac:	2b00      	cmp	r3, #0
 1001dae:	d001      	beq.n	1001db4 <IB_ZB_BB_REG_proc+0x2c>
 1001db0:	2301      	movs	r3, #1
 1001db2:	e049      	b.n	1001e48 <L0^A+0x74>
 1001db4:	69bb      	ldr	r3, [r7, #24]
 1001db6:	785b      	ldrb	r3, [r3, #1]
 1001db8:	4a26      	ldr	r2, [pc, #152]	; (1001e54 <.LCFI4>)
 1001dba:	fba2 2303 	umull	r2, r3, r2, r3
 1001dbe:	089b      	lsrs	r3, r3, #2
 1001dc0:	75fb      	strb	r3, [r7, #23]
 1001dc2:	687b      	ldr	r3, [r7, #4]
 1001dc4:	3302      	adds	r3, #2
 1001dc6:	607b      	str	r3, [r7, #4]
 1001dc8:	2300      	movs	r3, #0
 1001dca:	77fb      	strb	r3, [r7, #31]
 1001dcc:	e037      	b.n	1001e3e <L0^A+0x6a>
 1001dce:	687b      	ldr	r3, [r7, #4]
 1001dd0:	613b      	str	r3, [r7, #16]
 1001dd2:	693b      	ldr	r3, [r7, #16]

01001dd4 <L0^A>:
 1001dd4:	785b      	ldrb	r3, [r3, #1]
 1001dd6:	b29b      	uxth	r3, r3
 1001dd8:	021b      	lsls	r3, r3, #8
 1001dda:	b29a      	uxth	r2, r3
 1001ddc:	693b      	ldr	r3, [r7, #16]
 1001dde:	781b      	ldrb	r3, [r3, #0]
 1001de0:	b29b      	uxth	r3, r3
 1001de2:	4413      	add	r3, r2
 1001de4:	81fb      	strh	r3, [r7, #14]
 1001de6:	89fb      	ldrh	r3, [r7, #14]
 1001de8:	f103 4382 	add.w	r3, r3, #1090519040	; 0x41000000
 1001dec:	f503 3380 	add.w	r3, r3, #65536	; 0x10000
 1001df0:	60bb      	str	r3, [r7, #8]
 1001df2:	68bb      	ldr	r3, [r7, #8]
 1001df4:	693a      	ldr	r2, [r7, #16]
 1001df6:	7892      	ldrb	r2, [r2, #2]
 1001df8:	701a      	strb	r2, [r3, #0]
 1001dfa:	68bb      	ldr	r3, [r7, #8]
 1001dfc:	3301      	adds	r3, #1
 1001dfe:	461a      	mov	r2, r3
 1001e00:	693b      	ldr	r3, [r7, #16]
 1001e02:	78db      	ldrb	r3, [r3, #3]
 1001e04:	7013      	strb	r3, [r2, #0]
 1001e06:	68bb      	ldr	r3, [r7, #8]
 1001e08:	3302      	adds	r3, #2
 1001e0a:	461a      	mov	r2, r3
 1001e0c:	693b      	ldr	r3, [r7, #16]
 1001e0e:	791b      	ldrb	r3, [r3, #4]
 1001e10:	7013      	strb	r3, [r2, #0]
 1001e12:	68bb      	ldr	r3, [r7, #8]
 1001e14:	3303      	adds	r3, #3
 1001e16:	461a      	mov	r2, r3
 1001e18:	693b      	ldr	r3, [r7, #16]
 1001e1a:	795b      	ldrb	r3, [r3, #5]
 1001e1c:	7013      	strb	r3, [r2, #0]
 1001e1e:	89fb      	ldrh	r3, [r7, #14]
 1001e20:	2ba4      	cmp	r3, #164	; 0xa4
 1001e22:	d106      	bne.n	1001e32 <L0^A+0x5e>
 1001e24:	693b      	ldr	r3, [r7, #16]
 1001e26:	789b      	ldrb	r3, [r3, #2]
 1001e28:	f003 031f 	and.w	r3, r3, #31
 1001e2c:	b2da      	uxtb	r2, r3
 1001e2e:	4b0a      	ldr	r3, [pc, #40]	; (1001e58 <.LFE142+0x2>)
 1001e30:	701a      	strb	r2, [r3, #0]
 1001e32:	687b      	ldr	r3, [r7, #4]
 1001e34:	3306      	adds	r3, #6
 1001e36:	607b      	str	r3, [r7, #4]
 1001e38:	7ffb      	ldrb	r3, [r7, #31]
 1001e3a:	3301      	adds	r3, #1
 1001e3c:	77fb      	strb	r3, [r7, #31]
 1001e3e:	7ffa      	ldrb	r2, [r7, #31]
 1001e40:	7dfb      	ldrb	r3, [r7, #23]
 1001e42:	429a      	cmp	r2, r3
 1001e44:	d3c3      	bcc.n	1001dce <IB_ZB_BB_REG_proc+0x46>
 1001e46:	2300      	movs	r3, #0
 1001e48:	4618      	mov	r0, r3
 1001e4a:	3724      	adds	r7, #36	; 0x24
 1001e4c:	46bd      	mov	sp, r7
 1001e4e:	f85d 7b04 	ldr.w	r7, [sp], #4
 1001e52:	4770      	bx	lr
 1001e54:	aaaaaaab 	.word	0xaaaaaaab
 1001e58:	2000b742 	.word	0x2000b742

01001e5c <IB_ID_BAT_K_SAR_proc>:
 1001e5c:	b480      	push	{r7}
 1001e5e:	b085      	sub	sp, #20
 1001e60:	af00      	add	r7, sp, #0
 1001e62:	6078      	str	r0, [r7, #4]
 1001e64:	687b      	ldr	r3, [r7, #4]
 1001e66:	60fb      	str	r3, [r7, #12]
 1001e68:	68fb      	ldr	r3, [r7, #12]
 1001e6a:	785b      	ldrb	r3, [r3, #1]
 1001e6c:	2b04      	cmp	r3, #4
 1001e6e:	d119      	bne.n	1001ea4 <IB_ID_BAT_K_SAR_proc+0x48>
 1001e70:	68fb      	ldr	r3, [r7, #12]
 1001e72:	78db      	ldrb	r3, [r3, #3]
 1001e74:	b29b      	uxth	r3, r3
 1001e76:	021b      	lsls	r3, r3, #8
 1001e78:	b29a      	uxth	r2, r3
 1001e7a:	68fb      	ldr	r3, [r7, #12]
 1001e7c:	789b      	ldrb	r3, [r3, #2]
 1001e7e:	b29b      	uxth	r3, r3
 1001e80:	4413      	add	r3, r2
 1001e82:	b29a      	uxth	r2, r3
 1001e84:	4b09      	ldr	r3, [pc, #36]	; (1001eac <L0^A+0x4>)
 1001e86:	801a      	strh	r2, [r3, #0]
 1001e88:	68fb      	ldr	r3, [r7, #12]
 1001e8a:	795b      	ldrb	r3, [r3, #5]
 1001e8c:	b29b      	uxth	r3, r3
 1001e8e:	021b      	lsls	r3, r3, #8
 1001e90:	b29a      	uxth	r2, r3
 1001e92:	68fb      	ldr	r3, [r7, #12]
 1001e94:	791b      	ldrb	r3, [r3, #4]
 1001e96:	b29b      	uxth	r3, r3
 1001e98:	4413      	add	r3, r2
 1001e9a:	b29a      	uxth	r2, r3
 1001e9c:	4b04      	ldr	r3, [pc, #16]	; (1001eb0 <L0^A+0x8>)
 1001e9e:	801a      	strh	r2, [r3, #0]
 1001ea0:	2300      	movs	r3, #0
 1001ea2:	e000      	b.n	1001ea6 <IB_ID_BAT_K_SAR_proc+0x4a>
 1001ea4:	2301      	movs	r3, #1
 1001ea6:	Address 0x01001ea6 is out of bounds.


01001ea8 <L0^A>:
 1001ea8:	bf18      	it	ne
 1001eaa:	bf00      	nopne
 1001eac:	2000b558 	.word	0x2000b558
 1001eb0:	2000b55a 	.word	0x2000b55a

01001eb4 <IB_TEMPERATURE_DET_SAR_proc>:
 1001eb4:	b480      	push	{r7}
 1001eb6:	b085      	sub	sp, #20
 1001eb8:	af00      	add	r7, sp, #0
 1001eba:	6078      	str	r0, [r7, #4]
 1001ebc:	687b      	ldr	r3, [r7, #4]
 1001ebe:	60fb      	str	r3, [r7, #12]
 1001ec0:	68fb      	ldr	r3, [r7, #12]
 1001ec2:	785b      	ldrb	r3, [r3, #1]
 1001ec4:	2b02      	cmp	r3, #2
 1001ec6:	d10d      	bne.n	1001ee4 <IB_TEMPERATURE_DET_SAR_proc+0x30>
 1001ec8:	68fb      	ldr	r3, [r7, #12]
 1001eca:	78db      	ldrb	r3, [r3, #3]
 1001ecc:	b29b      	uxth	r3, r3
 1001ece:	021b      	lsls	r3, r3, #8
 1001ed0:	b29a      	uxth	r2, r3
 1001ed2:	68fb      	ldr	r3, [r7, #12]
 1001ed4:	789b      	ldrb	r3, [r3, #2]
 1001ed6:	b29b      	uxth	r3, r3
 1001ed8:	4413      	add	r3, r2
 1001eda:	b29a      	uxth	r2, r3
 1001edc:	4b03      	ldr	r3, [pc, #12]	; (1001eec <IB_TEMPERATURE_DET_SAR_proc+0x38>)
 1001ede:	801a      	strh	r2, [r3, #0]
 1001ee0:	2300      	movs	r3, #0
 1001ee2:	e000      	b.n	1001ee6 <IB_TEMPERATURE_DET_SAR_proc+0x32>
 1001ee4:	2301      	movs	r3, #1
 1001ee6:	f02f bef8 	b.w	1031cda <__pa_fn_0_113_10_0>
 1001eea:	bf00      	nop
 1001eec:	2000b740 	.word	0x2000b740

01001ef0 <IB_MAC_ADDR_proc>:
 1001ef0:	b480      	push	{r7}
 1001ef2:	b085      	sub	sp, #20
 1001ef4:	af00      	add	r7, sp, #0
 1001ef6:	6078      	str	r0, [r7, #4]
 1001ef8:	687b      	ldr	r3, [r7, #4]
 1001efa:	60fb      	str	r3, [r7, #12]
 1001efc:	68fb      	ldr	r3, [r7, #12]
 1001efe:	785b      	ldrb	r3, [r3, #1]
 1001f00:	2b08      	cmp	r3, #8
 1001f02:	d10a      	bne.n	1001f1a <L0^A+0x12>
 1001f04:	68fb      	ldr	r3, [r7, #12]
 1001f06:	1c9a      	adds	r2, r3, #2

01001f08 <L0^A>:
 1001f08:	4b07      	ldr	r3, [pc, #28]	; (1001f28 <L0^A+0x20>)
 1001f0a:	6810      	ldr	r0, [r2, #0]
 1001f0c:	6851      	ldr	r1, [r2, #4]
 1001f0e:	c303      	stmia	r3!, {r0, r1}
 1001f10:	4b06      	ldr	r3, [pc, #24]	; (1001f2c <L0^A+0x24>)
 1001f12:	2201      	movs	r2, #1
 1001f14:	701a      	strb	r2, [r3, #0]
 1001f16:	2300      	movs	r3, #0
 1001f18:	e000      	b.n	1001f1c <L0^A+0x14>
 1001f1a:	2301      	movs	r3, #1
 1001f1c:	4618      	mov	r0, r3
 1001f1e:	3714      	adds	r7, #20
 1001f20:	46bd      	mov	sp, r7
 1001f22:	f85d 7b04 	ldr.w	r7, [sp], #4
 1001f26:	4770      	bx	lr
 1001f28:	2000b550 	.word	0x2000b550
 1001f2c:	2000b54f 	.word	0x2000b54f

01001f30 <IB_CUSTOMER_INFO_proc>:
 1001f30:	b480      	push	{r7}
 1001f32:	b083      	sub	sp, #12
 1001f34:	af00      	add	r7, sp, #0
 1001f36:	6078      	str	r0, [r7, #4]
 1001f38:	2300      	movs	r3, #0
 1001f3a:	f02f bec8 	b.w	1031cce <__pa_fn_0_110_10_0>

01001f3e <IB_USE_FLASH_proc>:
 1001f3e:	b480      	push	{r7}
 1001f40:	b085      	sub	sp, #20
 1001f42:	af00      	add	r7, sp, #0
 1001f44:	6078      	str	r0, [r7, #4]
 1001f46:	687b      	ldr	r3, [r7, #4]
 1001f48:	60fb      	str	r3, [r7, #12]
 1001f4a:	687b      	ldr	r3, [r7, #4]

01001f4c <L0^A>:
 1001f4c:	3302      	adds	r3, #2
 1001f4e:	60bb      	str	r3, [r7, #8]
 1001f50:	68fb      	ldr	r3, [r7, #12]
 1001f52:	785b      	ldrb	r3, [r3, #1]
 1001f54:	2b04      	cmp	r3, #4
 1001f56:	d112      	bne.n	1001f7e <L0^A+0x32>
 1001f58:	68bb      	ldr	r3, [r7, #8]
 1001f5a:	78db      	ldrb	r3, [r3, #3]
 1001f5c:	061a      	lsls	r2, r3, #24
 1001f5e:	68bb      	ldr	r3, [r7, #8]
 1001f60:	789b      	ldrb	r3, [r3, #2]
 1001f62:	041b      	lsls	r3, r3, #16
 1001f64:	431a      	orrs	r2, r3
 1001f66:	68bb      	ldr	r3, [r7, #8]
 1001f68:	785b      	ldrb	r3, [r3, #1]
 1001f6a:	021b      	lsls	r3, r3, #8
 1001f6c:	4313      	orrs	r3, r2
 1001f6e:	68ba      	ldr	r2, [r7, #8]
 1001f70:	7812      	ldrb	r2, [r2, #0]
 1001f72:	4313      	orrs	r3, r2
 1001f74:	4a03      	ldr	r2, [pc, #12]	; (1001f84 <L0^A+0x38>)
 1001f76:	6013      	str	r3, [r2, #0]
 1001f78:	4b03      	ldr	r3, [pc, #12]	; (1001f88 <L0^A+0x3c>)
 1001f7a:	2201      	movs	r2, #1
 1001f7c:	701a      	strb	r2, [r3, #0]
 1001f7e:	2300      	movs	r3, #0
 1001f80:	f02f beab 	b.w	1031cda <__pa_fn_0_113_10_0>
 1001f84:	2000b540 	.word	0x2000b540
 1001f88:	2000b544 	.word	0x2000b544

01001f8c <IB_SearchNextValidBlock>:
 1001f8c:	b580      	push	{r7, lr}
 1001f8e:	f030 f929 	bl	10321e4 <__pa_fn_0_d0_01_0>
 1001f92:	e07f      	b.n	1002094 <.LBB3+0x2a>
 1001f94:	687b      	ldr	r3, [r7, #4]
 1001f96:	781b      	ldrb	r3, [r3, #0]
 1001f98:	b2db      	uxtb	r3, r3
 1001f9a:	2bff      	cmp	r3, #255	; 0xff
 1001f9c:	d123      	bne.n	1001fe6 <L0^A+0x44>
 1001f9e:	687b      	ldr	r3, [r7, #4]
 1001fa0:	Address 0x01001fa0 is out of bounds.


01001fa2 <L0^A>:
 1001fa2:	0303      	lsls	r3, r0, #12
 1001fa4:	2b00      	cmp	r3, #0
 1001fa6:	d103      	bne.n	1001fb0 <L0^A+0xe>
 1001fa8:	687b      	ldr	r3, [r7, #4]
 1001faa:	f043 437f 	orr.w	r3, r3, #4278190080	; 0xff000000
 1001fae:	e07a      	b.n	10020a6 <.LBB4+0x10>
 1001fb0:	687b      	ldr	r3, [r7, #4]
 1001fb2:	f023 0303 	bic.w	r3, r3, #3
 1001fb6:	3304      	adds	r3, #4
 1001fb8:	607b      	str	r3, [r7, #4]
 1001fba:	687a      	ldr	r2, [r7, #4]
 1001fbc:	683b      	ldr	r3, [r7, #0]
 1001fbe:	429a      	cmp	r2, r3
 1001fc0:	d302      	bcc.n	1001fc8 <L0^A+0x26>
 1001fc2:	f04f 33ff 	mov.w	r3, #4294967295
 1001fc6:	e06e      	b.n	10020a6 <.LBB4+0x10>
 1001fc8:	687b      	ldr	r3, [r7, #4]
 1001fca:	681b      	ldr	r3, [r3, #0]
 1001fcc:	f1b3 3fff 	cmp.w	r3, #4294967295
 1001fd0:	d109      	bne.n	1001fe6 <L0^A+0x44>
 1001fd2:	687b      	ldr	r3, [r7, #4]
 1001fd4:	3310      	adds	r3, #16
 1001fd6:	681b      	ldr	r3, [r3, #0]
 1001fd8:	f1b3 3fff 	cmp.w	r3, #4294967295
 1001fdc:	d103      	bne.n	1001fe6 <L0^A+0x44>
 1001fde:	687b      	ldr	r3, [r7, #4]
 1001fe0:	f043 437f 	orr.w	r3, r3, #4278190080	; 0xff000000
 1001fe4:	e05f      	b.n	10020a6 <.LBB4+0x10>
 1001fe6:	687b      	ldr	r3, [r7, #4]
 1001fe8:	613b      	str	r3, [r7, #16]
 1001fea:	693b      	ldr	r3, [r7, #16]
 1001fec:	781b      	ldrb	r3, [r3, #0]
 1001fee:	2b01      	cmp	r3, #1
 1001ff0:	d119      	bne.n	1002026 <L0^A+0x2e>
 1001ff2:	693b      	ldr	r3, [r7, #16]
 1001ff4:	785b      	ldrb	r3, [r3, #1]
 1001ff6:	2b01      	cmp	r3, #1

01001ff8 <L0^A>:
 1001ff8:	d115      	bne.n	1002026 <L0^A+0x2e>
 1001ffa:	693b      	ldr	r3, [r7, #16]
 1001ffc:	789b      	ldrb	r3, [r3, #2]
 1001ffe:	461a      	mov	r2, r3
 1002000:	687b      	ldr	r3, [r7, #4]
 1002002:	4413      	add	r3, r2
 1002004:	3305      	adds	r3, #5
 1002006:	60fb      	str	r3, [r7, #12]
 1002008:	687b      	ldr	r3, [r7, #4]
 100200a:	3303      	adds	r3, #3
 100200c:	4618      	mov	r0, r3
 100200e:	693b      	ldr	r3, [r7, #16]
 1002010:	789b      	ldrb	r3, [r3, #2]
 1002012:	b29b      	uxth	r3, r3
 1002014:	68fa      	ldr	r2, [r7, #12]
 1002016:	4619      	mov	r1, r3
 1002018:	f7ff fd92 	bl	1001b40 <IB_FW_CRC_Proc>
 100201c:	4603      	mov	r3, r0
 100201e:	2b00      	cmp	r3, #0
 1002020:	d101      	bne.n	1002026 <L0^A+0x2e>
 1002022:	687b      	ldr	r3, [r7, #4]
 1002024:	e03f      	b.n	10020a6 <.LBB4+0x10>
 1002026:	2300      	movs	r3, #0
 1002028:	75fb      	strb	r3, [r7, #23]
 100202a:	e030      	b.n	100208e <.LBB3+0x24>
 100202c:	683b      	ldr	r3, [r7, #0]
 100202e:	f1a3 0208 	sub.w	r2, r3, #8
 1002032:	687b      	ldr	r3, [r7, #4]
 1002034:	429a      	cmp	r2, r3
 1002036:	d800      	bhi.n	100203a <L0^A+0x42>
 1002038:	e02c      	b.n	1002094 <.LBB3+0x2a>
 100203a:	687b      	ldr	r3, [r7, #4]
 100203c:	681b      	ldr	r3, [r3, #0]
 100203e:	f1b3 3fff 	cmp.w	r3, #4294967295
 1002042:	d100      	bne.n	1002046 <L0^A+0x4e>
 1002044:	e026      	b.n	1002094 <.LBB3+0x2a>
 1002046:	687b      	ldr	r3, [r7, #4]
 1002048:	781b      	ldrb	r3, [r3, #0]
 100204a:	b2db      	uxtb	r3, r3
 100204c:	2bef      	cmp	r3, #239	; 0xef
 100204e:	d11b      	bne.n	1002088 <.LBB3+0x1e>
 1002050:	687b      	ldr	r3, [r7, #4]
 1002052:	3301      	adds	r3, #1
 1002054:	781b      	ldrb	r3, [r3, #0]
 1002056:	b2db      	uxtb	r3, r3
 1002058:	2b00      	cmp	r3, #0
 100205a:	d111      	bne.n	1002080 <.LBB3+0x16>
 100205c:	687b      	ldr	r3, [r7, #4]
 100205e:	3302      	adds	r3, #2
 1002060:	781b      	ldrb	r3, [r3, #0]
 1002062:	b2db      	uxtb	r3, r3
 1002064:	2bed      	cmp	r3, #237	; 0xed
 1002066:	d10b      	bne.n	1002080 <.LBB3+0x16>
 1002068:	687b      	ldr	r3, [r7, #4]

0100206a <.LBB3>:
 100206a:	3303      	adds	r3, #3
 100206c:	781b      	ldrb	r3, [r3, #0]
 100206e:	b2db      	uxtb	r3, r3
 1002070:	2b03      	cmp	r3, #3
 1002072:	d105      	bne.n	1002080 <.LBB3+0x16>
 1002074:	2301      	movs	r3, #1
 1002076:	75fb      	strb	r3, [r7, #23]
 1002078:	687b      	ldr	r3, [r7, #4]
 100207a:	3307      	adds	r3, #7
 100207c:	607b      	str	r3, [r7, #4]
 100207e:	e006      	b.n	100208e <.LBB3+0x24>
 1002080:	687b      	ldr	r3, [r7, #4]
 1002082:	3304      	adds	r3, #4
 1002084:	607b      	str	r3, [r7, #4]
 1002086:	e002      	b.n	100208e <.LBB3+0x24>
 1002088:	687b      	ldr	r3, [r7, #4]
 100208a:	3301      	adds	r3, #1
 100208c:	607b      	str	r3, [r7, #4]
 100208e:	7dfb      	ldrb	r3, [r7, #23]
 1002090:	2b00      	cmp	r3, #0
 1002092:	d0cb      	beq.n	100202c <L0^A+0x34>
 1002094:	683b      	ldr	r3, [r7, #0]

01002096 <.LBB4>:
 1002096:	f1a3 0208 	sub.w	r2, r3, #8
 100209a:	687b      	ldr	r3, [r7, #4]
 100209c:	429a      	cmp	r2, r3
 100209e:	f63f af79 	bhi.w	1001f94 <IB_SearchNextValidBlock+0x8>
 10020a2:	f04f 33ff 	mov.w	r3, #4294967295
 10020a6:	f030 bcda 	b.w	1032a5e <__pa_fn_0_10f_11_0>

010020aa <IB_LoadData>:
 10020aa:	b580      	push	{r7, lr}
 10020ac:	b086      	sub	sp, #24
 10020ae:	af00      	add	r7, sp, #0
 10020b0:	6078      	str	r0, [r7, #4]
 10020b2:	6039      	str	r1, [r7, #0]
 10020b4:	2300      	movs	r3, #0
 10020b6:	75fb      	strb	r3, [r7, #23]
 10020b8:	687b      	ldr	r3, [r7, #4]
 10020ba:	613b      	str	r3, [r7, #16]
 10020bc:	693b      	ldr	r3, [r7, #16]
 10020be:	789b      	ldrb	r3, [r3, #2]
 10020c0:	b29b      	uxth	r3, r3
 10020c2:	3303      	adds	r3, #3
 10020c4:	b29b      	uxth	r3, r3
 10020c6:	82bb      	strh	r3, [r7, #20]
 10020c8:	e106      	b.n	10022d8 <L0^A+0x1ba>
 10020ca:	687b      	ldr	r3, [r7, #4]
 10020cc:	60fb      	str	r3, [r7, #12]
 10020ce:	68fb      	ldr	r3, [r7, #12]
 10020d0:	60bb      	str	r3, [r7, #8]
 10020d2:	2300      	movs	r3, #0
 10020d4:	75fb      	strb	r3, [r7, #23]
 10020d6:	68bb      	ldr	r3, [r7, #8]
 10020d8:	781b      	ldrb	r3, [r3, #0]
 10020da:	3b06      	subs	r3, #6
 10020dc:	2b4f      	cmp	r3, #79	; 0x4f
 10020de:	f200 80df 	bhi.w	10022a0 <L0^A+0x182>
 10020e2:	a201      	add	r2, pc, #4	; (adr r2, 10020e8 <IB_LoadData+0x3e>)
 10020e4:	f852 f023 	ldr.w	pc, [r2, r3, lsl #2]
 10020e8:	01002229 	.word	0x01002229
 10020ec:	01002235 	.word	0x01002235
 10020f0:	01002241 	.word	0x01002241
 10020f4:	0100224d 	.word	0x0100224d
 10020f8:	01002259 	.word	0x01002259
 10020fc:	01002265 	.word	0x01002265
 1002100:	010022a1 	.word	0x010022a1

01002104 <.LBE4>:
 1002104:	010022a1 	.word	0x010022a1
 1002108:	010022a1 	.word	0x010022a1
 100210c:	010022a1 	.word	0x010022a1
 1002110:	01002271 	.word	0x01002271
 1002114:	010022a1 	.word	0x010022a1
 1002118:	010022a1 	.word	0x010022a1
 100211c:	22a1      	.short	0x22a1

0100211e <L0^A>:
 100211e:	0100      	.short	0x0100
 1002120:	010022a1 	.word	0x010022a1
 1002124:	0100227d 	.word	0x0100227d
 1002128:	01002289 	.word	0x01002289
 100212c:	010022a1 	.word	0x010022a1
 1002130:	010022a1 	.word	0x010022a1
 1002134:	010022a1 	.word	0x010022a1
 1002138:	010022a1 	.word	0x010022a1
 100213c:	010022a1 	.word	0x010022a1
 1002140:	010022a1 	.word	0x010022a1
 1002144:	010022a1 	.word	0x010022a1
 1002148:	010022a1 	.word	0x010022a1
 100214c:	010022a1 	.word	0x010022a1
 1002150:	010022a1 	.word	0x010022a1
 1002154:	010022a1 	.word	0x010022a1
 1002158:	010022a1 	.word	0x010022a1
 100215c:	010022a1 	.word	0x010022a1
 1002160:	010022a1 	.word	0x010022a1
 1002164:	010022a1 	.word	0x010022a1
 1002168:	010022a1 	.word	0x010022a1
 100216c:	010022a1 	.word	0x010022a1
 1002170:	010022a1 	.word	0x010022a1
 1002174:	010022a1 	.word	0x010022a1
 1002178:	010022a1 	.word	0x010022a1
 100217c:	010022a1 	.word	0x010022a1
 1002180:	010022a1 	.word	0x010022a1
 1002184:	010022a1 	.word	0x010022a1
 1002188:	010022a1 	.word	0x010022a1
 100218c:	010022a1 	.word	0x010022a1
 1002190:	010022a1 	.word	0x010022a1
 1002194:	010022a1 	.word	0x010022a1
 1002198:	010022a1 	.word	0x010022a1
 100219c:	010022a1 	.word	0x010022a1
 10021a0:	010022a1 	.word	0x010022a1
 10021a4:	010022a1 	.word	0x010022a1
 10021a8:	010022a1 	.word	0x010022a1
 10021ac:	010022a1 	.word	0x010022a1
 10021b0:	010022a1 	.word	0x010022a1
 10021b4:	010022a1 	.word	0x010022a1
 10021b8:	010022a1 	.word	0x010022a1
 10021bc:	010022a1 	.word	0x010022a1
 10021c0:	010022a1 	.word	0x010022a1
 10021c4:	010022a1 	.word	0x010022a1
 10021c8:	010022a1 	.word	0x010022a1
 10021cc:	010022a1 	.word	0x010022a1
 10021d0:	010022a1 	.word	0x010022a1
 10021d4:	010022a1 	.word	0x010022a1
 10021d8:	010022a1 	.word	0x010022a1
 10021dc:	010022a1 	.word	0x010022a1
 10021e0:	010022a1 	.word	0x010022a1
 10021e4:	010022a1 	.word	0x010022a1
 10021e8:	010022a1 	.word	0x010022a1
 10021ec:	010022a1 	.word	0x010022a1
 10021f0:	010022a1 	.word	0x010022a1
 10021f4:	010022a1 	.word	0x010022a1
 10021f8:	010022a1 	.word	0x010022a1
 10021fc:	010022a1 	.word	0x010022a1
 1002200:	010022a1 	.word	0x010022a1
 1002204:	010022a1 	.word	0x010022a1
 1002208:	010022a1 	.word	0x010022a1
 100220c:	010022a1 	.word	0x010022a1
 1002210:	010022a1 	.word	0x010022a1
 1002214:	010022a1 	.word	0x010022a1
 1002218:	010022a1 	.word	0x010022a1
 100221c:	010022a1 	.word	0x010022a1
 1002220:	010022a1 	.word	0x010022a1
 1002224:	01002295 	.word	0x01002295
 1002228:	68f8      	ldr	r0, [r7, #12]
 100222a:	f7ff fd2f 	bl	1001c8c <IB_BDADDR_proc>
 100222e:	4603      	mov	r3, r0
 1002230:	75fb      	strb	r3, [r7, #23]
 1002232:	e036      	b.n	10022a2 <L0^A+0x184>
 1002234:	68f8      	ldr	r0, [r7, #12]
 1002236:	f7ff fcb5 	bl	1001ba4 <IB_RF_REG_proc>
 100223a:	4603      	mov	r3, r0
 100223c:	75fb      	strb	r3, [r7, #23]
 100223e:	e030      	b.n	10022a2 <L0^A+0x184>
 1002240:	68f8      	ldr	r0, [r7, #12]
 1002242:	f7ff fce9 	bl	1001c18 <IB_PMU_REG_proc>
 1002246:	4603      	mov	r3, r0
 1002248:	75fb      	strb	r3, [r7, #23]
 100224a:	e02a      	b.n	10022a2 <L0^A+0x184>
 100224c:	68f8      	ldr	r0, [r7, #12]
 100224e:	f7ff fd41 	bl	1001cd4 <IB_BT_BB_REG_proc>
 1002252:	4603      	mov	r3, r0
 1002254:	75fb      	strb	r3, [r7, #23]
 1002256:	e024      	b.n	10022a2 <L0^A+0x184>
 1002258:	68f8      	ldr	r0, [r7, #12]
 100225a:	f7ff fd95 	bl	1001d88 <IB_ZB_BB_REG_proc>
 100225e:	4603      	mov	r3, r0
 1002260:	75fb      	strb	r3, [r7, #23]
 1002262:	e01e      	b.n	10022a2 <L0^A+0x184>
 1002264:	68f8      	ldr	r0, [r7, #12]
 1002266:	f7ff fdf9 	bl	1001e5c <IB_ID_BAT_K_SAR_proc>
 100226a:	4603      	mov	r3, r0
 100226c:	75fb      	strb	r3, [r7, #23]
 100226e:	e018      	b.n	10022a2 <L0^A+0x184>
 1002270:	68f8      	ldr	r0, [r7, #12]
 1002272:	f7ff fe1f 	bl	1001eb4 <IB_TEMPERATURE_DET_SAR_proc>
 1002276:	4603      	mov	r3, r0
 1002278:	75fb      	strb	r3, [r7, #23]
 100227a:	e012      	b.n	10022a2 <L0^A+0x184>
 100227c:	68f8      	ldr	r0, [r7, #12]
 100227e:	f7ff fe37 	bl	1001ef0 <IB_MAC_ADDR_proc>
 1002282:	4603      	mov	r3, r0
 1002284:	75fb      	strb	r3, [r7, #23]
 1002286:	e00c      	b.n	10022a2 <L0^A+0x184>
 1002288:	68f8      	ldr	r0, [r7, #12]
 100228a:	f7ff fe51 	bl	1001f30 <IB_CUSTOMER_INFO_proc>
 100228e:	4603      	mov	r3, r0
 1002290:	75fb      	strb	r3, [r7, #23]
 1002292:	e006      	b.n	10022a2 <L0^A+0x184>
 1002294:	68f8      	ldr	r0, [r7, #12]
 1002296:	f7ff fe52 	bl	1001f3e <IB_USE_FLASH_proc>
 100229a:	4603      	mov	r3, r0
 100229c:	75fb      	strb	r3, [r7, #23]
 100229e:	e000      	b.n	10022a2 <L0^A+0x184>
 10022a0:	bf00      	nop
 10022a2:	7dfb      	ldrb	r3, [r7, #23]
 10022a4:	2b01      	cmp	r3, #1
 10022a6:	d01c      	beq.n	10022e2 <L0^A+0x1c4>
 10022a8:	f9b7 3014 	ldrsh.w	r3, [r7, #20]
 10022ac:	2b00      	cmp	r3, #0
 10022ae:	dd18      	ble.n	10022e2 <L0^A+0x1c4>
 10022b0:	687a      	ldr	r2, [r7, #4]
 10022b2:	683b      	ldr	r3, [r7, #0]
 10022b4:	429a      	cmp	r2, r3
 10022b6:	d214      	bcs.n	10022e2 <L0^A+0x1c4>
 10022b8:	8aba      	ldrh	r2, [r7, #20]
 10022ba:	68bb      	ldr	r3, [r7, #8]
 10022bc:	785b      	ldrb	r3, [r3, #1]
 10022be:	b29b      	uxth	r3, r3
 10022c0:	1ad3      	subs	r3, r2, r3
 10022c2:	b29b      	uxth	r3, r3
 10022c4:	3b02      	subs	r3, #2
 10022c6:	b29b      	uxth	r3, r3
 10022c8:	82bb      	strh	r3, [r7, #20]
 10022ca:	68bb      	ldr	r3, [r7, #8]
 10022cc:	785b      	ldrb	r3, [r3, #1]
 10022ce:	461a      	mov	r2, r3
 10022d0:	687b      	ldr	r3, [r7, #4]
 10022d2:	4413      	add	r3, r2
 10022d4:	3302      	adds	r3, #2
 10022d6:	607b      	str	r3, [r7, #4]
 10022d8:	f9b7 3014 	ldrsh.w	r3, [r7, #20]
 10022dc:	2b00      	cmp	r3, #0
 10022de:	f73f aef4 	bgt.w	10020ca <IB_LoadData+0x20>
 10022e2:	7dfb      	ldrb	r3, [r7, #23]
 10022e4:	4618      	mov	r0, r3
 10022e6:	3718      	adds	r7, #24
 10022e8:	46bd      	mov	sp, r7
 10022ea:	bd80      	pop	{r7, pc}

010022ec <IB_Load>:
 10022ec:	b580      	push	{r7, lr}
 10022ee:	f02f ff7e 	bl	10321ee <__pa_fn_0_d8_01_0>
 10022f2:	2300      	movs	r3, #0
 10022f4:	75fb      	strb	r3, [r7, #23]
 10022f6:	79fb      	ldrb	r3, [r7, #7]
 10022f8:	2b00      	cmp	r3, #0
 10022fa:	d106      	bne.n	100230a <IB_Load+0x1e>
 10022fc:	f44f 43c0 	mov.w	r3, #24576	; 0x6000
 1002300:	613b      	str	r3, [r7, #16]
 1002302:	f44f 43e0 	mov.w	r3, #28672	; 0x7000
 1002306:	60fb      	str	r3, [r7, #12]
 1002308:	e02b      	b.n	1002362 <L0^A+0x2>
 100230a:	4b1b      	ldr	r3, [pc, #108]	; (1002378 <L0^A+0x18>)
 100230c:	781b      	ldrb	r3, [r3, #0]
 100230e:	2b00      	cmp	r3, #0
 1002310:	d101      	bne.n	1002316 <IB_Load+0x2a>
 1002312:	2385      	movs	r3, #133	; 0x85
 1002314:	e02e      	b.n	1002374 <L0^A+0x14>
 1002316:	4b19      	ldr	r3, [pc, #100]	; (100237c <L0^A+0x1c>)
 1002318:	681b      	ldr	r3, [r3, #0]
 100231a:	613b      	str	r3, [r7, #16]
 100231c:	4b17      	ldr	r3, [pc, #92]	; (100237c <L0^A+0x1c>)
 100231e:	681b      	ldr	r3, [r3, #0]
 1002320:	f503 5380 	add.w	r3, r3, #4096	; 0x1000
 1002324:	60fb      	str	r3, [r7, #12]
 1002326:	e01c      	b.n	1002362 <L0^A+0x2>
 1002328:	68f9      	ldr	r1, [r7, #12]
 100232a:	6938      	ldr	r0, [r7, #16]
 100232c:	f7ff fe2e 	bl	1001f8c <IB_SearchNextValidBlock>
 1002330:	6138      	str	r0, [r7, #16]
 1002332:	693b      	ldr	r3, [r7, #16]
 1002334:	60bb      	str	r3, [r7, #8]
 1002336:	693b      	ldr	r3, [r7, #16]
 1002338:	f003 437f 	and.w	r3, r3, #4278190080	; 0xff000000
 100233c:	2b00      	cmp	r3, #0
 100233e:	d115      	bne.n	100236c <L0^A+0xc>
 1002340:	693b      	ldr	r3, [r7, #16]
 1002342:	f1b3 3fff 	cmp.w	r3, #4294967295
 1002346:	d013      	beq.n	1002370 <L0^A+0x10>
 1002348:	68f9      	ldr	r1, [r7, #12]
 100234a:	6938      	ldr	r0, [r7, #16]
 100234c:	f7ff fead 	bl	10020aa <IB_LoadData>
 1002350:	4603      	mov	r3, r0
 1002352:	75fb      	strb	r3, [r7, #23]
 1002354:	68bb      	ldr	r3, [r7, #8]
 1002356:	789b      	ldrb	r3, [r3, #2]
 1002358:	461a      	mov	r2, r3
 100235a:	693b      	ldr	r3, [r7, #16]
 100235c:	4413      	add	r3, r2
 100235e:	330a      	adds	r3, #10

01002360 <L0^A>:
 1002360:	613b      	str	r3, [r7, #16]
 1002362:	693a      	ldr	r2, [r7, #16]
 1002364:	68fb      	ldr	r3, [r7, #12]
 1002366:	429a      	cmp	r2, r3
 1002368:	d3de      	bcc.n	1002328 <IB_Load+0x3c>
 100236a:	e002      	b.n	1002372 <L0^A+0x12>
 100236c:	bf00      	nop
 100236e:	e000      	b.n	1002372 <L0^A+0x12>
 1002370:	bf00      	nop
 1002372:	7dfb      	ldrb	r3, [r7, #23]
 1002374:	f030 bb73 	b.w	1032a5e <__pa_fn_0_10f_11_0>
 1002378:	2000b544 	.word	0x2000b544
 100237c:	2000b540 	.word	0x2000b540

01002380 <InformationBlockLoad>:
 1002380:	b580      	push	{r7, lr}
 1002382:	b082      	sub	sp, #8
 1002384:	af00      	add	r7, sp, #0
 1002386:	2000      	movs	r0, #0
 1002388:	f7ff ffb0 	bl	10022ec <IB_Load>
 100238c:	4603      	mov	r3, r0
 100238e:	71fb      	strb	r3, [r7, #7]
 1002390:	4b05      	ldr	r3, [pc, #20]	; (10023a8 <InformationBlockLoad+0x28>)
 1002392:	781b      	ldrb	r3, [r3, #0]
 1002394:	2b00      	cmp	r3, #0
 1002396:	d004      	beq.n	10023a2 <InformationBlockLoad+0x22>
 1002398:	2001      	movs	r0, #1
 100239a:	f7ff ffa7 	bl	10022ec <IB_Load>
 100239e:	4603      	mov	r3, r0
 10023a0:	71fb      	strb	r3, [r7, #7]
 10023a2:	79fb      	ldrb	r3, [r7, #7]
 10023a4:	f030 bb63 	b.w	1032a6e <__pa_fn_0_112_11_0>
 10023a8:	2000b544 	.word	0x2000b544

Disassembly of section .text.__ieee754_pow%89:

010023b0 <__ieee754_pow>:
 10023b0:	e92d 4ff0 	stmdb	sp!, {r4, r5, r6, r7, r8, r9, sl, fp, lr}

010023b4 <.LCFI0>:
 10023b4:	b091      	sub	sp, #68	; 0x44

010023b6 <.LCFI1>:
 10023b6:	ed8d 1b00 	vstr	d1, [sp]

010023ba <.LBB2>:
 10023ba:	e89d 0204 	ldmia.w	sp, {r2, r9}

010023be <.LBE2>:
 10023be:	ec57 6b10 	vmov	r6, r7, d0
 10023c2:	f029 4800 	bic.w	r8, r9, #2147483648	; 0x80000000
 10023c6:	ea58 0302 	orrs.w	r3, r8, r2

010023ca <.LBB3>:
 10023ca:	ee10 aa10 	vmov	sl, s0
 10023ce:	463d      	mov	r5, r7

010023d0 <.LBE3>:
 10023d0:	f000 847f 	beq.w	1002cd2 <.LVL248+0x2e>
 10023d4:	4b78      	ldr	r3, [pc, #480]	; (10025b8 <.LVL41+0x54>)
 10023d6:	f027 4400 	bic.w	r4, r7, #2147483648	; 0x80000000
 10023da:	429c      	cmp	r4, r3
 10023dc:	dc09      	bgt.n	10023f2 <.LBE3+0x22>
 10023de:	d103      	bne.n	10023e8 <.LBE3+0x18>
 10023e0:	b93e      	cbnz	r6, 10023f2 <.LBE3+0x22>
 10023e2:	45a0      	cmp	r8, r4
 10023e4:	dc0d      	bgt.n	1002402 <L0^A+0x6>
 10023e6:	e001      	b.n	10023ec <.LBE3+0x1c>
 10023e8:	4598      	cmp	r8, r3
 10023ea:	dc02      	bgt.n	10023f2 <.LBE3+0x22>
 10023ec:	4598      	cmp	r8, r3
 10023ee:	d10e      	bne.n	100240e <.LCFI4>
 10023f0:	b16a      	cbz	r2, 100240e <.LCFI4>
 10023f2:	f104 4440 	add.w	r4, r4, #3221225472	; 0xc0000000
 10023f6:	f504 1480 	add.w	r4, r4, #1048576	; 0x100000
 10023fa:	ea54 030a 	orrs.w	r3, r4, sl
 10023fe:	f000 8468 	beq.w	1002cd2 <.LVL248+0x2e>
 1002402:	486e      	ldr	r0, [pc, #440]	; (10025bc <.LVL41+0x58>)
 1002404:	b011      	add	sp, #68	; 0x44

01002406 <.LCFI2>:
 1002406:	e8bd 4ff0 	ldmia.w	sp!, {r4, r5, r6, r7, r8, r9, sl, fp, lr}

0100240a <.LCFI3>:
 100240a:	f02e bd4d 	b.w	1030ea8 <nan>

0100240e <.LCFI4>:
 100240e:	2d00      	cmp	r5, #0
 1002410:	da53      	bge.n	10024ba <.LVL21+0x6>
 1002412:	4b6b      	ldr	r3, [pc, #428]	; (10025c0 <.LVL41+0x5c>)
 1002414:	4598      	cmp	r8, r3
 1002416:	dc4d      	bgt.n	10024b4 <.LVL21>
 1002418:	f1a3 7354 	sub.w	r3, r3, #55574528	; 0x3500000
 100241c:	4598      	cmp	r8, r3
 100241e:	dd4c      	ble.n	10024ba <.LVL21+0x6>
 1002420:	ea4f 5328 	mov.w	r3, r8, asr #20
 1002424:	f2a3 33ff 	subw	r3, r3, #1023	; 0x3ff

01002428 <.LVL6>:
 1002428:	2b14      	cmp	r3, #20
 100242a:	dd26      	ble.n	100247a <.LCFI6>
 100242c:	f1c3 0334 	rsb	r3, r3, #52	; 0x34

01002430 <.LVL7>:
 1002430:	fa22 f103 	lsr.w	r1, r2, r3

01002434 <.LVL8>:
 1002434:	fa01 f303 	lsl.w	r3, r1, r3
 1002438:	429a      	cmp	r2, r3
 100243a:	d13e      	bne.n	10024ba <.LVL21+0x6>
 100243c:	f001 0101 	and.w	r1, r1, #1

01002440 <.LVL9>:
 1002440:	f1c1 0b02 	rsb	fp, r1, #2

01002444 <.LVL10>:
 1002444:	2a00      	cmp	r2, #0
 1002446:	d15b      	bne.n	1002500 <.LVL30>
 1002448:	4b5b      	ldr	r3, [pc, #364]	; (10025b8 <.LVL41+0x54>)
 100244a:	4598      	cmp	r8, r3
 100244c:	d124      	bne.n	1002498 <.LVL17>
 100244e:	f104 4340 	add.w	r3, r4, #3221225472	; 0xc0000000
 1002452:	f503 1380 	add.w	r3, r3, #1048576	; 0x100000
 1002456:	ea53 030a 	orrs.w	r3, r3, sl
 100245a:	f000 843a 	beq.w	1002cd2 <.LVL248+0x2e>
 100245e:	4b59      	ldr	r3, [pc, #356]	; (10025c4 <.LVL41+0x60>)
 1002460:	429c      	cmp	r4, r3
 1002462:	dd2d      	ble.n	10024c0 <.LVL22>
 1002464:	f1b9 0f00 	cmp.w	r9, #0
 1002468:	f280 8437 	bge.w	1002cda <.LVL248+0x36>

0100246c <.LVL11>:
 100246c:	2000      	movs	r0, #0
 100246e:	2100      	movs	r1, #0

01002470 <.LVL12>:
 1002470:	ec41 0b10 	vmov	d0, r0, r1
 1002474:	b011      	add	sp, #68	; 0x44

01002476 <.LCFI5>:
 1002476:	e8bd 8ff0 	ldmia.w	sp!, {r4, r5, r6, r7, r8, r9, sl, fp, pc}

0100247a <.LCFI6>:
 100247a:	2a00      	cmp	r2, #0
 100247c:	d13e      	bne.n	10024fc <.LCFI9>
 100247e:	f1c3 0314 	rsb	r3, r3, #20

01002482 <.LVL14>:
 1002482:	fa48 f103 	asr.w	r1, r8, r3

01002486 <.LVL15>:
 1002486:	fa01 f303 	lsl.w	r3, r1, r3
 100248a:	4598      	cmp	r8, r3
 100248c:	f040 842d 	bne.w	1002cea <.LVL254+0x6>
 1002490:	f001 0101 	and.w	r1, r1, #1

01002494 <.LVL16>:
 1002494:	f1c1 0b02 	rsb	fp, r1, #2

01002498 <.LVL17>:
 1002498:	4b4b      	ldr	r3, [pc, #300]	; (10025c8 <.LVL41+0x64>)
 100249a:	4598      	cmp	r8, r3
 100249c:	d118      	bne.n	10024d0 <.LVL22+0x10>
 100249e:	f1b9 0f00 	cmp.w	r9, #0
 10024a2:	f280 841e 	bge.w	1002ce2 <.LVL248+0x3e>
 10024a6:	4948      	ldr	r1, [pc, #288]	; (10025c8 <.LVL41+0x64>)
 10024a8:	4632      	mov	r2, r6

010024aa <.LVL18>:
 10024aa:	463b      	mov	r3, r7
 10024ac:	2000      	movs	r0, #0

010024ae <.LVL19>:
 10024ae:	f005 f81f 	bl	10074f0 <__aeabi_ddiv>

010024b2 <.LVL20>:
 10024b2:	e7dd      	b.n	1002470 <.LVL12>

010024b4 <.LVL21>:
 10024b4:	f04f 0b02 	mov.w	fp, #2
 10024b8:	e7c4      	b.n	1002444 <.LVL10>
 10024ba:	f04f 0b00 	mov.w	fp, #0
 10024be:	e7c1      	b.n	1002444 <.LVL10>

010024c0 <.LVL22>:
 10024c0:	f1b9 0f00 	cmp.w	r9, #0
 10024c4:	dad2      	bge.n	100246c <.LVL11>
 10024c6:	e89d 0009 	ldmia.w	sp, {r0, r3}
 10024ca:	f103 4100 	add.w	r1, r3, #2147483648	; 0x80000000
 10024ce:	e7cf      	b.n	1002470 <.LVL12>
 10024d0:	f1b9 4f80 	cmp.w	r9, #1073741824	; 0x40000000
 10024d4:	d106      	bne.n	10024e4 <.LVL27>
 10024d6:	4632      	mov	r2, r6

010024d8 <.LVL23>:
 10024d8:	463b      	mov	r3, r7

010024da <.LVL24>:
 10024da:	4610      	mov	r0, r2
 10024dc:	4619      	mov	r1, r3

010024de <.LVL25>:
 10024de:	f004 fedd 	bl	100729c <__aeabi_dmul>

010024e2 <.LVL26>:
 10024e2:	e7c5      	b.n	1002470 <.LVL12>

010024e4 <.LVL27>:
 10024e4:	4b39      	ldr	r3, [pc, #228]	; (10025cc <.LVL41+0x68>)
 10024e6:	4599      	cmp	r9, r3
 10024e8:	d10a      	bne.n	1002500 <.LVL30>
 10024ea:	2d00      	cmp	r5, #0
 10024ec:	db08      	blt.n	1002500 <.LVL30>
 10024ee:	ec47 6b10 	vmov	d0, r6, r7
 10024f2:	b011      	add	sp, #68	; 0x44

010024f4 <.LCFI7>:
 10024f4:	e8bd 4ff0 	ldmia.w	sp!, {r4, r5, r6, r7, r8, r9, sl, fp, lr}

010024f8 <.LCFI8>:
 10024f8:	f00f bd78 	b.w	1011fec <__ieee754_sqrt>

010024fc <.LCFI9>:
 10024fc:	f04f 0b00 	mov.w	fp, #0

01002500 <.LVL30>:
 1002500:	ec47 6b10 	vmov	d0, r6, r7
 1002504:	f02f fb94 	bl	1031c30 <fabs>

01002508 <.LVL31>:
 1002508:	ec51 0b10 	vmov	r0, r1, d0

0100250c <.LVL32>:
 100250c:	f1ba 0f00 	cmp.w	sl, #0
 1002510:	d127      	bne.n	1002562 <.LVL40>
 1002512:	b124      	cbz	r4, 100251e <.LVL33>
 1002514:	4b2c      	ldr	r3, [pc, #176]	; (10025c8 <.LVL41+0x64>)
 1002516:	f025 4240 	bic.w	r2, r5, #3221225472	; 0xc0000000
 100251a:	429a      	cmp	r2, r3
 100251c:	d121      	bne.n	1002562 <.LVL40>

0100251e <.LVL33>:
 100251e:	f1b9 0f00 	cmp.w	r9, #0
 1002522:	da05      	bge.n	1002530 <.LVL35>
 1002524:	4602      	mov	r2, r0
 1002526:	460b      	mov	r3, r1
 1002528:	2000      	movs	r0, #0

0100252a <.LVL34>:
 100252a:	4927      	ldr	r1, [pc, #156]	; (10025c8 <.LVL41+0x64>)
 100252c:	f004 ffe0 	bl	10074f0 <__aeabi_ddiv>

01002530 <.LVL35>:
 1002530:	2d00      	cmp	r5, #0
 1002532:	da9d      	bge.n	1002470 <.LVL12>
 1002534:	f104 4440 	add.w	r4, r4, #3221225472	; 0xc0000000
 1002538:	f504 1480 	add.w	r4, r4, #1048576	; 0x100000
 100253c:	ea54 030b 	orrs.w	r3, r4, fp
 1002540:	d108      	bne.n	1002554 <.LVL38>
 1002542:	4602      	mov	r2, r0
 1002544:	460b      	mov	r3, r1

01002546 <.LVL36>:
 1002546:	4610      	mov	r0, r2
 1002548:	4619      	mov	r1, r3
 100254a:	f006 fd9f 	bl	100908c <__aeabi_dsub>
 100254e:	4602      	mov	r2, r0
 1002550:	460b      	mov	r3, r1
 1002552:	e7ac      	b.n	10024ae <.LVL19>

01002554 <.LVL38>:
 1002554:	f1bb 0f01 	cmp.w	fp, #1
 1002558:	d18a      	bne.n	1002470 <.LVL12>
 100255a:	f101 4300 	add.w	r3, r1, #2147483648	; 0x80000000
 100255e:	4619      	mov	r1, r3

01002560 <.LVL39>:
 1002560:	e786      	b.n	1002470 <.LVL12>

01002562 <.LVL40>:
 1002562:	0fed      	lsrs	r5, r5, #31

01002564 <.LVL41>:
 1002564:	1e6b      	subs	r3, r5, #1
 1002566:	930d      	str	r3, [sp, #52]	; 0x34
 1002568:	ea5b 0303 	orrs.w	r3, fp, r3
 100256c:	d102      	bne.n	1002574 <.LVL41+0x10>
 100256e:	4632      	mov	r2, r6
 1002570:	463b      	mov	r3, r7
 1002572:	e7e8      	b.n	1002546 <.LVL36>
 1002574:	4b16      	ldr	r3, [pc, #88]	; (10025d0 <.LVL41+0x6c>)
 1002576:	4598      	cmp	r8, r3
 1002578:	f340 80f6 	ble.w	1002768 <.LVL83+0x42>
 100257c:	f103 7304 	add.w	r3, r3, #34603008	; 0x2100000
 1002580:	4598      	cmp	r8, r3
 1002582:	dd0a      	ble.n	100259a <.LVL41+0x36>
 1002584:	4b0f      	ldr	r3, [pc, #60]	; (10025c4 <.LVL41+0x60>)
 1002586:	429c      	cmp	r4, r3
 1002588:	dc0d      	bgt.n	10025a6 <.LVL41+0x42>
 100258a:	f1b9 0f00 	cmp.w	r9, #0
 100258e:	f6bf af6d 	bge.w	100246c <.LVL11>
 1002592:	a307      	add	r3, pc, #28	; (adr r3, 10025b0 <.LVL41+0x4c>)
 1002594:	e9d3 2300 	ldrd	r2, r3, [r3]
 1002598:	e79f      	b.n	10024da <.LVL24>
 100259a:	4b0e      	ldr	r3, [pc, #56]	; (10025d4 <.LVL41+0x70>)
 100259c:	429c      	cmp	r4, r3
 100259e:	ddf4      	ble.n	100258a <.LVL41+0x26>
 10025a0:	4b09      	ldr	r3, [pc, #36]	; (10025c8 <.LVL41+0x64>)
 10025a2:	429c      	cmp	r4, r3
 10025a4:	dd18      	ble.n	10025d8 <.LVL41+0x74>
 10025a6:	f1b9 0f00 	cmp.w	r9, #0
 10025aa:	dcf2      	bgt.n	1002592 <.LVL41+0x2e>
 10025ac:	e75e      	b.n	100246c <.LVL11>
 10025ae:	bf00      	nop
 10025b0:	8800759c 	.word	0x8800759c
 10025b4:	7e37e43c 	.word	0x7e37e43c
 10025b8:	7ff00000 	.word	0x7ff00000
 10025bc:	01032bf5 	.word	0x01032bf5
 10025c0:	433fffff 	.word	0x433fffff
 10025c4:	3fefffff 	.word	0x3fefffff
 10025c8:	3ff00000 	.word	0x3ff00000
 10025cc:	3fe00000 	.word	0x3fe00000
 10025d0:	41e00000 	.word	0x41e00000
 10025d4:	3feffffe 	.word	0x3feffffe
 10025d8:	2200      	movs	r2, #0
 10025da:	4b5f      	ldr	r3, [pc, #380]	; (1002758 <.LVL83+0x32>)
 10025dc:	f006 fd56 	bl	100908c <__aeabi_dsub>

010025e0 <.LVL42>:
 10025e0:	a351      	add	r3, pc, #324	; (adr r3, 1002728 <.LVL83+0x2>)
 10025e2:	f030 f9f6 	bl	10329d2 <__pa_fn_0_371_01_0>
 10025e6:	f004 fe59 	bl	100729c <__aeabi_dmul>

010025ea <.LVL43>:
 10025ea:	a351      	add	r3, pc, #324	; (adr r3, 1002730 <.LVL83+0xa>)
 10025ec:	e9d3 2300 	ldrd	r2, r3, [r3]
 10025f0:	f030 f9f4 	bl	10329dc <__pa_fn_0_372_01_0>
 10025f4:	Address 0x010025f4 is out of bounds.


010025f6 <.LVL45>:
 10025f6:	Address 0x010025f6 is out of bounds.


010025f8 <.LVL46>:
 10025f8:	2200      	movs	r2, #0
 10025fa:	e9cd 0102 	strd	r0, r1, [sp, #8]
 10025fe:	4b57      	ldr	r3, [pc, #348]	; (100275c <.LVL83+0x36>)
 1002600:	4620      	mov	r0, r4
 1002602:	4629      	mov	r1, r5
 1002604:	f004 fe4a 	bl	100729c <__aeabi_dmul>
 1002608:	4602      	mov	r2, r0
 100260a:	460b      	mov	r3, r1
 100260c:	a14a      	add	r1, pc, #296	; (adr r1, 1002738 <.LVL83+0x12>)
 100260e:	e9d1 0100 	ldrd	r0, r1, [r1]
 1002612:	f006 fd3b 	bl	100908c <__aeabi_dsub>
 1002616:	4622      	mov	r2, r4
 1002618:	462b      	mov	r3, r5
 100261a:	f004 fe3f 	bl	100729c <__aeabi_dmul>
 100261e:	4602      	mov	r2, r0
 1002620:	460b      	mov	r3, r1
 1002622:	2000      	movs	r0, #0
 1002624:	494e      	ldr	r1, [pc, #312]	; (1002760 <.LVL83+0x3a>)
 1002626:	f006 fd31 	bl	100908c <__aeabi_dsub>
 100262a:	4622      	mov	r2, r4
 100262c:	462b      	mov	r3, r5
 100262e:	4680      	mov	r8, r0
 1002630:	4689      	mov	r9, r1
 1002632:	4620      	mov	r0, r4
 1002634:	4629      	mov	r1, r5
 1002636:	Address 0x01002636 is out of bounds.


01002638 <.LVL52>:
 1002638:	Address 0x01002638 is out of bounds.


0100263a <.LVL53>:
 100263a:	f02f ff9a 	bl	1032572 <__pa_fn_0_212_01_0>
 100263e:	f004 fe2d 	bl	100729c <__aeabi_dmul>
 1002642:	a33f      	add	r3, pc, #252	; (adr r3, 1002740 <.LVL83+0x1a>)
 1002644:	e9d3 2300 	ldrd	r2, r3, [r3]
 1002648:	f004 fe28 	bl	100729c <__aeabi_dmul>
 100264c:	4602      	mov	r2, r0
 100264e:	460b      	mov	r3, r1
 1002650:	e9dd 0102 	ldrd	r0, r1, [sp, #8]
 1002654:	f006 fd1a 	bl	100908c <__aeabi_dsub>
 1002658:	4602      	mov	r2, r0
 100265a:	460b      	mov	r3, r1
 100265c:	4604      	mov	r4, r0
 100265e:	460d      	mov	r5, r1
 1002660:	4630      	mov	r0, r6
 1002662:	4639      	mov	r1, r7
 1002664:	f006 fd14 	bl	1009090 <__adddf3>
 1002668:	2000      	movs	r0, #0

0100266a <.LVL58>:
 100266a:	Address 0x0100266a is out of bounds.


0100266c <.LVL59>:
 100266c:	0104      	lsls	r4, r0, #4
 100266e:	4632      	mov	r2, r6
 1002670:	463b      	mov	r3, r7
 1002672:	Address 0x01002672 is out of bounds.


01002674 <.LBB4>:
 1002674:	Address 0x01002674 is out of bounds.


01002676 <.LVL61>:
 1002676:	4602      	mov	r2, r0
 1002678:	460b      	mov	r3, r1

0100267a <.LBE4>:
 100267a:	4620      	mov	r0, r4
 100267c:	4629      	mov	r1, r5

0100267e <.LBB5>:
 100267e:	f006 fd05 	bl	100908c <__aeabi_dsub>

01002682 <.LVL64>:
 1002682:	9a0d      	ldr	r2, [sp, #52]	; 0x34
 1002684:	f10b 33ff 	add.w	r3, fp, #4294967295
 1002688:	4313      	orrs	r3, r2
 100268a:	4606      	mov	r6, r0
 100268c:	460f      	mov	r7, r1

0100268e <.LBE5>:
 100268e:	f040 81c9 	bne.w	1002a24 <.LVL175>
 1002692:	ed9f 7b2d 	vldr	d7, [pc, #180]	; 1002748 <.LVL83+0x22>

01002696 <.LBB17>:
 1002696:	e9dd 4500 	ldrd	r4, r5, [sp]

0100269a <.LBE17>:
 100269a:	2400      	movs	r4, #0
 100269c:	4622      	mov	r2, r4
 100269e:	462b      	mov	r3, r5
 10026a0:	Address 0x010026a0 is out of bounds.


010026a2 <.LBB18>:
 10026a2:	0100      	lsls	r0, r0, #4
 10026a4:	ed8d 7b02 	vstr	d7, [sp, #8]

010026a8 <.LBE18>:
 10026a8:	f006 fcf0 	bl	100908c <__aeabi_dsub>
 10026ac:	e9dd 2304 	ldrd	r2, r3, [sp, #16]
 10026b0:	f004 fdf4 	bl	100729c <__aeabi_dmul>

010026b4 <.LVL68>:
 10026b4:	e9dd 2300 	ldrd	r2, r3, [sp]

010026b8 <.LVL69>:
 10026b8:	4680      	mov	r8, r0
 10026ba:	4689      	mov	r9, r1
 10026bc:	4630      	mov	r0, r6
 10026be:	4639      	mov	r1, r7
 10026c0:	f004 fdec 	bl	100729c <__aeabi_dmul>
 10026c4:	f02f ff55 	bl	1032572 <__pa_fn_0_212_01_0>
 10026c8:	f006 fce2 	bl	1009090 <__adddf3>
 10026cc:	4622      	mov	r2, r4
 10026ce:	462b      	mov	r3, r5
 10026d0:	4680      	mov	r8, r0
 10026d2:	4689      	mov	r9, r1
 10026d4:	e9dd 0104 	ldrd	r0, r1, [sp, #16]
 10026d8:	f004 fde0 	bl	100729c <__aeabi_dmul>
 10026dc:	460b      	mov	r3, r1
 10026de:	4604      	mov	r4, r0
 10026e0:	460d      	mov	r5, r1
 10026e2:	4602      	mov	r2, r0

010026e4 <.LVL73>:
 10026e4:	4649      	mov	r1, r9
 10026e6:	4640      	mov	r0, r8
 10026e8:	e9cd 4500 	strd	r4, r5, [sp]
 10026ec:	f006 fcd0 	bl	1009090 <__adddf3>

010026f0 <.LVL75>:
 10026f0:	4b1c      	ldr	r3, [pc, #112]	; (1002764 <.LVL83+0x3e>)
 10026f2:	4299      	cmp	r1, r3
 10026f4:	4606      	mov	r6, r0
 10026f6:	460f      	mov	r7, r1
 10026f8:	468b      	mov	fp, r1
 10026fa:	Address 0x010026fa is out of bounds.


010026fc <.LVL76>:
 10026fc:	82c3      	strh	r3, [r0, #22]
 10026fe:	f101 433f 	add.w	r3, r1, #3204448256	; 0xbf000000
 1002702:	f503 03e0 	add.w	r3, r3, #7340032	; 0x700000

01002706 <.LVL78>:
 1002706:	4303      	orrs	r3, r0

01002708 <.LBB19>:
 1002708:	Address 0x01002708 is out of bounds.


0100270a <.LBE19>:
 100270a:	81ca      	strh	r2, [r1, #14]
 100270c:	a310      	add	r3, pc, #64	; (adr r3, 1002750 <.LVL83+0x2a>)
 100270e:	e9d3 2300 	ldrd	r2, r3, [r3]
 1002712:	e9dd 0102 	ldrd	r0, r1, [sp, #8]

01002716 <.LVL81>:
 1002716:	f004 fdc1 	bl	100729c <__aeabi_dmul>
 100271a:	a30d      	add	r3, pc, #52	; (adr r3, 1002750 <.LVL83+0x2a>)

0100271c <.LVL82>:
 100271c:	e9d3 2300 	ldrd	r2, r3, [r3]
 1002720:	e6dd      	b.n	10024de <.LVL25>
 1002722:	bf00      	nop
 1002724:	Address 0x01002724 is out of bounds.


01002726 <.LVL83>:
 1002726:	8000      	strh	r0, [r0, #0]
 1002728:	60000000 	.word	0x60000000
 100272c:	3ff71547 	.word	0x3ff71547
 1002730:	f85ddf44 	.word	0xf85ddf44
 1002734:	3e54ae0b 	.word	0x3e54ae0b
 1002738:	55555555 	.word	0x55555555
 100273c:	3fd55555 	.word	0x3fd55555
 1002740:	652b82fe 	.word	0x652b82fe
 1002744:	3ff71547 	.word	0x3ff71547
 1002748:	00000000 	.word	0x00000000
 100274c:	bff00000 	.word	0xbff00000
 1002750:	8800759c 	.word	0x8800759c
 1002754:	7e37e43c 	.word	0x7e37e43c
 1002758:	3ff00000 	.word	0x3ff00000
 100275c:	3fd00000 	.word	0x3fd00000
 1002760:	3fe00000 	.word	0x3fe00000
 1002764:	408fffff 	.word	0x408fffff
 1002768:	f5b4 1f80 	cmp.w	r4, #1048576	; 0x100000
 100276c:	f04f 0200 	mov.w	r2, #0
 1002770:	da05      	bge.n	100277e <.LBB20+0x6>
 1002772:	4bc3      	ldr	r3, [pc, #780]	; (1002a80 <.LBE20+0xc>)
 1002774:	f004 fd92 	bl	100729c <__aeabi_dmul>

01002778 <.LBB20>:
 1002778:	f06f 0234 	mvn.w	r2, #52	; 0x34
 100277c:	460c      	mov	r4, r1
 100277e:	1523      	asrs	r3, r4, #20
 1002780:	f2a3 33ff 	subw	r3, r3, #1023	; 0x3ff
 1002784:	4413      	add	r3, r2
 1002786:	9307      	str	r3, [sp, #28]

01002788 <.LVL86>:
 1002788:	4bbe      	ldr	r3, [pc, #760]	; (1002a84 <.LBE20+0x10>)
 100278a:	Address 0x0100278a is out of bounds.


0100278c <.LBB6>:
 100278c:	0413      	lsls	r3, r2, #16

0100278e <.LBE6>:
 100278e:	f044 557f 	orr.w	r5, r4, #1069547520	; 0x3fc00000
 1002792:	429c      	cmp	r4, r3
 1002794:	f445 1540 	orr.w	r5, r5, #3145728	; 0x300000

01002798 <.LVL88>:
 1002798:	dd08      	ble.n	10027ac <.LVL91+0x4>

0100279a <.LVL89>:
 100279a:	4bbb      	ldr	r3, [pc, #748]	; (1002a88 <.LBE20+0x14>)
 100279c:	429c      	cmp	r4, r3

0100279e <.LVL90>:
 100279e:	f340 813e 	ble.w	1002a1e <.LVL171+0x24>
 10027a2:	9b07      	ldr	r3, [sp, #28]
 10027a4:	3301      	adds	r3, #1
 10027a6:	9307      	str	r3, [sp, #28]

010027a8 <.LVL91>:
 10027a8:	f5a5 1580 	sub.w	r5, r5, #1048576	; 0x100000
 10027ac:	f04f 0a00 	mov.w	sl, #0
 10027b0:	Address 0x010027b0 is out of bounds.


010027b2 <.LVL92>:
 10027b2:	03ca      	lsls	r2, r1, #15
 10027b4:	930c      	str	r3, [sp, #48]	; 0x30
 10027b6:	9a0c      	ldr	r2, [sp, #48]	; 0x30

010027b8 <.LVL93>:
 10027b8:	4bb4      	ldr	r3, [pc, #720]	; (1002a8c <.LBE20+0x18>)
 10027ba:	4413      	add	r3, r2

010027bc <.LVL94>:
 10027bc:	ed93 7b00 	vldr	d7, [r3]

010027c0 <.LVL95>:
 10027c0:	4629      	mov	r1, r5
 10027c2:	ec53 2b17 	vmov	r2, r3, d7
 10027c6:	ed8d 7b0a 	vstr	d7, [sp, #40]	; 0x28
 10027ca:	e9cd 0108 	strd	r0, r1, [sp, #32]
 10027ce:	Address 0x010027ce is out of bounds.


010027d0 <.LBB7>:
 10027d0:	Address 0x010027d0 is out of bounds.


010027d2 <.LBE7>:
 10027d2:	e9dd 230a 	ldrd	r2, r3, [sp, #40]	; 0x28
 10027d6:	4606      	mov	r6, r0
 10027d8:	460f      	mov	r7, r1

010027da <.LBB8>:
 10027da:	e9dd 0108 	ldrd	r0, r1, [sp, #32]

010027de <.LBE8>:
 10027de:	f006 fc57 	bl	1009090 <__adddf3>

010027e2 <.LVL98>:
 10027e2:	4602      	mov	r2, r0
 10027e4:	460b      	mov	r3, r1
 10027e6:	2000      	movs	r0, #0

010027e8 <.LVL99>:
 10027e8:	49a9      	ldr	r1, [pc, #676]	; (1002a90 <.LBE20+0x1c>)

010027ea <.LVL100>:
 10027ea:	f004 fe81 	bl	10074f0 <__aeabi_ddiv>
 10027ee:	e9cd 010e 	strd	r0, r1, [sp, #56]	; 0x38
 10027f2:	f02f fec3 	bl	103257c <__pa_fn_0_213_01_0>
 10027f6:	f004 fd51 	bl	100729c <__aeabi_dmul>
 10027fa:	e9cd 0104 	strd	r0, r1, [sp, #16]
 10027fe:	e9dd 3404 	ldrd	r3, r4, [sp, #16]

01002802 <.LVL103>:
 1002802:	e9cd 3402 	strd	r3, r4, [sp, #8]
 1002806:	2300      	movs	r3, #0

01002808 <.LVL104>:
 1002808:	9302      	str	r3, [sp, #8]
 100280a:	e9dd 8902 	ldrd	r8, r9, [sp, #8]
 100280e:	106d      	asrs	r5, r5, #1
 1002810:	Address 0x01002810 is out of bounds.


01002812 <.LBB9>:
 1002812:	5500      	strb	r0, [r0, r4]
 1002814:	f505 2500 	add.w	r5, r5, #524288	; 0x80000
 1002818:	2200      	movs	r2, #0
 100281a:	eb05 438a 	add.w	r3, r5, sl, lsl #18
 100281e:	4640      	mov	r0, r8
 1002820:	4649      	mov	r1, r9

01002822 <.LBB10>:
 1002822:	4614      	mov	r4, r2

01002824 <.LVL108>:
 1002824:	461d      	mov	r5, r3
 1002826:	f004 fd39 	bl	100729c <__aeabi_dmul>
 100282a:	f02f fea7 	bl	103257c <__pa_fn_0_213_01_0>
 100282e:	f006 fc2d 	bl	100908c <__aeabi_dsub>

01002832 <.LBE10>:
 1002832:	Address 0x01002832 is out of bounds.


01002834 <.LVL111>:
 1002834:	230a      	movs	r3, #10

01002836 <.LBB11>:
 1002836:	Address 0x01002836 is out of bounds.


01002838 <.LVL112>:
 1002838:	Address 0x01002838 is out of bounds.


0100283a <.LBE11>:
 100283a:	f006 fc27 	bl	100908c <__aeabi_dsub>

0100283e <.LVL114>:
 100283e:	4602      	mov	r2, r0
 1002840:	460b      	mov	r3, r1
 1002842:	e9dd 0108 	ldrd	r0, r1, [sp, #32]
 1002846:	f006 fc21 	bl	100908c <__aeabi_dsub>
 100284a:	4642      	mov	r2, r8
 100284c:	464b      	mov	r3, r9
 100284e:	Address 0x0100284e is out of bounds.


01002850 <.LVL116>:
 1002850:	fd25 f02f 	stc2	0, cr15, [r5, #-188]!	; 0xffffff44
 1002854:	fe93 f006 	cdp2	0, 9, cr15, cr3, cr6, {0}
 1002858:	fc19 e9dd 	ldc2	9, cr14, [r9], {221}	; 0xdd	; <UNPREDICTABLE>
 100285c:	230e      	movs	r3, #14
 100285e:	f004 fd1d 	bl	100729c <__aeabi_dmul>
 1002862:	e9dd 2304 	ldrd	r2, r3, [sp, #16]
 1002866:	e9cd 0108 	strd	r0, r1, [sp, #32]
 100286a:	4610      	mov	r0, r2
 100286c:	4619      	mov	r1, r3
 100286e:	f004 fd15 	bl	100729c <__aeabi_dmul>
 1002872:	a36f      	add	r3, pc, #444	; (adr r3, 1002a30 <.LVL175+0xc>)
 1002874:	f030 f8ad 	bl	10329d2 <__pa_fn_0_371_01_0>
 1002878:	f004 fd10 	bl	100729c <__aeabi_dmul>
 100287c:	a36e      	add	r3, pc, #440	; (adr r3, 1002a38 <.LVL178+0x2>)
 100287e:	e9d3 2300 	ldrd	r2, r3, [r3]
 1002882:	f006 fc05 	bl	1009090 <__adddf3>
 1002886:	4622      	mov	r2, r4
 1002888:	462b      	mov	r3, r5

0100288a <.LVL122>:
 100288a:	Address 0x0100288a is out of bounds.


0100288c <.LVL123>:
 100288c:	fd07 a36c 	stc2	3, cr10, [r7, #-432]	; 0xfffffe50
 1002890:	e9d3 2300 	ldrd	r2, r3, [r3]
 1002894:	f006 fbfc 	bl	1009090 <__adddf3>
 1002898:	4622      	mov	r2, r4
 100289a:	462b      	mov	r3, r5

0100289c <.LVL125>:
 100289c:	f004 fcfe 	bl	100729c <__aeabi_dmul>
 10028a0:	a369      	add	r3, pc, #420	; (adr r3, 1002a48 <.LVL178+0x12>)
 10028a2:	e9d3 2300 	ldrd	r2, r3, [r3]
 10028a6:	f006 fbf3 	bl	1009090 <__adddf3>
 10028aa:	4622      	mov	r2, r4
 10028ac:	462b      	mov	r3, r5
 10028ae:	f004 fcf5 	bl	100729c <__aeabi_dmul>
 10028b2:	a367      	add	r3, pc, #412	; (adr r3, 1002a50 <.LVL178+0x1a>)
 10028b4:	e9d3 2300 	ldrd	r2, r3, [r3]
 10028b8:	f006 fbea 	bl	1009090 <__adddf3>
 10028bc:	4622      	mov	r2, r4
 10028be:	462b      	mov	r3, r5
 10028c0:	f004 fcec 	bl	100729c <__aeabi_dmul>
 10028c4:	a364      	add	r3, pc, #400	; (adr r3, 1002a58 <.LBB16>)
 10028c6:	e9d3 2300 	ldrd	r2, r3, [r3]
 10028ca:	f006 fbe1 	bl	1009090 <__adddf3>
 10028ce:	4622      	mov	r2, r4
 10028d0:	4606      	mov	r6, r0
 10028d2:	460f      	mov	r7, r1
 10028d4:	462b      	mov	r3, r5
 10028d6:	4620      	mov	r0, r4
 10028d8:	4629      	mov	r1, r5
 10028da:	f004 fcdf 	bl	100729c <__aeabi_dmul>
 10028de:	f02f fe4d 	bl	103257c <__pa_fn_0_213_01_0>
 10028e2:	f004 fcdb 	bl	100729c <__aeabi_dmul>
 10028e6:	4642      	mov	r2, r8
 10028e8:	4604      	mov	r4, r0
 10028ea:	460d      	mov	r5, r1
 10028ec:	464b      	mov	r3, r9
 10028ee:	e9dd 0104 	ldrd	r0, r1, [sp, #16]
 10028f2:	f006 fbcd 	bl	1009090 <__adddf3>
 10028f6:	e9dd 2308 	ldrd	r2, r3, [sp, #32]
 10028fa:	f004 fccf 	bl	100729c <__aeabi_dmul>
 10028fe:	4622      	mov	r2, r4
 1002900:	462b      	mov	r3, r5
 1002902:	f006 fbc5 	bl	1009090 <__adddf3>
 1002906:	f02f f970 	bl	1031bea <__pa_fn_0_373_01_0>
 100290a:	f004 fcc7 	bl	100729c <__aeabi_dmul>
 100290e:	2200      	movs	r2, #0
 1002910:	4b60      	ldr	r3, [pc, #384]	; (1002a94 <.LBE20+0x20>)

01002912 <.LVL138>:
 1002912:	Address 0x01002912 is out of bounds.


01002914 <.LVL139>:
 1002914:	010a      	lsls	r2, r1, #4
 1002916:	f006 fbbb 	bl	1009090 <__adddf3>
 100291a:	4632      	mov	r2, r6
 100291c:	463b      	mov	r3, r7
 100291e:	f006 fbb7 	bl	1009090 <__adddf3>
 1002922:	9802      	ldr	r0, [sp, #8]
 1002924:	460d      	mov	r5, r1
 1002926:	4604      	mov	r4, r0
 1002928:	f02f fe23 	bl	1032572 <__pa_fn_0_212_01_0>
 100292c:	f004 fcb6 	bl	100729c <__aeabi_dmul>
 1002930:	2200      	movs	r2, #0
 1002932:	4680      	mov	r8, r0

01002934 <.LVL143>:
 1002934:	4689      	mov	r9, r1
 1002936:	4b57      	ldr	r3, [pc, #348]	; (1002a94 <.LBE20+0x20>)
 1002938:	4620      	mov	r0, r4
 100293a:	4629      	mov	r1, r5
 100293c:	f006 fba6 	bl	100908c <__aeabi_dsub>
 1002940:	e9dd 230a 	ldrd	r2, r3, [sp, #40]	; 0x28
 1002944:	Address 0x01002944 is out of bounds.


01002946 <.LVL145>:
 1002946:	fba2 f02f 			; <UNDEFINED> instruction: 0xfba2f02f

0100294a <.LVL146>:
 100294a:	fe18 f006 	cdp2	0, 1, cr15, cr8, cr6, {0}
 100294e:	fb9e e9dd 			; <UNDEFINED> instruction: 0xfb9ee9dd

01002952 <.LBB12>:
 1002952:	2304      	movs	r3, #4

01002954 <.LVL148>:
 1002954:	Address 0x01002954 is out of bounds.


01002956 <.LVL149>:
 1002956:	Address 0x01002956 is out of bounds.


01002958 <.LBE12>:
 1002958:	4622      	mov	r2, r4
 100295a:	4606      	mov	r6, r0
 100295c:	460f      	mov	r7, r1

0100295e <.LVL150>:
 100295e:	462b      	mov	r3, r5
 1002960:	e9dd 0108 	ldrd	r0, r1, [sp, #32]
 1002964:	f004 fc9a 	bl	100729c <__aeabi_dmul>

01002968 <.LVL152>:
 1002968:	Address 0x01002968 is out of bounds.


0100296a <.LVL153>:
 100296a:	fe08 f006 	cdp2	0, 0, cr15, cr8, cr6, {0}
 100296e:	fb90 4606 			; <UNDEFINED> instruction: 0xfb904606
 1002972:	460f      	mov	r7, r1
 1002974:	f02f fdfd 	bl	1032572 <__pa_fn_0_212_01_0>
 1002978:	f006 fb8a 	bl	1009090 <__adddf3>
 100297c:	9802      	ldr	r0, [sp, #8]
 100297e:	a338      	add	r3, pc, #224	; (adr r3, 1002a60 <.LVL184>)
 1002980:	f030 f827 	bl	10329d2 <__pa_fn_0_371_01_0>
 1002984:	f004 fc8a 	bl	100729c <__aeabi_dmul>
 1002988:	4642      	mov	r2, r8
 100298a:	e9cd 0108 	strd	r0, r1, [sp, #32]
 100298e:	464b      	mov	r3, r9
 1002990:	4620      	mov	r0, r4
 1002992:	4629      	mov	r1, r5

01002994 <.LVL158>:
 1002994:	f006 fb7a 	bl	100908c <__aeabi_dsub>
 1002998:	f02f fdf0 	bl	103257c <__pa_fn_0_213_01_0>
 100299c:	f006 fb76 	bl	100908c <__aeabi_dsub>
 10029a0:	a331      	add	r3, pc, #196	; (adr r3, 1002a68 <.LVL184+0x8>)
 10029a2:	e9d3 2300 	ldrd	r2, r3, [r3]
 10029a6:	f004 fc79 	bl	100729c <__aeabi_dmul>
 10029aa:	a331      	add	r3, pc, #196	; (adr r3, 1002a70 <.LVL186+0x2>)
 10029ac:	e9d3 2300 	ldrd	r2, r3, [r3]

010029b0 <.LVL161>:
 10029b0:	f030 f814 	bl	10329dc <__pa_fn_0_372_01_0>
 10029b4:	f004 fc72 	bl	100729c <__aeabi_dmul>
 10029b8:	f02f fde0 	bl	103257c <__pa_fn_0_213_01_0>

010029bc <.LBB13>:
 10029bc:	Address 0x010029bc is out of bounds.


010029be <.LBE13>:
 10029be:	fb68 9a0c 	smmls	sl, r8, ip, r9
 10029c2:	4b35      	ldr	r3, [pc, #212]	; (1002a98 <.LBE20+0x24>)

010029c4 <.LBB14>:
 10029c4:	4413      	add	r3, r2
 10029c6:	Address 0x010029c6 is out of bounds.


010029c8 <.LBE14>:
 10029c8:	2300      	movs	r3, #0
 10029ca:	Address 0x010029ca is out of bounds.


010029cc <.LVL165>:
 10029cc:	fb61 4604 	smmls	r6, r1, r4, r4
 10029d0:	9807      	ldr	r0, [sp, #28]

010029d2 <.LVL166>:
 10029d2:	460d      	mov	r5, r1
 10029d4:	Address 0x010029d4 is out of bounds.


010029d6 <.LVL167>:
 10029d6:	fca8 9a0c 	stc2	10, cr9, [r8], #48	; 0x30	; <UNPREDICTABLE>
 10029da:	4b30      	ldr	r3, [pc, #192]	; (1002a9c <.LBE20+0x28>)
 10029dc:	4413      	add	r3, r2
 10029de:	e9d3 8900 	ldrd	r8, r9, [r3]
 10029e2:	4606      	mov	r6, r0
 10029e4:	460f      	mov	r7, r1
 10029e6:	4622      	mov	r2, r4
 10029e8:	462b      	mov	r3, r5
 10029ea:	e9dd 0108 	ldrd	r0, r1, [sp, #32]
 10029ee:	f006 fb4f 	bl	1009090 <__adddf3>
 10029f2:	4642      	mov	r2, r8
 10029f4:	464b      	mov	r3, r9
 10029f6:	f006 fb4b 	bl	1009090 <__adddf3>

010029fa <.LVL171>:
 10029fa:	4632      	mov	r2, r6
 10029fc:	463b      	mov	r3, r7
 10029fe:	f006 fb47 	bl	1009090 <__adddf3>
 1002a02:	9802      	ldr	r0, [sp, #8]
 1002a04:	4632      	mov	r2, r6
 1002a06:	463b      	mov	r3, r7
 1002a08:	e9cd 0104 	strd	r0, r1, [sp, #16]
 1002a0c:	f006 fb3e 	bl	100908c <__aeabi_dsub>
 1002a10:	4642      	mov	r2, r8
 1002a12:	464b      	mov	r3, r9
 1002a14:	f006 fb3a 	bl	100908c <__aeabi_dsub>
 1002a18:	e9dd 2308 	ldrd	r2, r3, [sp, #32]
 1002a1c:	e629      	b.n	1002672 <.LVL59+0x6>
 1002a1e:	f04f 0a01 	mov.w	sl, #1
 1002a22:	e6c5      	b.n	10027b0 <.LVL91+0x8>

01002a24 <.LVL175>:
 1002a24:	ed9f 7b14 	vldr	d7, [pc, #80]	; 1002a78 <.LBE20+0x4>
 1002a28:	e635      	b.n	1002696 <.LBB17>
 1002a2a:	bf00      	nop
 1002a2c:	f3af 8000 	nop.w
 1002a30:	4eef      	.short	0x4eef

01002a32 <.LVL177>:
 1002a32:	4a45      	.short	0x4a45
 1002a34:	7e28      	.short	0x7e28

01002a36 <.LVL178>:
 1002a36:	3fca      	.short	0x3fca
 1002a38:	93c9db65 	.word	0x93c9db65
 1002a3c:	3fcd864a 	.word	0x3fcd864a
 1002a40:	a91d4101 	.word	0xa91d4101
 1002a44:	3fd17460 	.word	0x3fd17460
 1002a48:	518f264d 	.word	0x518f264d
 1002a4c:	3fd55555 	.word	0x3fd55555
 1002a50:	abff      	.short	0xabff

01002a52 <.LBB15>:
 1002a52:	db6f      	.short	0xdb6f

01002a54 <.LBE15>:
 1002a54:	3fdb6db6 	.word	0x3fdb6db6

01002a58 <.LBB16>:
 1002a58:	33333303 	.word	0x33333303

01002a5c <.LBE16>:
 1002a5c:	3fe33333 	.word	0x3fe33333

01002a60 <.LVL184>:
 1002a60:	e0000000 	.word	0xe0000000
 1002a64:	3feec709 	.word	0x3feec709
 1002a68:	dc3a03fd 	.word	0xdc3a03fd
 1002a6c:	c709      	.short	0xc709

01002a6e <.LVL186>:
 1002a6e:	3fee      	.short	0x3fee
 1002a70:	145b01f5 	.word	0x145b01f5

01002a74 <.LBE20>:
 1002a74:	be3e2fe0 	.word	0xbe3e2fe0
 1002a78:	00000000 	.word	0x00000000
 1002a7c:	3ff00000 	.word	0x3ff00000
 1002a80:	43400000 	.word	0x43400000
 1002a84:	0003988e 	.word	0x0003988e
 1002a88:	000bb679 	.word	0x000bb679
 1002a8c:	01030b38 	.word	0x01030b38
 1002a90:	3ff00000 	.word	0x3ff00000
 1002a94:	40080000 	.word	0x40080000
 1002a98:	01030b58 	.word	0x01030b58
 1002a9c:	01030b48 	.word	0x01030b48
 1002aa0:	a3ab      	add	r3, pc, #684	; (adr r3, 1002d50 <.LBE26+0x2>)
 1002aa2:	e9d3 2300 	ldrd	r2, r3, [r3]
 1002aa6:	4640      	mov	r0, r8
 1002aa8:	4649      	mov	r1, r9
 1002aaa:	f006 faf1 	bl	1009090 <__adddf3>
 1002aae:	4622      	mov	r2, r4
 1002ab0:	e9cd 0104 	strd	r0, r1, [sp, #16]
 1002ab4:	462b      	mov	r3, r5
 1002ab6:	4630      	mov	r0, r6
 1002ab8:	4639      	mov	r1, r7
 1002aba:	f006 fae7 	bl	100908c <__aeabi_dsub>
 1002abe:	4602      	mov	r2, r0
 1002ac0:	460b      	mov	r3, r1
 1002ac2:	e9dd 0104 	ldrd	r0, r1, [sp, #16]
 1002ac6:	f012 fe4b 	bl	1015760 <__aeabi_dcmpgt>
 1002aca:	2800      	cmp	r0, #0
 1002acc:	f47f ae1e 	bne.w	100270c <.LBE19+0x2>
 1002ad0:	4a9a      	ldr	r2, [pc, #616]	; (1002d3c <.LVL264+0xc>)
 1002ad2:	f02b 4300 	bic.w	r3, fp, #2147483648	; 0x80000000
 1002ad6:	4293      	cmp	r3, r2
 1002ad8:	f340 80f6 	ble.w	1002cc8 <.LVL248+0x24>
 1002adc:	151b      	asrs	r3, r3, #20
 1002ade:	f44f 1a80 	mov.w	sl, #1048576	; 0x100000
 1002ae2:	f2a3 33fe 	subw	r3, r3, #1022	; 0x3fe
 1002ae6:	fa4a f303 	asr.w	r3, sl, r3
 1002aea:	445b      	add	r3, fp
 1002aec:	f3c3 520a 	ubfx	r2, r3, #20, #11

01002af0 <.LVL188>:
 1002af0:	4e93      	ldr	r6, [pc, #588]	; (1002d40 <.LVL264+0x10>)
 1002af2:	f2a2 32ff 	subw	r2, r2, #1023	; 0x3ff
 1002af6:	4116      	asrs	r6, r2

01002af8 <.LVL189>:
 1002af8:	Address 0x01002af8 is out of bounds.


01002afa <.LVL190>:
 1002afa:	0a13      	lsrs	r3, r2, #8
 1002afc:	2000      	movs	r0, #0
 1002afe:	ea23 0106 	bic.w	r1, r3, r6
 1002b02:	Address 0x01002b02 is out of bounds.


01002b04 <.LVL192>:
 1002b04:	0214      	lsls	r4, r2, #8
 1002b06:	f44a 1a80 	orr.w	sl, sl, #1048576	; 0x100000
 1002b0a:	fa4a fa02 	asr.w	sl, sl, r2
 1002b0e:	f1bb 0f00 	cmp.w	fp, #0
 1002b12:	4602      	mov	r2, r0
 1002b14:	460b      	mov	r3, r1
 1002b16:	4620      	mov	r0, r4
 1002b18:	4629      	mov	r1, r5
 1002b1a:	bfb8      	it	lt
 1002b1c:	f1ca 0a00 	rsblt	sl, sl, #0

01002b20 <.LVL195>:
 1002b20:	f006 fab4 	bl	100908c <__aeabi_dsub>
 1002b24:	Address 0x01002b24 is out of bounds.


01002b26 <.LVL196>:
 1002b26:	0100      	lsls	r0, r0, #4
 1002b28:	4642      	mov	r2, r8
 1002b2a:	464b      	mov	r3, r9
 1002b2c:	Address 0x01002b2c is out of bounds.


01002b2e <.LVL197>:
 1002b2e:	0100      	lsls	r0, r0, #4
 1002b30:	f006 faae 	bl	1009090 <__adddf3>
 1002b34:	2000      	movs	r0, #0

01002b36 <.LVL198>:
 1002b36:	a36f      	add	r3, pc, #444	; (adr r3, 1002cf4 <.LVL256>)
 1002b38:	Address 0x01002b38 is out of bounds.


01002b3a <.LVL199>:
 1002b3a:	Address 0x01002b3a is out of bounds.


01002b3c <.LVL200>:
 1002b3c:	f004 fbae 	bl	100729c <__aeabi_dmul>

01002b40 <.LBB21>:
 1002b40:	Address 0x01002b40 is out of bounds.


01002b42 <.LBE21>:
 1002b42:	2300      	movs	r3, #0
 1002b44:	Address 0x01002b44 is out of bounds.


01002b46 <.LBB22>:
 1002b46:	Address 0x01002b46 is out of bounds.


01002b48 <.LBE22>:
 1002b48:	f006 faa0 	bl	100908c <__aeabi_dsub>

01002b4c <.LBB23>:
 1002b4c:	f02f fd11 	bl	1032572 <__pa_fn_0_212_01_0>
 1002b50:	Address 0x01002b50 is out of bounds.


01002b52 <.LBE23>:
 1002b52:	fa9c a369 			; <UNDEFINED> instruction: 0xfa9ca369

01002b56 <.LVL204>:
 1002b56:	e9d3 2300 	ldrd	r2, r3, [r3]
 1002b5a:	f004 fb9f 	bl	100729c <__aeabi_dmul>

01002b5e <.LVL205>:
 1002b5e:	a369      	add	r3, pc, #420	; (adr r3, 1002d04 <.LVL258+0x2>)
 1002b60:	e9d3 2300 	ldrd	r2, r3, [r3]
 1002b64:	4680      	mov	r8, r0

01002b66 <.LVL206>:
 1002b66:	4689      	mov	r9, r1

01002b68 <.LVL207>:
 1002b68:	4620      	mov	r0, r4
 1002b6a:	4629      	mov	r1, r5
 1002b6c:	f004 fb96 	bl	100729c <__aeabi_dmul>
 1002b70:	f02f fcff 	bl	1032572 <__pa_fn_0_212_01_0>
 1002b74:	f006 fa8c 	bl	1009090 <__adddf3>

01002b78 <.LVL210>:
 1002b78:	4604      	mov	r4, r0
 1002b7a:	460d      	mov	r5, r1
 1002b7c:	f02f fcfe 	bl	103257c <__pa_fn_0_213_01_0>
 1002b80:	f006 fa86 	bl	1009090 <__adddf3>

01002b84 <.LBB24>:
 1002b84:	4632      	mov	r2, r6

01002b86 <.LBE24>:
 1002b86:	463b      	mov	r3, r7
 1002b88:	4680      	mov	r8, r0
 1002b8a:	4689      	mov	r9, r1

01002b8c <.LBB25>:
 1002b8c:	f006 fa7e 	bl	100908c <__aeabi_dsub>

01002b90 <.LBE25>:
 1002b90:	4602      	mov	r2, r0
 1002b92:	460b      	mov	r3, r1

01002b94 <.LVL214>:
 1002b94:	4620      	mov	r0, r4
 1002b96:	4629      	mov	r1, r5
 1002b98:	f006 fa78 	bl	100908c <__aeabi_dsub>

01002b9c <.LVL215>:
 1002b9c:	f02f f825 	bl	1031bea <__pa_fn_0_373_01_0>
 1002ba0:	f004 fb7c 	bl	100729c <__aeabi_dmul>
 1002ba4:	a359      	add	r3, pc, #356	; (adr r3, 1002d0c <.LVL259>)
 1002ba6:	f02f ff14 	bl	10329d2 <__pa_fn_0_371_01_0>
 1002baa:	f004 fb77 	bl	100729c <__aeabi_dmul>
 1002bae:	a359      	add	r3, pc, #356	; (adr r3, 1002d14 <.LVL260+0x4>)
 1002bb0:	e9d3 2300 	ldrd	r2, r3, [r3]
 1002bb4:	f006 fa6a 	bl	100908c <__aeabi_dsub>
 1002bb8:	4622      	mov	r2, r4
 1002bba:	462b      	mov	r3, r5
 1002bbc:	f004 fb6e 	bl	100729c <__aeabi_dmul>
 1002bc0:	a356      	add	r3, pc, #344	; (adr r3, 1002d1c <.LVL261+0x2>)

01002bc2 <.LVL219>:
 1002bc2:	e9d3 2300 	ldrd	r2, r3, [r3]
 1002bc6:	f006 fa63 	bl	1009090 <__adddf3>
 1002bca:	4622      	mov	r2, r4
 1002bcc:	462b      	mov	r3, r5
 1002bce:	f004 fb65 	bl	100729c <__aeabi_dmul>
 1002bd2:	a354      	add	r3, pc, #336	; (adr r3, 1002d24 <.LVL261+0xa>)
 1002bd4:	e9d3 2300 	ldrd	r2, r3, [r3]
 1002bd8:	f006 fa58 	bl	100908c <__aeabi_dsub>

01002bdc <.LVL222>:
 1002bdc:	4622      	mov	r2, r4
 1002bde:	462b      	mov	r3, r5
 1002be0:	f004 fb5c 	bl	100729c <__aeabi_dmul>
 1002be4:	a351      	add	r3, pc, #324	; (adr r3, 1002d2c <.LVL263+0x4>)
 1002be6:	e9d3 2300 	ldrd	r2, r3, [r3]
 1002bea:	f006 fa51 	bl	1009090 <__adddf3>
 1002bee:	4622      	mov	r2, r4

01002bf0 <.LVL224>:
 1002bf0:	462b      	mov	r3, r5
 1002bf2:	f004 fb53 	bl	100729c <__aeabi_dmul>
 1002bf6:	f02f fcbc 	bl	1032572 <__pa_fn_0_212_01_0>
 1002bfa:	f006 fa47 	bl	100908c <__aeabi_dsub>
 1002bfe:	4604      	mov	r4, r0
 1002c00:	460d      	mov	r5, r1
 1002c02:	Address 0x01002c02 is out of bounds.


01002c04 <.LVL227>:
 1002c04:	Address 0x01002c04 is out of bounds.


01002c06 <.LVL228>:
 1002c06:	f004 fb49 	bl	100729c <__aeabi_dmul>
 1002c0a:	2200      	movs	r2, #0
 1002c0c:	e9cd 0100 	strd	r0, r1, [sp]
 1002c10:	f04f 4380 	mov.w	r3, #1073741824	; 0x40000000
 1002c14:	4620      	mov	r0, r4
 1002c16:	4629      	mov	r1, r5

01002c18 <.LVL230>:
 1002c18:	Address 0x01002c18 is out of bounds.


01002c1a <.LVL231>:
 1002c1a:	fa38 4602 			; <UNDEFINED> instruction: 0xfa384602
 1002c1e:	460b      	mov	r3, r1
 1002c20:	e9dd 0100 	ldrd	r0, r1, [sp]
 1002c24:	f004 fc64 	bl	10074f0 <__aeabi_ddiv>
 1002c28:	4632      	mov	r2, r6
 1002c2a:	4604      	mov	r4, r0
 1002c2c:	460d      	mov	r5, r1
 1002c2e:	463b      	mov	r3, r7
 1002c30:	4640      	mov	r0, r8
 1002c32:	4649      	mov	r1, r9
 1002c34:	f004 fb32 	bl	100729c <__aeabi_dmul>
 1002c38:	4632      	mov	r2, r6
 1002c3a:	463b      	mov	r3, r7
 1002c3c:	f006 fa28 	bl	1009090 <__adddf3>
 1002c40:	4602      	mov	r2, r0
 1002c42:	460b      	mov	r3, r1
 1002c44:	4620      	mov	r0, r4
 1002c46:	4629      	mov	r1, r5
 1002c48:	f006 fa20 	bl	100908c <__aeabi_dsub>
 1002c4c:	4642      	mov	r2, r8
 1002c4e:	464b      	mov	r3, r9
 1002c50:	f006 fa1c 	bl	100908c <__aeabi_dsub>
 1002c54:	4602      	mov	r2, r0
 1002c56:	460b      	mov	r3, r1
 1002c58:	2000      	movs	r0, #0
 1002c5a:	493a      	ldr	r1, [pc, #232]	; (1002d44 <.LVL266>)
 1002c5c:	f006 fa16 	bl	100908c <__aeabi_dsub>
 1002c60:	eb01 540a 	add.w	r4, r1, sl, lsl #20
 1002c64:	f5b4 1f80 	cmp.w	r4, #1048576	; 0x100000
 1002c68:	4602      	mov	r2, r0
 1002c6a:	460b      	mov	r3, r1
 1002c6c:	da2f      	bge.n	1002cce <.LVL248+0x2a>
 1002c6e:	4650      	mov	r0, sl
 1002c70:	ec43 2b10 	vmov	d0, r2, r3

01002c74 <.LVL242>:
 1002c74:	Address 0x01002c74 is out of bounds.


01002c76 <.LVL243>:
 1002c76:	fec0 ec51 	mcr2	12, 6, lr, cr0, cr1, {2}
 1002c7a:	0b10      	lsrs	r0, r2, #12
 1002c7c:	e9dd 2302 	ldrd	r2, r3, [sp, #8]
 1002c80:	f7ff bc2d 	b.w	10024de <.LVL25>
 1002c84:	4b30      	ldr	r3, [pc, #192]	; (1002d48 <.LVL266+0x4>)
 1002c86:	Address 0x01002c86 is out of bounds.


01002c88 <.LVL245>:
 1002c88:	4600      	mov	r0, r0
 1002c8a:	429e      	cmp	r6, r3
 1002c8c:	f77f af20 	ble.w	1002ad0 <.LBE20+0x5c>
 1002c90:	4b2e      	ldr	r3, [pc, #184]	; (1002d4c <.LVL268>)
 1002c92:	440b      	add	r3, r1
 1002c94:	4303      	orrs	r3, r0
 1002c96:	d00b      	beq.n	1002cb0 <.LVL248+0xc>
 1002c98:	a326      	add	r3, pc, #152	; (adr r3, 1002d34 <.LVL264+0x4>)
 1002c9a:	e9d3 2300 	ldrd	r2, r3, [r3]
 1002c9e:	e9dd 0102 	ldrd	r0, r1, [sp, #8]
 1002ca2:	Address 0x01002ca2 is out of bounds.


01002ca4 <.LVL248>:
 1002ca4:	fafb a323 			; <UNDEFINED> instruction: 0xfafba323
 1002ca8:	e9d3 2300 	ldrd	r2, r3, [r3]
 1002cac:	f7ff bc17 	b.w	10024de <.LVL25>
 1002cb0:	4622      	mov	r2, r4
 1002cb2:	462b      	mov	r3, r5
 1002cb4:	f006 f9ea 	bl	100908c <__aeabi_dsub>
 1002cb8:	f02f fc5b 	bl	1032572 <__pa_fn_0_212_01_0>
 1002cbc:	f012 fd3c 	bl	1015738 <__aeabi_dcmple>
 1002cc0:	2800      	cmp	r0, #0
 1002cc2:	f43f af05 	beq.w	1002ad0 <.LBE20+0x5c>
 1002cc6:	e7e7      	b.n	1002c98 <.LVL245+0x10>
 1002cc8:	f04f 0a00 	mov.w	sl, #0
 1002ccc:	e72c      	b.n	1002b28 <.LVL196+0x2>
 1002cce:	4621      	mov	r1, r4
 1002cd0:	e7d4      	b.n	1002c7c <.LVL243+0x6>
 1002cd2:	2000      	movs	r0, #0
 1002cd4:	491b      	ldr	r1, [pc, #108]	; (1002d44 <.LVL266>)
 1002cd6:	f7ff bbcb 	b.w	1002470 <.LVL12>
 1002cda:	e9dd 0100 	ldrd	r0, r1, [sp]
 1002cde:	f7ff bbc7 	b.w	1002470 <.LVL12>
 1002ce2:	4630      	mov	r0, r6

01002ce4 <.LVL254>:
 1002ce4:	4639      	mov	r1, r7
 1002ce6:	f7ff bbc3 	b.w	1002470 <.LVL12>
 1002cea:	4693      	mov	fp, r2
 1002cec:	f7ff bbd4 	b.w	1002498 <.LVL17>

01002cf0 <.LVL255>:
 1002cf0:	f3af 8000 	nop.w

01002cf4 <.LVL256>:
 1002cf4:	00000000 	.word	0x00000000
 1002cf8:	3fe62e43 	.word	0x3fe62e43

01002cfc <.LVL257>:
 1002cfc:	fefa39ef 	.word	0xfefa39ef
 1002d00:	2e42      	.short	0x2e42

01002d02 <.LVL258>:
 1002d02:	3fe6      	.short	0x3fe6
 1002d04:	0ca86c39 	.word	0x0ca86c39
 1002d08:	be205c61 	.word	0xbe205c61

01002d0c <.LVL259>:
 1002d0c:	72bea4d0 	.word	0x72bea4d0

01002d10 <.LVL260>:
 1002d10:	3e663769 	.word	0x3e663769
 1002d14:	c5d26bf1 	.word	0xc5d26bf1
 1002d18:	bd41      	.short	0xbd41

01002d1a <.LVL261>:
 1002d1a:	3ebb      	.short	0x3ebb
 1002d1c:	af25de2c 	.word	0xaf25de2c
 1002d20:	3f11566a 	.word	0x3f11566a
 1002d24:	16bebd93 	.word	0x16bebd93

01002d28 <.LVL263>:
 1002d28:	3f66c16c 	.word	0x3f66c16c
 1002d2c:	5555553e 	.word	0x5555553e

01002d30 <.LVL264>:
 1002d30:	3fc55555 	.word	0x3fc55555
 1002d34:	c2f8f359 	.word	0xc2f8f359
 1002d38:	01a56e1f 	.word	0x01a56e1f
 1002d3c:	3fe00000 	.word	0x3fe00000
 1002d40:	000fffff 	.word	0x000fffff

01002d44 <.LVL266>:
 1002d44:	3ff00000 	.word	0x3ff00000
 1002d48:	cbff      	.short	0xcbff

01002d4a <.LBB26>:
 1002d4a:	4090      	.short	0x4090

01002d4c <.LVL268>:
 1002d4c:	3400      	.short	0x3400

01002d4e <.LBE26>:
 1002d4e:	3f6f      	.short	0x3f6f
 1002d50:	652b82fe 	.word	0x652b82fe
 1002d54:	1547      	.short	0x1547

01002d56 <.LVL270>:
 1002d56:	3c97      	.short	0x3c97

Disassembly of section .text%90:

01002d58 <bt_modem_common_setup>:
 1002d58:	b480      	push	{r7}
 1002d5a:	af00      	add	r7, sp, #0
 1002d5c:	4b4d      	ldr	r3, [pc, #308]	; (1002e94 <.LFE0+0xc0>)
 1002d5e:	f503 53a9 	add.w	r3, r3, #5408	; 0x1520
 1002d62:	3310      	adds	r3, #16
 1002d64:	4a4c      	ldr	r2, [pc, #304]	; (1002e98 <.LFE0+0xc4>)
 1002d66:	601a      	str	r2, [r3, #0]
 1002d68:	4b4a      	ldr	r3, [pc, #296]	; (1002e94 <.LFE0+0xc0>)
 1002d6a:	f503 53aa 	add.w	r3, r3, #5440	; 0x1540
 1002d6e:	3308      	adds	r3, #8
 1002d70:	4a4a      	ldr	r2, [pc, #296]	; (1002e9c <.LFE0+0xc8>)
 1002d72:	601a      	str	r2, [r3, #0]
 1002d74:	4b47      	ldr	r3, [pc, #284]	; (1002e94 <.LFE0+0xc0>)
 1002d76:	f503 53b8 	add.w	r3, r3, #5888	; 0x1700
 1002d7a:	3304      	adds	r3, #4
 1002d7c:	f44f 4280 	mov.w	r2, #16384	; 0x4000
 1002d80:	601a      	str	r2, [r3, #0]
 1002d82:	4b44      	ldr	r3, [pc, #272]	; (1002e94 <.LFE0+0xc0>)
 1002d84:	f503 53b8 	add.w	r3, r3, #5888	; 0x1700
 1002d88:	331c      	adds	r3, #28
 1002d8a:	f04f 5214 	mov.w	r2, #620756992	; 0x25000000
 1002d8e:	601a      	str	r2, [r3, #0]
 1002d90:	4b40      	ldr	r3, [pc, #256]	; (1002e94 <.LFE0+0xc0>)
 1002d92:	f503 53b9 	add.w	r3, r3, #5920	; 0x1720
 1002d96:	4a42      	ldr	r2, [pc, #264]	; (1002ea0 <.LFE0+0xcc>)
 1002d98:	601a      	str	r2, [r3, #0]
 1002d9a:	4b3e      	ldr	r3, [pc, #248]	; (1002e94 <.LFE0+0xc0>)
 1002d9c:	f503 53b9 	add.w	r3, r3, #5920	; 0x1720
 1002da0:	3304      	adds	r3, #4
 1002da2:	4a40      	ldr	r2, [pc, #256]	; (1002ea4 <.LFE0+0xd0>)
 1002da4:	601a      	str	r2, [r3, #0]
 1002da6:	4b3b      	ldr	r3, [pc, #236]	; (1002e94 <.LFE0+0xc0>)
 1002da8:	f503 53b9 	add.w	r3, r3, #5920	; 0x1720
 1002dac:	3308      	adds	r3, #8
 1002dae:	4a3e      	ldr	r2, [pc, #248]	; (1002ea8 <.LFE0+0xd4>)
 1002db0:	601a      	str	r2, [r3, #0]
 1002db2:	4b38      	ldr	r3, [pc, #224]	; (1002e94 <.LFE0+0xc0>)
 1002db4:	f503 53b9 	add.w	r3, r3, #5920	; 0x1720
 1002db8:	330c      	adds	r3, #12
 1002dba:	4a3c      	ldr	r2, [pc, #240]	; (1002eac <.LFE0+0xd8>)
 1002dbc:	601a      	str	r2, [r3, #0]
 1002dbe:	4b35      	ldr	r3, [pc, #212]	; (1002e94 <.LFE0+0xc0>)
 1002dc0:	f503 53b9 	add.w	r3, r3, #5920	; 0x1720
 1002dc4:	3310      	adds	r3, #16
 1002dc6:	4a3a      	ldr	r2, [pc, #232]	; (1002eb0 <.LFE0+0xdc>)
 1002dc8:	601a      	str	r2, [r3, #0]
 1002dca:	4b32      	ldr	r3, [pc, #200]	; (1002e94 <.LFE0+0xc0>)
 1002dcc:	f503 53b9 	add.w	r3, r3, #5920	; 0x1720
 1002dd0:	3314      	adds	r3, #20
 1002dd2:	22e0      	movs	r2, #224	; 0xe0
 1002dd4:	601a      	str	r2, [r3, #0]
 1002dd6:	4b2f      	ldr	r3, [pc, #188]	; (1002e94 <.LFE0+0xc0>)
 1002dd8:	f503 53b9 	add.w	r3, r3, #5920	; 0x1720
 1002ddc:	3318      	adds	r3, #24
 1002dde:	4a35      	ldr	r2, [pc, #212]	; (1002eb4 <.LFE0+0xe0>)
 1002de0:	601a      	str	r2, [r3, #0]
 1002de2:	4b2c      	ldr	r3, [pc, #176]	; (1002e94 <.LFE0+0xc0>)
 1002de4:	f503 53b9 	add.w	r3, r3, #5920	; 0x1720
 1002de8:	331c      	adds	r3, #28
 1002dea:	4a33      	ldr	r2, [pc, #204]	; (1002eb8 <.LFE0+0xe4>)
 1002dec:	601a      	str	r2, [r3, #0]
 1002dee:	4b29      	ldr	r3, [pc, #164]	; (1002e94 <.LFE0+0xc0>)
 1002df0:	f503 53ba 	add.w	r3, r3, #5952	; 0x1740
 1002df4:	f44f 3240 	mov.w	r2, #196608	; 0x30000
 1002df8:	601a      	str	r2, [r3, #0]
 1002dfa:	4b26      	ldr	r3, [pc, #152]	; (1002e94 <.LFE0+0xc0>)
 1002dfc:	f503 53ba 	add.w	r3, r3, #5952	; 0x1740
 1002e00:	3304      	adds	r3, #4
 1002e02:	4a2e      	ldr	r2, [pc, #184]	; (1002ebc <.LFE0+0xe8>)
 1002e04:	601a      	str	r2, [r3, #0]
 1002e06:	4b23      	ldr	r3, [pc, #140]	; (1002e94 <.LFE0+0xc0>)
 1002e08:	f503 53ba 	add.w	r3, r3, #5952	; 0x1740
 1002e0c:	3308      	adds	r3, #8
 1002e0e:	4a2c      	ldr	r2, [pc, #176]	; (1002ec0 <.LFE0+0xec>)
 1002e10:	601a      	str	r2, [r3, #0]
 1002e12:	4b20      	ldr	r3, [pc, #128]	; (1002e94 <.LFE0+0xc0>)
 1002e14:	f503 53ba 	add.w	r3, r3, #5952	; 0x1740
 1002e18:	330c      	adds	r3, #12
 1002e1a:	4a2a      	ldr	r2, [pc, #168]	; (1002ec4 <.LFE0+0xf0>)
 1002e1c:	601a      	str	r2, [r3, #0]
 1002e1e:	4b1d      	ldr	r3, [pc, #116]	; (1002e94 <.LFE0+0xc0>)
 1002e20:	f503 53ba 	add.w	r3, r3, #5952	; 0x1740
 1002e24:	3310      	adds	r3, #16
 1002e26:	2206      	movs	r2, #6
 1002e28:	601a      	str	r2, [r3, #0]
 1002e2a:	4b1a      	ldr	r3, [pc, #104]	; (1002e94 <.LFE0+0xc0>)
 1002e2c:	f503 53ba 	add.w	r3, r3, #5952	; 0x1740
 1002e30:	3314      	adds	r3, #20
 1002e32:	4a25      	ldr	r2, [pc, #148]	; (1002ec8 <.LFE0+0xf4>)
 1002e34:	601a      	str	r2, [r3, #0]
 1002e36:	4b17      	ldr	r3, [pc, #92]	; (1002e94 <.LFE0+0xc0>)
 1002e38:	f503 53ba 	add.w	r3, r3, #5952	; 0x1740
 1002e3c:	3318      	adds	r3, #24
 1002e3e:	4a23      	ldr	r2, [pc, #140]	; (1002ecc <.LFE0+0xf8>)
 1002e40:	601a      	str	r2, [r3, #0]
 1002e42:	4b14      	ldr	r3, [pc, #80]	; (1002e94 <.LFE0+0xc0>)
 1002e44:	f503 53ba 	add.w	r3, r3, #5952	; 0x1740
 1002e48:	331c      	adds	r3, #28
 1002e4a:	f44f 4200 	mov.w	r2, #32768	; 0x8000
 1002e4e:	601a      	str	r2, [r3, #0]
 1002e50:	4b10      	ldr	r3, [pc, #64]	; (1002e94 <.LFE0+0xc0>)
 1002e52:	f503 53bb 	add.w	r3, r3, #5984	; 0x1760
 1002e56:	4a1e      	ldr	r2, [pc, #120]	; (1002ed0 <.LFE0+0xfc>)
 1002e58:	601a      	str	r2, [r3, #0]
 1002e5a:	4b0e      	ldr	r3, [pc, #56]	; (1002e94 <.LFE0+0xc0>)
 1002e5c:	f503 53bb 	add.w	r3, r3, #5984	; 0x1760
 1002e60:	3304      	adds	r3, #4
 1002e62:	4a1c      	ldr	r2, [pc, #112]	; (1002ed4 <.LFE0+0x100>)
 1002e64:	601a      	str	r2, [r3, #0]
 1002e66:	4b0b      	ldr	r3, [pc, #44]	; (1002e94 <.LFE0+0xc0>)
 1002e68:	f503 53bb 	add.w	r3, r3, #5984	; 0x1760
 1002e6c:	3308      	adds	r3, #8
 1002e6e:	f245 4233 	movw	r2, #21555	; 0x5433
 1002e72:	601a      	str	r2, [r3, #0]
 1002e74:	4b07      	ldr	r3, [pc, #28]	; (1002e94 <.LFE0+0xc0>)
 1002e76:	f503 53bb 	add.w	r3, r3, #5984	; 0x1760
 1002e7a:	330c      	adds	r3, #12
 1002e7c:	f44f 52f0 	mov.w	r2, #7680	; 0x1e00
 1002e80:	601a      	str	r2, [r3, #0]
 1002e82:	4b04      	ldr	r3, [pc, #16]	; (1002e94 <.LFE0+0xc0>)
 1002e84:	f503 53bb 	add.w	r3, r3, #5984	; 0x1760
 1002e88:	3310      	adds	r3, #16
 1002e8a:	2240      	movs	r2, #64	; 0x40
 1002e8c:	601a      	str	r2, [r3, #0]
 1002e8e:	bf00      	nop
 1002e90:	f02f be11 	b.w	1032ab6 <__pa_fn_0_147_10_0>
 1002e94:	41012000 	.word	0x41012000
 1002e98:	4010290c 	.word	0x4010290c
 1002e9c:	ffff001e 	.word	0xffff001e
 1002ea0:	544646c0 	.word	0x544646c0
 1002ea4:	0c0040a0 	.word	0x0c0040a0
 1002ea8:	be8f9210 	.word	0xbe8f9210
 1002eac:	0010d418 	.word	0x0010d418
 1002eb0:	404fa67a 	.word	0x404fa67a
 1002eb4:	2148a953 	.word	0x2148a953
 1002eb8:	4650054b 	.word	0x4650054b
 1002ebc:	8c3d81f1 	.word	0x8c3d81f1
 1002ec0:	0c0c08d3 	.word	0x0c0c08d3
 1002ec4:	18060290 	.word	0x18060290
 1002ec8:	005c8720 	.word	0x005c8720
 1002ecc:	ffff0064 	.word	0xffff0064
 1002ed0:	06400d11 	.word	0x06400d11
 1002ed4:	00242905 	.word	0x00242905

01002ed8 <Delay100ns>:
 1002ed8:	b480      	push	{r7}
 1002eda:	af00      	add	r7, sp, #0

01002edc <L0^A>:
 1002edc:	bf00      	nop
 1002ede:	bf00      	nop
 1002ee0:	bf00      	nop
 1002ee2:	bf00      	nop
 1002ee4:	bf00      	nop
 1002ee6:	bf00      	nop
 1002ee8:	bf00      	nop
 1002eea:	bf00      	nop
 1002eec:	f02f bde3 	b.w	1032ab6 <__pa_fn_0_147_10_0>

01002ef0 <Delay100us>:
 1002ef0:	b480      	push	{r7}
 1002ef2:	b083      	sub	sp, #12
 1002ef4:	af00      	add	r7, sp, #0
 1002ef6:	2300      	movs	r3, #0

01002ef8 <L0^A>:
 1002ef8:	71fb      	strb	r3, [r7, #7]
 1002efa:	e018      	b.n	1002f2e <L0^A+0x36>
 1002efc:	bf00      	nop
 1002efe:	bf00      	nop
 1002f00:	bf00      	nop
 1002f02:	bf00      	nop
 1002f04:	bf00      	nop
 1002f06:	bf00      	nop
 1002f08:	bf00      	nop
 1002f0a:	bf00      	nop
 1002f0c:	bf00      	nop
 1002f0e:	bf00      	nop
 1002f10:	bf00      	nop
 1002f12:	bf00      	nop
 1002f14:	bf00      	nop
 1002f16:	bf00      	nop
 1002f18:	bf00      	nop
 1002f1a:	bf00      	nop
 1002f1c:	bf00      	nop
 1002f1e:	bf00      	nop
 1002f20:	bf00      	nop
 1002f22:	bf00      	nop
 1002f24:	bf00      	nop
 1002f26:	bf00      	nop
 1002f28:	79fb      	ldrb	r3, [r7, #7]
 1002f2a:	3301      	adds	r3, #1
 1002f2c:	71fb      	strb	r3, [r7, #7]
 1002f2e:	79fb      	ldrb	r3, [r7, #7]
 1002f30:	2bc7      	cmp	r3, #199	; 0xc7
 1002f32:	d9e3      	bls.n	1002efc <L0^A+0x4>
 1002f34:	f02e bedd 	b.w	1031cf2 <__pa_fn_0_151_10_0>

01002f38 <Delay100ms>:
 1002f38:	b580      	push	{r7, lr}
 1002f3a:	b082      	sub	sp, #8
 1002f3c:	af00      	add	r7, sp, #0
 1002f3e:	2300      	movs	r3, #0
 1002f40:	80fb      	strh	r3, [r7, #6]
 1002f42:	e004      	b.n	1002f4e <L0^A+0x6>
 1002f44:	f7ff ffd4 	bl	1002ef0 <Delay100us>

01002f48 <L0^A>:
 1002f48:	88fb      	ldrh	r3, [r7, #6]
 1002f4a:	3301      	adds	r3, #1
 1002f4c:	80fb      	strh	r3, [r7, #6]
 1002f4e:	88fb      	ldrh	r3, [r7, #6]
 1002f50:	f5b3 7f61 	cmp.w	r3, #900	; 0x384
 1002f54:	d3f6      	bcc.n	1002f44 <Delay100ms+0xc>
 1002f56:	f02f bdba 	b.w	1032ace <__pa_fn_0_153_11_0>

01002f5a <aclb_initial_settings>:
 1002f5a:	b580      	push	{r7, lr}
 1002f5c:	b082      	sub	sp, #8
 1002f5e:	af00      	add	r7, sp, #0
 1002f60:	4bcc      	ldr	r3, [pc, #816]	; (1003294 <L0^A+0x326>)
 1002f62:	681b      	ldr	r3, [r3, #0]
 1002f64:	607b      	str	r3, [r7, #4]
 1002f66:	4acb      	ldr	r2, [pc, #812]	; (1003294 <L0^A+0x326>)
 1002f68:	687b      	ldr	r3, [r7, #4]
 1002f6a:	f023 7380 	bic.w	r3, r3, #16777216	; 0x1000000

01002f6e <L0^A>:
 1002f6e:	6013      	str	r3, [r2, #0]
 1002f70:	4bc8      	ldr	r3, [pc, #800]	; (1003294 <L0^A+0x326>)
 1002f72:	681b      	ldr	r3, [r3, #0]
 1002f74:	607b      	str	r3, [r7, #4]
 1002f76:	4ac7      	ldr	r2, [pc, #796]	; (1003294 <L0^A+0x326>)
 1002f78:	687b      	ldr	r3, [r7, #4]
 1002f7a:	f043 7380 	orr.w	r3, r3, #16777216	; 0x1000000
 1002f7e:	6013      	str	r3, [r2, #0]
 1002f80:	f640 215a 	movw	r1, #2650	; 0xa5a
 1002f84:	2001      	movs	r0, #1
 1002f86:	f00f f8e1 	bl	101214c <RF_Write_Reg>
 1002f8a:	f44f 719e 	mov.w	r1, #316	; 0x13c
 1002f8e:	2003      	movs	r0, #3
 1002f90:	f00f f8dc 	bl	101214c <RF_Write_Reg>
 1002f94:	f44f 7198 	mov.w	r1, #304	; 0x130
 1002f98:	2004      	movs	r0, #4
 1002f9a:	f00f f8d7 	bl	101214c <RF_Write_Reg>
 1002f9e:	f243 2115 	movw	r1, #12821	; 0x3215
 1002fa2:	2005      	movs	r0, #5
 1002fa4:	f00f f8d2 	bl	101214c <RF_Write_Reg>
 1002fa8:	f243 0106 	movw	r1, #12294	; 0x3006
 1002fac:	2007      	movs	r0, #7
 1002fae:	f00f f8cd 	bl	101214c <RF_Write_Reg>
 1002fb2:	f24e 314e 	movw	r1, #58190	; 0xe34e
 1002fb6:	2008      	movs	r0, #8
 1002fb8:	f00f f8c8 	bl	101214c <RF_Write_Reg>
 1002fbc:	f24e 314e 	movw	r1, #58190	; 0xe34e
 1002fc0:	200a      	movs	r0, #10
 1002fc2:	f00f f8c3 	bl	101214c <RF_Write_Reg>
 1002fc6:	f64c 2186 	movw	r1, #51846	; 0xca86
 1002fca:	2010      	movs	r0, #16
 1002fcc:	f00f f8be 	bl	101214c <RF_Write_Reg>
 1002fd0:	f240 21ad 	movw	r1, #685	; 0x2ad
 1002fd4:	2014      	movs	r0, #20
 1002fd6:	f00f f8b9 	bl	101214c <RF_Write_Reg>
 1002fda:	f244 01e0 	movw	r1, #16608	; 0x40e0
 1002fde:	2017      	movs	r0, #23
 1002fe0:	f00f f8b4 	bl	101214c <RF_Write_Reg>
 1002fe4:	f44f 4189 	mov.w	r1, #17536	; 0x4480
 1002fe8:	2018      	movs	r0, #24
 1002fea:	f00f f8af 	bl	101214c <RF_Write_Reg>
 1002fee:	f64c 2186 	movw	r1, #51846	; 0xca86
 1002ff2:	2019      	movs	r0, #25
 1002ff4:	f00f f8aa 	bl	101214c <RF_Write_Reg>
 1002ff8:	f44f 717e 	mov.w	r1, #1016	; 0x3f8
 1002ffc:	201f      	movs	r0, #31
 1002ffe:	f00f f8a5 	bl	101214c <RF_Write_Reg>
 1003002:	f24e 3154 	movw	r1, #58196	; 0xe354
 1003006:	2036      	movs	r0, #54	; 0x36
 1003008:	f00f f8a0 	bl	101214c <RF_Write_Reg>
 100300c:	f242 018d 	movw	r1, #8333	; 0x208d
 1003010:	2037      	movs	r0, #55	; 0x37
 1003012:	f00f f89b 	bl	101214c <RF_Write_Reg>
 1003016:	f24e 3154 	movw	r1, #58196	; 0xe354
 100301a:	2038      	movs	r0, #56	; 0x38
 100301c:	f00f f896 	bl	101214c <RF_Write_Reg>
 1003020:	f242 0187 	movw	r1, #8327	; 0x2087
 1003024:	2039      	movs	r0, #57	; 0x39
 1003026:	f00f f891 	bl	101214c <RF_Write_Reg>
 100302a:	f246 217a 	movw	r1, #25210	; 0x627a
 100302e:	203a      	movs	r0, #58	; 0x3a
 1003030:	f00f f88c 	bl	101214c <RF_Write_Reg>
 1003034:	f24e 3154 	movw	r1, #58196	; 0xe354
 1003038:	203d      	movs	r0, #61	; 0x3d
 100303a:	f00f f887 	bl	101214c <RF_Write_Reg>
 100303e:	f641 0104 	movw	r1, #6148	; 0x1804
 1003042:	203e      	movs	r0, #62	; 0x3e
 1003044:	f00f f882 	bl	101214c <RF_Write_Reg>
 1003048:	f24e 3154 	movw	r1, #58196	; 0xe354
 100304c:	203f      	movs	r0, #63	; 0x3f
 100304e:	f00f f87d 	bl	101214c <RF_Write_Reg>
 1003052:	f64c 2105 	movw	r1, #51717	; 0xca05
 1003056:	2044      	movs	r0, #68	; 0x44
 1003058:	f00f f878 	bl	101214c <RF_Write_Reg>
 100305c:	f24e 3154 	movw	r1, #58196	; 0xe354
 1003060:	2045      	movs	r0, #69	; 0x45
 1003062:	f00f f873 	bl	101214c <RF_Write_Reg>
 1003066:	f645 01b8 	movw	r1, #22712	; 0x58b8
 100306a:	2046      	movs	r0, #70	; 0x46
 100306c:	f00f f86e 	bl	101214c <RF_Write_Reg>
 1003070:	2101      	movs	r1, #1
 1003072:	2047      	movs	r0, #71	; 0x47
 1003074:	f00f f86a 	bl	101214c <RF_Write_Reg>
 1003078:	f64c 2107 	movw	r1, #51719	; 0xca07
 100307c:	2048      	movs	r0, #72	; 0x48
 100307e:	f00f f865 	bl	101214c <RF_Write_Reg>
 1003082:	f242 0102 	movw	r1, #8194	; 0x2002
 1003086:	2049      	movs	r0, #73	; 0x49
 1003088:	f00f f860 	bl	101214c <RF_Write_Reg>
 100308c:	f24e 3154 	movw	r1, #58196	; 0xe354
 1003090:	204d      	movs	r0, #77	; 0x4d
 1003092:	f00f f85b 	bl	101214c <RF_Write_Reg>
 1003096:	f64a 31ac 	movw	r1, #43948	; 0xabac
 100309a:	2051      	movs	r0, #81	; 0x51
 100309c:	f00f f856 	bl	101214c <RF_Write_Reg>
 10030a0:	f242 0104 	movw	r1, #8196	; 0x2004
 10030a4:	2058      	movs	r0, #88	; 0x58
 10030a6:	f00f f851 	bl	101214c <RF_Write_Reg>
 10030aa:	f44f 6178 	mov.w	r1, #3968	; 0xf80
 10030ae:	205d      	movs	r0, #93	; 0x5d
 10030b0:	f00f f84c 	bl	101214c <RF_Write_Reg>
 10030b4:	f242 61ff 	movw	r1, #9983	; 0x26ff
 10030b8:	2062      	movs	r0, #98	; 0x62
 10030ba:	f00f f847 	bl	101214c <RF_Write_Reg>
 10030be:	f242 61e0 	movw	r1, #9952	; 0x26e0
 10030c2:	2063      	movs	r0, #99	; 0x63
 10030c4:	f00f f842 	bl	101214c <RF_Write_Reg>
 10030c8:	f242 01ff 	movw	r1, #8447	; 0x20ff
 10030cc:	2064      	movs	r0, #100	; 0x64
 10030ce:	f00f f83d 	bl	101214c <RF_Write_Reg>
 10030d2:	f242 01bc 	movw	r1, #8380	; 0x20bc
 10030d6:	2065      	movs	r0, #101	; 0x65
 10030d8:	f00f f838 	bl	101214c <RF_Write_Reg>
 10030dc:	f242 01a5 	movw	r1, #8357	; 0x20a5
 10030e0:	2066      	movs	r0, #102	; 0x66
 10030e2:	f00f f833 	bl	101214c <RF_Write_Reg>
 10030e6:	f242 0198 	movw	r1, #8344	; 0x2098
 10030ea:	2067      	movs	r0, #103	; 0x67
 10030ec:	f00f f82e 	bl	101214c <RF_Write_Reg>
 10030f0:	f242 0102 	movw	r1, #8194	; 0x2002
 10030f4:	206a      	movs	r0, #106	; 0x6a
 10030f6:	f00f f829 	bl	101214c <RF_Write_Reg>
 10030fa:	f64d 0160 	movw	r1, #55392	; 0xd860
 10030fe:	206b      	movs	r0, #107	; 0x6b
 1003100:	f00f f824 	bl	101214c <RF_Write_Reg>
 1003104:	f647 0178 	movw	r1, #30840	; 0x7878
 1003108:	206c      	movs	r0, #108	; 0x6c
 100310a:	f00f f81f 	bl	101214c <RF_Write_Reg>
 100310e:	f64e 1118 	movw	r1, #59672	; 0xe918
 1003112:	206d      	movs	r0, #109	; 0x6d
 1003114:	f00f f81a 	bl	101214c <RF_Write_Reg>
 1003118:	f64f 71e1 	movw	r1, #65505	; 0xffe1
 100311c:	2071      	movs	r0, #113	; 0x71
 100311e:	f00f f815 	bl	101214c <RF_Write_Reg>
 1003122:	f64f 6148 	movw	r1, #65096	; 0xfe48
 1003126:	2072      	movs	r0, #114	; 0x72
 1003128:	f00f f810 	bl	101214c <RF_Write_Reg>
 100312c:	f242 0104 	movw	r1, #8196	; 0x2004
 1003130:	2075      	movs	r0, #117	; 0x75
 1003132:	f00f f80b 	bl	101214c <RF_Write_Reg>
 1003136:	f242 0104 	movw	r1, #8196	; 0x2004
 100313a:	207d      	movs	r0, #125	; 0x7d
 100313c:	f00f f806 	bl	101214c <RF_Write_Reg>
 1003140:	f242 71ff 	movw	r1, #10239	; 0x27ff
 1003144:	2080      	movs	r0, #128	; 0x80
 1003146:	f00f f801 	bl	101214c <RF_Write_Reg>
 100314a:	f24e 314e 	movw	r1, #58190	; 0xe34e
 100314e:	2081      	movs	r0, #129	; 0x81
 1003150:	f00e fffc 	bl	101214c <RF_Write_Reg>
 1003154:	f242 71fa 	movw	r1, #10234	; 0x27fa
 1003158:	2082      	movs	r0, #130	; 0x82
 100315a:	f00e fff7 	bl	101214c <RF_Write_Reg>
 100315e:	f24e 314e 	movw	r1, #58190	; 0xe34e
 1003162:	2083      	movs	r0, #131	; 0x83
 1003164:	f00e fff2 	bl	101214c <RF_Write_Reg>
 1003168:	f242 71f5 	movw	r1, #10229	; 0x27f5
 100316c:	2084      	movs	r0, #132	; 0x84
 100316e:	f00e ffed 	bl	101214c <RF_Write_Reg>
 1003172:	f24e 314e 	movw	r1, #58190	; 0xe34e
 1003176:	2085      	movs	r0, #133	; 0x85
 1003178:	f00e ffe8 	bl	101214c <RF_Write_Reg>
 100317c:	f242 71f2 	movw	r1, #10226	; 0x27f2
 1003180:	2086      	movs	r0, #134	; 0x86
 1003182:	f00e ffe3 	bl	101214c <RF_Write_Reg>
 1003186:	f24e 314e 	movw	r1, #58190	; 0xe34e
 100318a:	2087      	movs	r0, #135	; 0x87
 100318c:	f00e ffde 	bl	101214c <RF_Write_Reg>
 1003190:	f242 71ea 	movw	r1, #10218	; 0x27ea
 1003194:	2088      	movs	r0, #136	; 0x88
 1003196:	f00e ffd9 	bl	101214c <RF_Write_Reg>
 100319a:	f24e 314e 	movw	r1, #58190	; 0xe34e
 100319e:	2089      	movs	r0, #137	; 0x89
 10031a0:	f00e ffd4 	bl	101214c <RF_Write_Reg>
 10031a4:	f242 71e0 	movw	r1, #10208	; 0x27e0
 10031a8:	208a      	movs	r0, #138	; 0x8a
 10031aa:	f00e ffcf 	bl	101214c <RF_Write_Reg>
 10031ae:	f24e 314e 	movw	r1, #58190	; 0xe34e
 10031b2:	208b      	movs	r0, #139	; 0x8b
 10031b4:	f00e ffca 	bl	101214c <RF_Write_Reg>
 10031b8:	f242 71d6 	movw	r1, #10198	; 0x27d6
 10031bc:	208c      	movs	r0, #140	; 0x8c
 10031be:	f00e ffc5 	bl	101214c <RF_Write_Reg>
 10031c2:	f24e 314e 	movw	r1, #58190	; 0xe34e
 10031c6:	208d      	movs	r0, #141	; 0x8d
 10031c8:	f00e ffc0 	bl	101214c <RF_Write_Reg>
 10031cc:	f242 11fb 	movw	r1, #8699	; 0x21fb
 10031d0:	208e      	movs	r0, #142	; 0x8e
 10031d2:	f00e ffbb 	bl	101214c <RF_Write_Reg>
 10031d6:	f24e 3154 	movw	r1, #58196	; 0xe354
 10031da:	208f      	movs	r0, #143	; 0x8f
 10031dc:	f00e ffb6 	bl	101214c <RF_Write_Reg>
 10031e0:	f242 11ed 	movw	r1, #8685	; 0x21ed
 10031e4:	2090      	movs	r0, #144	; 0x90
 10031e6:	f00e ffb1 	bl	101214c <RF_Write_Reg>
 10031ea:	f24e 3154 	movw	r1, #58196	; 0xe354
 10031ee:	2091      	movs	r0, #145	; 0x91
 10031f0:	f00e ffac 	bl	101214c <RF_Write_Reg>
 10031f4:	f242 11e0 	movw	r1, #8672	; 0x21e0
 10031f8:	2092      	movs	r0, #146	; 0x92
 10031fa:	f00e ffa7 	bl	101214c <RF_Write_Reg>
 10031fe:	f24e 3154 	movw	r1, #58196	; 0xe354
 1003202:	2093      	movs	r0, #147	; 0x93
 1003204:	f00e ffa2 	bl	101214c <RF_Write_Reg>
 1003208:	f242 11d6 	movw	r1, #8662	; 0x21d6
 100320c:	2094      	movs	r0, #148	; 0x94
 100320e:	f00e ff9d 	bl	101214c <RF_Write_Reg>
 1003212:	f24e 3154 	movw	r1, #58196	; 0xe354
 1003216:	2095      	movs	r0, #149	; 0x95
 1003218:	f00e ff98 	bl	101214c <RF_Write_Reg>
 100321c:	f242 11ca 	movw	r1, #8650	; 0x21ca
 1003220:	2096      	movs	r0, #150	; 0x96
 1003222:	f00e ff93 	bl	101214c <RF_Write_Reg>
 1003226:	f24e 3154 	movw	r1, #58196	; 0xe354
 100322a:	2097      	movs	r0, #151	; 0x97
 100322c:	f00e ff8e 	bl	101214c <RF_Write_Reg>
 1003230:	f44f 5107 	mov.w	r1, #8640	; 0x21c0
 1003234:	2098      	movs	r0, #152	; 0x98
 1003236:	f00e ff89 	bl	101214c <RF_Write_Reg>
 100323a:	f24e 3154 	movw	r1, #58196	; 0xe354
 100323e:	2099      	movs	r0, #153	; 0x99
 1003240:	f00e ff84 	bl	101214c <RF_Write_Reg>
 1003244:	f242 1196 	movw	r1, #8598	; 0x2196
 1003248:	209a      	movs	r0, #154	; 0x9a
 100324a:	f00e ff7f 	bl	101214c <RF_Write_Reg>
 100324e:	f24e 3154 	movw	r1, #58196	; 0xe354
 1003252:	209b      	movs	r0, #155	; 0x9b
 1003254:	f00e ff7a 	bl	101214c <RF_Write_Reg>
 1003258:	f242 1190 	movw	r1, #8592	; 0x2190
 100325c:	209c      	movs	r0, #156	; 0x9c
 100325e:	f00e ff75 	bl	101214c <RF_Write_Reg>
 1003262:	f24e 3154 	movw	r1, #58196	; 0xe354
 1003266:	209d      	movs	r0, #157	; 0x9d
 1003268:	f00e ff70 	bl	101214c <RF_Write_Reg>
 100326c:	f242 118a 	movw	r1, #8586	; 0x218a
 1003270:	209e      	movs	r0, #158	; 0x9e
